 colorer

 Timestamp is 5facbd5e (Thu Nov 12 04:43:10 2020)

 Preferred load address is 10000000

 Start         Length     Name                   Class
 0001:00000000 00000780H .text$di                CODE
 0001:00000780 0016dd70H .text$mn                CODE
 0001:0016e4f0 00012410H .text$x                 CODE
 0001:00180900 000004e8H .text$yd                CODE
 0002:00000000 0000024cH .idata$5                DATA
 0002:0000024c 00000004H .00cfg                  DATA
 0002:00000250 00000004H .CRT$XCA                DATA
 0002:00000254 00000014H .CRT$XCC                DATA
 0002:00000268 00000008H .CRT$XCL                DATA
 0002:00000270 000000c0H .CRT$XCU                DATA
 0002:00000330 00000004H .CRT$XCZ                DATA
 0002:00000334 00000004H .CRT$XIA                DATA
 0002:00000338 00000014H .CRT$XIC                DATA
 0002:0000034c 00000004H .CRT$XIZ                DATA
 0002:00000350 00000004H .CRT$XLA                DATA
 0002:00000354 00000004H .CRT$XLZ                DATA
 0002:00000358 00000004H .CRT$XPA                DATA
 0002:0000035c 00000004H .CRT$XPB                DATA
 0002:00000360 00000008H .CRT$XPX                DATA
 0002:00000368 00000004H .CRT$XPXA               DATA
 0002:0000036c 00000004H .CRT$XPZ                DATA
 0002:00000370 00000004H .CRT$XTA                DATA
 0002:00000374 0000000cH .CRT$XTZ                DATA
 0002:00000378 00000000H .gfids$y                DATA
 0002:00000380 0007864cH .rdata                  DATA
 0002:000789cc 00000018H .rdata$T                DATA
 0002:000789e4 0000e63cH .rdata$r                DATA
 0002:00087020 000010d4H .rdata$sxdata           DATA
 0002:000880f4 000003e0H .rdata$zzzdbg           DATA
 0002:000884d4 00000004H .rtc$IAA                DATA
 0002:000884d8 00000004H .rtc$IZZ                DATA
 0002:000884dc 00000004H .rtc$TAA                DATA
 0002:000884e0 00000004H .rtc$TZZ                DATA
 0002:000884e4 00000004H .tls                    DATA
 0002:000884e8 00000008H .tls$                   DATA
 0002:000884f0 00000008H .tls$ZZZ                DATA
 0002:000884f8 00015998H .xdata$x                DATA
 0002:0009de90 00000114H .edata                  DATA
 0002:0009dfa4 0000003cH .idata$2                DATA
 0002:0009dfe0 00000014H .idata$3                DATA
 0002:0009dff4 0000024cH .idata$4                DATA
 0002:0009e240 00000b12H .idata$6                DATA
 0003:00000000 00035ca0H .data                   DATA
 0003:00035ca0 0000a290H .data$r                 DATA
 0003:0003ff30 00001a20H .bss                    DATA
 0004:00000000 00000060H .rsrc$01                DATA
 0004:00000060 00000350H .rsrc$02                DATA

  Address         Publics by Value              Rva+Base       Lib:Object

 0000:00000000       ___guard_longjmp_table     00000000     <absolute>
 0000:00000000       __except_list              00000000     <absolute>
 0000:00000000       ___hybrid_code_map         00000000     <absolute>
 0000:00000000       ___hybrid_auxiliary_iat    00000000     <absolute>
 0000:00000000       ___volatile_metadata       00000000     <absolute>
 0000:00000000       ___AbsoluteZero            00000000     <absolute>
 0000:00000000       ___guard_longjmp_count     00000000     <absolute>
 0000:00000000       ___dynamic_value_reloc_table 00000000     <absolute>
 0000:00000000       ___enclave_config          00000000     <absolute>
 0000:00000000       ___hybrid_code_map_count   00000000     <absolute>
 0000:00000000       ___guard_fids_table        00000000     <absolute>
 0000:00000000       ___guard_iat_table         00000000     <absolute>
 0000:00000000       ___guard_fids_count        00000000     <absolute>
 0000:00000000       ___guard_iat_count         00000000     <absolute>
 0000:0000002c       __tls_array                0000002c     <absolute>
 0000:00000100       ___guard_flags             00000100     <absolute>
 0000:00000435       ___safe_se_handler_count   00000435     <absolute>
 0000:00000000       ___ImageBase               10000000     <linker-defined>
 0001:00000780       ??0exception@std@@QAE@ABV01@@Z 10001780 f i ChooseTypeMenu.cpp.obj
 0001:000007b0       ??1invalid_scheduler_policy_thread_specification@Concurrency@@UAE@XZ 100017b0 f i libconcrt:Exceptions.obj
 0001:000007b0       ??1invalid_oversubscribe_operation@Concurrency@@UAE@XZ 100017b0 f i libconcrt:Exceptions.obj
 0001:000007b0       ??1unsupported_os@Concurrency@@UAE@XZ 100017b0 f i libconcrt:Exceptions.obj
 0001:000007b0       ??1invalid_scheduler_policy_value@Concurrency@@UAE@XZ 100017b0 f i libconcrt:Exceptions.obj
 0001:000007b0       ??1format_error@v6@fmt@@UAE@XZ 100017b0 f i spdlog:fmt.cpp.obj
 0001:000007b0       ??1missing_wait@Concurrency@@UAE@XZ 100017b0 f i libconcrt:Exceptions.obj
 0001:000007b0       ??1scheduler_worker_creation_error@Concurrency@@UAE@XZ 100017b0 f i libconcrt:Exceptions.obj
 0001:000007b0       ??1exception@std@@UAE@XZ   100017b0 f i ChooseTypeMenu.cpp.obj
 0001:000007b0       ??1bad_cast@std@@UAE@XZ    100017b0 f i spdlog:fmt.cpp.obj
 0001:000007b0       ??1invalid_argument@std@@UAE@XZ 100017b0 f i libcpmt:xthrow.obj
 0001:000007b0       ??1scheduler_resource_allocation_error@Concurrency@@UAE@XZ 100017b0 f i libconcrt:Platform.obj
 0001:000007b0       ??1bad_array_new_length@std@@UAE@XZ 100017b0 f i FarEditor.cpp.obj
 0001:000007b0       ??1__non_rtti_object@std@@UAE@XZ 100017b0 f i libvcruntime:rtti.obj
 0001:000007b0       ??1improper_lock@Concurrency@@UAE@XZ 100017b0 f i libconcrt:rtlocks.obj
 0001:000007b0       ??1bad_exception@std@@UAE@XZ 100017b0 f i libvcruntime:frame.obj
 0001:000007b0       ??1bad_alloc@std@@UAE@XZ   100017b0 f i FarEditor.cpp.obj
 0001:000007b0       ??1context_self_unblock@Concurrency@@UAE@XZ 100017b0 f i libconcrt:Exceptions.obj
 0001:000007b0       ??1length_error@std@@UAE@XZ 100017b0 f i libcpmt:xthrow.obj
 0001:000007b0       ??1_Interruption_exception@details@Concurrency@@UAE@XZ 100017b0 f i libconcrt:TaskCollection.obj
 0001:000007b0       ??1runtime_error@std@@UAE@XZ 100017b0 f i FarEditor.cpp.obj
 0001:000007b0       ??1out_of_range@std@@UAE@XZ 100017b0 f i libcpmt:xthrow.obj
 0001:000007b0       ??1system_error@std@@UAE@XZ 100017b0 f i colorer:XStr.cpp.obj
 0001:000007b0       ??1invalid_operation@Concurrency@@UAE@XZ 100017b0 f i libconcrt:ResourceManager.obj
 0001:000007b0       ??1improper_scheduler_reference@Concurrency@@UAE@XZ 100017b0 f i libconcrt:Exceptions.obj
 0001:000007b0       ??1invalid_scheduler_policy_key@Concurrency@@UAE@XZ 100017b0 f i libconcrt:Exceptions.obj
 0001:000007b0       ??1nested_scheduler_missing_detach@Concurrency@@UAE@XZ 100017b0 f i libconcrt:Exceptions.obj
 0001:000007b0       ??1improper_scheduler_attach@Concurrency@@UAE@XZ 100017b0 f i libconcrt:Exceptions.obj
 0001:000007b0       ??1context_unblock_unbalanced@Concurrency@@UAE@XZ 100017b0 f i libconcrt:Exceptions.obj
 0001:000007d0       ?what@exception@std@@UBEPBDXZ 100017d0 f i ChooseTypeMenu.cpp.obj
 0001:000007e0       ??_Ebad_alloc@std@@UAEPAXI@Z 100017e0 f i * CIL library *:* CIL module *
 0001:000007e0       ??_Eexception@std@@UAEPAXI@Z 100017e0 f i * CIL library *:* CIL module *
 0001:000007e0       ??_Ebad_cast@std@@UAEPAXI@Z 100017e0 f i spdlog:fmt.cpp.obj
 0001:000007e0       ??_Eruntime_error@std@@UAEPAXI@Z 100017e0 f i * CIL library *:* CIL module *
 0001:000007e0       ??_Gbad_array_new_length@std@@UAEPAXI@Z 100017e0 f i FarEditor.cpp.obj
 0001:000007e0       ??_Gbad_alloc@std@@UAEPAXI@Z 100017e0 f i FarEditor.cpp.obj
 0001:000007e0       ??_Gruntime_error@std@@UAEPAXI@Z 100017e0 f i FarEditor.cpp.obj
 0001:000007e0       ??_Gbad_cast@std@@UAEPAXI@Z 100017e0 f i spdlog:fmt.cpp.obj
 0001:000007e0       ??_Gexception@std@@UAEPAXI@Z 100017e0 f i ChooseTypeMenu.cpp.obj
 0001:000007e0       ??_Ebad_array_new_length@std@@UAEPAXI@Z 100017e0 f i * CIL library *:* CIL module *
 0001:00000810       ??1ChooseTypeMenu@@QAE@XZ  10001810 f   ChooseTypeMenu.cpp.obj
 0001:00000850       ?AddItem@ChooseTypeMenu@@AAEIPB_W_KPBVFileType@@I@Z 10001850 f   ChooseTypeMenu.cpp.obj
 0001:00000960       ?AddFavorite@ChooseTypeMenu@@QAEIPBVFileType@@@Z 10001960 f   ChooseTypeMenu.cpp.obj
 0001:000009e0       ?DelFromFavorites@ChooseTypeMenu@@QAEXI@Z 100019e0 f   ChooseTypeMenu.cpp.obj
 0001:00000c30       ?GenerateName@ChooseTypeMenu@@QAEPAVSString@@PBVFileType@@@Z 10001c30 f   ChooseTypeMenu.cpp.obj
 0001:00000d40       ??1DOMCharacterDataImpl@xercesc_3_2@@QAE@XZ 10001d40 f i xerces-c_3:DOMCharacterDataImpl.cpp.obj
 0001:00000d40       ??1TextConsoleViewer@@QAE@XZ 10001d40 f i colorer:TextConsoleViewer.cpp.obj
 0001:00000d40       ?NotifyAffinitizedWork@FairScheduleGroupSegment@details@Concurrency@@UAEXXZ 10001d40 f i libconcrt:SchedulerBase.obj
 0001:00000d40       ?destroy@stl_condition_variable_vista@details@Concurrency@@UAEXXZ 10001d40 f i libcpmt:cond.obj
 0001:00000d40       ??1OutOfMemoryException@xercesc_3_2@@QAE@XZ 10001d40 f i xerces-c_3:MemoryManagerImpl.cpp.obj
 0001:00000d40       ?reset@DTDAttDef@xercesc_3_2@@UAEXXZ 10001d40 f i xerces-c_3:DTDAttDef.cpp.obj
 0001:00000d40       ?RMAwaken@InternalContextBase@details@Concurrency@@EAEXXZ 10001d40 f i libconcrt:InternalContextBase.obj
 0001:00000d40       ??3@YAXPAXPAVDOMDocumentImpl@xercesc_3_2@@@Z 10001d40 f i xerces-c_3:AbstractDOMParser.cpp.obj
 0001:00000d40       ?endExtSubset@AbstractDOMParser@xercesc_3_2@@UAEXXZ 10001d40 f i xerces-c_3:AbstractDOMParser.cpp.obj
 0001:00000d40       ?startExtSubset@AbstractDOMParser@xercesc_3_2@@UAEXXZ 10001d40 f i xerces-c_3:AbstractDOMParser.cpp.obj
 0001:00000d40       ??1DOMNodeImpl@xercesc_3_2@@QAE@XZ 10001d40 f i xerces-c_3:DOMNodeImpl.cpp.obj
 0001:00000d40       ??1critical_section@Concurrency@@QAE@XZ 10001d40 f i libconcrt:rtlocks.obj
 0001:00000d40       ?normalize@DOMNodeImpl@xercesc_3_2@@QAEXXZ 10001d40 f i xerces-c_3:DOMNodeImpl.cpp.obj
 0001:00000d40       ?resetErrors@DOMLSParserImpl@xercesc_3_2@@UAEXXZ 10001d40 f i xerces-c_3:DOMLSParserImpl.cpp.obj
 0001:00000d40       ?postParseValidation@DTDValidator@xercesc_3_2@@UAEXXZ 10001d40 f i xerces-c_3:DTDValidator.cpp.obj
 0001:00000d40       ?destroy@stl_critical_section_win7@details@Concurrency@@UAEXXZ 10001d40 f i libcpmt:mutex.obj
 0001:00000d40       ?reset@DTDValidator@xercesc_3_2@@UAEXXZ 10001d40 f i xerces-c_3:DTDValidator.cpp.obj
 0001:00000d40       ?orphanChild@CMAny@xercesc_3_2@@UAEXXZ 10001d40 f i xerces-c_3:CMAny.cpp.obj
 0001:00000d40       ?reset@SchemaAttDef@xercesc_3_2@@UAEXXZ 10001d40 f i xerces-c_3:SchemaAttDef.cpp.obj
 0001:00000d40       @_guard_check_icall_nop@4  10001d40 f i LIBCMT:guard_support.obj
 0001:00000d40       ?postParseValidation@SchemaValidator@xercesc_3_2@@UAEXXZ 10001d40 f i xerces-c_3:SchemaValidator.cpp.obj
 0001:00000d40       ?flush@XMLFormatTarget@xercesc_3_2@@UAEXXZ 10001d40 f i xerces-c_3:MemBufFormatTarget.cpp.obj
 0001:00000d40       ?destroy@stl_condition_variable_win7@details@Concurrency@@UAEXXZ 10001d40 f i libcpmt:cond.obj
 0001:00000d40       ?release@DOMTreeWalkerImpl@xercesc_3_2@@UAEXXZ 10001d40 f i xerces-c_3:DOMTreeWalkerImpl.cpp.obj
 0001:00000d40       ?resetEntities@DOMLSParserImpl@xercesc_3_2@@UAEXXZ 10001d40 f i xerces-c_3:DOMLSParserImpl.cpp.obj
 0001:00000d40       ?flush@?$wincolor_sink@Uconsole_mutex@details@spdlog@@@sinks@spdlog@@UAEXXZ 10001d40 f i spdlog:color_sinks.cpp.obj
 0001:00000d40       ?inheritAdditionalFacet@AbstractStringValidator@xercesc_3_2@@MAEXXZ 10001d40 f i xerces-c_3:AbstractStringValidator.cpp.obj
 0001:00000d40       ?inheritAdditionalFacet@AbstractNumericFacetValidator@xercesc_3_2@@MAEXXZ 10001d40 f i xerces-c_3:AbstractNumericFacetValidator.cpp.obj
 0001:00000d40       ??1XMLCanRepGroup@xercesc_3_2@@QAE@XZ 10001d40 f i xerces-c_3:XMLCanRepGroup.cpp.obj
 0001:00000d40       ?__global_delete@@YAXPAXI@Z 10001d40 f i * CIL library *:* CIL module *
 0001:00000d40       ?orphanChild@CMLeaf@xercesc_3_2@@UAEXXZ 10001d40 f i xerces-c_3:DFAContentModel.cpp.obj
 0001:00000d40       ?resetErrors@AnnotationErrorReporter@xercesc_3_2@@UAEXXZ 10001d40 f i xerces-c_3:TraverseSchema.cpp.obj
 0001:00000d40       ??3@YAXPAXPAVDOMDocument@xercesc_3_2@@@Z 10001d40 f i xerces-c_3:AbstractDOMParser.cpp.obj
 0001:00000d40       ?flush_@?$null_sink@Unull_mutex@details@spdlog@@@sinks@spdlog@@MAEXXZ 10001d40 f i FarEditorSet.cpp.obj
 0001:00000d40       ?Destroy@WaitAnyBlock@details@Concurrency@@UAEXXZ 10001d40 f i libconcrt:event.obj
 0001:00000d40       ??3@YAXPAXPAVDOMDocument@xercesc_3_2@@W4NodeObjectType@DOMMemoryManager@1@@Z 10001d40 f i xerces-c_3:DOMAttrImpl.cpp.obj
 0001:00000d40       ?resetErrors@XercesDOMParser@xercesc_3_2@@UAEXXZ 10001d40 f i xerces-c_3:XercesDOMParser.cpp.obj
 0001:00000d40       ??1EndOfEntityException@xercesc_3_2@@QAE@XZ 10001d40 f i xerces-c_3:ReaderMgr.cpp.obj
 0001:00000d40       ??1DOMChildNode@xercesc_3_2@@QAE@XZ 10001d40 f i xerces-c_3:DOMChildNode.cpp.obj
 0001:00000d40       ?resetCachedGrammar@XMLScanner@xercesc_3_2@@UAEXXZ 10001d40 f i xerces-c_3:XMLScanner.cpp.obj
 0001:00000d40       ?resetEntities@XercesDOMParser@xercesc_3_2@@UAEXXZ 10001d40 f i xerces-c_3:XercesDOMParser.cpp.obj
 0001:00000d40       ??3@YAXPAXPAVDOMDocumentImpl@xercesc_3_2@@W4NodeObjectType@DOMMemoryManager@1@@Z 10001d40 f i xerces-c_3:AbstractDOMParser.cpp.obj
 0001:00000d40       ?__empty_global_delete@@YAXPAXI@Z 10001d40 f i ChooseTypeMenu.cpp.obj
 0001:00000d50       ??_H@YGXPAXIIP6EPAX0@Z@Z   10001d50 f i ChooseTypeMenu.cpp.obj
 0001:00000d80       ?signbit@@YA_NO@Z          10001d80 f i FarEditor.cpp.obj
 0001:00000d80       ?signbit@@YA_NN@Z          10001d80 f i FarEditor.cpp.obj
 0001:00000da0       ___local_stdio_printf_options 10001da0 f i FarEditor.cpp.obj
 0001:00000db0       __vsnwprintf_l             10001db0 f i FarEditor.cpp.obj
 0001:00000df0       __snwprintf                10001df0 f i FarEditor.cpp.obj
 0001:00000e10       ??0exception@std@@QAE@QBD@Z 10001e10 f i FarEditor.cpp.obj
 0001:00000e50       ??0bad_array_new_length@std@@QAE@XZ 10001e50 f i FarEditor.cpp.obj
 0001:00000e70       ?_Throw_bad_array_new_length@std@@YAXXZ 10001e70 f i FarEditor.cpp.obj
 0001:00000e90       ??0bad_array_new_length@std@@QAE@ABV01@@Z 10001e90 f i FarEditor.cpp.obj
 0001:00000ec0       ??0bad_alloc@std@@QAE@ABV01@@Z 10001ec0 f i FarEditor.cpp.obj
 0001:00000ef0       ??0runtime_error@std@@QAE@PBD@Z 10001ef0 f i FarEditor.cpp.obj
 0001:00000f30       ??0runtime_error@std@@QAE@ABV01@@Z 10001f30 f i FarEditor.cpp.obj
 0001:00000f60       ??_Gformat_error@v6@fmt@@UAEPAXI@Z 10001f60 f i FarEditor.cpp.obj
 0001:00000f60       ??_Eformat_error@v6@fmt@@UAEPAXI@Z 10001f60 f i * CIL library *:* CIL module *
 0001:00000f80       ?count_digits@internal@v6@fmt@@YAH_K@Z 10001f80 f i FarEditor.cpp.obj
 0001:00001000       ?getId@XSObject@xercesc_3_2@@UBEIXZ 10002000 f i xerces-c_3:XSObject.cpp.obj
 0001:00001000       ?getString@StringToken@xercesc_3_2@@UBEPB_WXZ 10002000 f i xerces-c_3:StringToken.cpp.obj
 0001:00001000       ?getMemoryManager@?$ValueVectorOf@H@xercesc_3_2@@QBEPAVMemoryManager@2@XZ 10002000 f i xerces-c_3:XercesXPath.cpp.obj
 0001:00001000       ?getLocationHints@XMLSchemaDescriptionImpl@xercesc_3_2@@UBEPBV?$RefArrayVectorOf@_W@2@XZ 10002000 f i xerces-c_3:XMLSchemaDescriptionImpl.cpp.obj
 0001:00001000       ?getMax@ClosureToken@xercesc_3_2@@UBEHXZ 10002000 f i xerces-c_3:ClosureToken.cpp.obj
 0001:00001000       ?getPublicId@DOMLSInputImpl@xercesc_3_2@@UBEPB_WXZ 10002000 f i xerces-c_3:DOMLSInputImpl.cpp.obj
 0001:00001000       ?getSystemId@InputSource@xercesc_3_2@@UBEPB_WXZ 10002000 f i colorer:LocalFileXmlInputSource.cpp.obj
 0001:00001000       ?getToken@RangeOp@xercesc_3_2@@UBEPBVToken@2@XZ 10002000 f i xerces-c_3:Op.cpp.obj
 0001:00001000       ?getRoot@DOMTreeWalkerImpl@xercesc_3_2@@UAEPAVDOMNode@2@XZ 10002000 f i xerces-c_3:DOMTreeWalkerImpl.cpp.obj
 0001:00001000       ?getMemoryManager@?$ValueVectorOf@VformatNodeHolder@xercesc_3_2@@@xercesc_3_2@@QBEPAVMemoryManager@2@XZ 10002000 f i xerces-c_3:ContentSpecNode.cpp.obj
 0001:00001000       ?getLocation@DOMErrorImpl@xercesc_3_2@@UBEPAVDOMLocator@2@XZ 10002000 f i xerces-c_3:DOMErrorImpl.cpp.obj
 0001:00001000       ?getMemoryManager@?$ValueVectorOf@PAVComplexTypeInfo@xercesc_3_2@@@xercesc_3_2@@QBEPAVMemoryManager@2@XZ 10002000 f i xerces-c_3:SGXMLScanner.cpp.obj
 0001:00001000       ?getLiteral@StringOp@xercesc_3_2@@UBEPB_WXZ 10002000 f i xerces-c_3:Op.cpp.obj
 0001:00001000       ?getID@Region@@UBEHXZ      10002000 f i colorer:HRCParserImpl.cpp.obj
 0001:00001000       ?getMemoryManager@?$ValueVectorOf@_N@xercesc_3_2@@QBEPAVMemoryManager@2@XZ 10002000 f i xerces-c_3:SGXMLScanner.cpp.obj
 0001:00001000       ?getFilter@DOMNodeIteratorImpl@xercesc_3_2@@UAEPAVDOMNodeFilter@2@XZ 10002000 f i xerces-c_3:DOMNodeIteratorImpl.cpp.obj
 0001:00001000       ?length@SString@@UBEIXZ    10002000 f i FarEditor.cpp.obj
 0001:00001000       ?getKey@XMLEntityDecl@xercesc_3_2@@QBEPB_WXZ 10002000 f i xerces-c_3:DTDGrammar.cpp.obj
 0001:00001000       ?getMemoryManager@?$ValueVectorOf@I@xercesc_3_2@@QBEPAVMemoryManager@2@XZ 10002000 f i xerces-c_3:XPathMatcher.cpp.obj
 0001:00001000       ?getScanner@XMLValidator@xercesc_3_2@@IAEPAVXMLScanner@2@XZ 10002000 f i xerces-c_3:DTDValidator.cpp.obj
 0001:00001000       ?getChild@ChildOp@xercesc_3_2@@UBEPBVOp@2@XZ 10002000 f i xerces-c_3:Op.cpp.obj
 0001:00001000       ?getData@CharOp@xercesc_3_2@@UBEHXZ 10002000 f i xerces-c_3:Op.cpp.obj
 0001:00001000       ?getGroup@FileTypeImpl@@UBEPBVString@@XZ 10002000 f i colorer:FileTypeImpl.cpp.obj
 0001:00001010       ?setScanner@ValidationContext@xercesc_3_2@@UAEXPAVXMLScanner@2@@Z 10002010 f i xerces-c_3:ValidationContextImpl.cpp.obj
 0001:00001010       ?setSystemId@XMLDTDDescription@xercesc_3_2@@UAEXQB_W@Z 10002010 f i xerces-c_3:XMLDTDDescription.cpp.obj
 0001:00001010       ?setMaxBlockSize@TextParser@@UAEXH@Z 10002010 f i colorer:TextParserImpl.cpp.obj
 0001:00001010       ?startInputSource@DOMLSParserImpl@xercesc_3_2@@UAEXABVInputSource@2@@Z 10002010 f i xerces-c_3:DOMLSParserImpl.cpp.obj
 0001:00001010       ?endParsing@RegionHandler@@UAEXI@Z 10002010 f i colorer:Outliner.cpp.obj
 0001:00001010       ?setElemStack@ValidationContext@xercesc_3_2@@UAEXPAVElemStack@2@@Z 10002010 f i xerces-c_3:ValidationContextImpl.cpp.obj
 0001:00001010       ?checkAdditionalFacetConstraints@AbstractStringValidator@xercesc_3_2@@MBEXQAVMemoryManager@2@@Z 10002010 f i xerces-c_3:AbstractStringValidator.cpp.obj
 0001:00001010       ?startInputSource@XercesDOMParser@xercesc_3_2@@UAEXABVInputSource@2@@Z 10002010 f i xerces-c_3:XercesDOMParser.cpp.obj
 0001:00001010       ?serialize@XMLGrammarDescription@xercesc_3_2@@UAEXAAVXSerializeEngine@2@@Z 10002010 f i xerces-c_3:XMLGrammarDescription.cpp.obj
 0001:00001010       ?setNodeValue@DOMNodeImpl@xercesc_3_2@@QAEXPB_W@Z 10002010 f i xerces-c_3:DOMNodeImpl.cpp.obj
 0001:00001010       ?checkAdditionalFacetConstraints@AbstractNumericFacetValidator@xercesc_3_2@@MBEXQAVMemoryManager@2@@Z 10002010 f i xerces-c_3:AbstractNumericFacetValidator.cpp.obj
 0001:00001010       ?startParsing@RegionHandler@@UAEXI@Z 10002010 f i colorer:Outliner.cpp.obj
 0001:00001010       ?setContentSpec@SchemaElementDecl@xercesc_3_2@@UAEXPAVContentSpecNode@2@@Z 10002010 f i xerces-c_3:SchemaElementDecl.cpp.obj
 0001:00001010       ?startEntityReference@XSDDOMParser@xercesc_3_2@@UAEXABVXMLEntityDecl@2@@Z 10002010 f i xerces-c_3:XSDDOMParser.cpp.obj
 0001:00001010       ?checkAdditionalFacetConstraintsBase@AbstractNumericFacetValidator@xercesc_3_2@@MBEXQAVMemoryManager@2@@Z 10002010 f i xerces-c_3:AbstractNumericFacetValidator.cpp.obj
 0001:00001010       ?serialize@XMLAttDefList@xercesc_3_2@@UAEXAAVXSerializeEngine@2@@Z 10002010 f i xerces-c_3:XMLAttDefList.cpp.obj
 0001:00001010       ?validateElement@DTDValidator@xercesc_3_2@@UAEXPBVXMLElementDecl@2@@Z 10002010 f i xerces-c_3:DTDValidator.cpp.obj
 0001:00001010       ?serialize@XMLNumber@xercesc_3_2@@UAEXAAVXSerializeEngine@2@@Z 10002010 f i xerces-c_3:XMLNumber.cpp.obj
 0001:00001010       ?endJob@LineSource@@UAEXI@Z 10002010 f i FarEditor.cpp.obj
 0001:00001010       ?endInputSource@DOMLSParserImpl@xercesc_3_2@@UAEXABVInputSource@2@@Z 10002010 f i xerces-c_3:DOMLSParserImpl.cpp.obj
 0001:00001010       ?sink_it_@?$null_sink@Unull_mutex@details@spdlog@@@sinks@spdlog@@MAEXABUlog_msg@details@3@@Z 10002010 f i FarEditorSet.cpp.obj
 0001:00001010       ?serialize@Grammar@xercesc_3_2@@UAEXAAVXSerializeEngine@2@@Z 10002010 f i xerces-c_3:Grammar.cpp.obj
 0001:00001010       ?endInputSource@XercesDOMParser@xercesc_3_2@@UAEXABVInputSource@2@@Z 10002010 f i xerces-c_3:XercesDOMParser.cpp.obj
 0001:00001010       ?endEntityReference@XSDDOMParser@xercesc_3_2@@UAEXABVXMLEntityDecl@2@@Z 10002010 f i xerces-c_3:XSDDOMParser.cpp.obj
 0001:00001010       ?setMax@Token@xercesc_3_2@@UAEXH@Z 10002010 f i xerces-c_3:RangeToken.cpp.obj
 0001:00001010       ?setContentModel@SchemaElementDecl@xercesc_3_2@@UAEXQAVXMLContentModel@2@@Z 10002010 f i xerces-c_3:SchemaElementDecl.cpp.obj
 0001:00001010       ?setMin@Token@xercesc_3_2@@UAEXH@Z 10002010 f i xerces-c_3:RangeToken.cpp.obj
 0001:00001010       ?setNamespaceScope@ValidationContext@xercesc_3_2@@UAEXPAVNamespaceScope@2@@Z 10002010 f i xerces-c_3:ValidationContextImpl.cpp.obj
 0001:00001010       ?startJob@LineSource@@UAEXI@Z 10002010 f i FarEditor.cpp.obj
 0001:00001020       ??1LineSource@@MAE@XZ      10002020 f i FarEditor.cpp.obj
 0001:00001030       ??_GLineSource@@MAEPAXI@Z  10002030 f i FarEditor.cpp.obj
 0001:00001030       ??_ELineSource@@MAEPAXI@Z  10002030 f i * CIL library *:* CIL module *
 0001:00001060       ?styled@LineRegion@@QAEPBVStyledRegion@@XZ 10002060 f i FarEditor.cpp.obj
 0001:000010d0       ??0LineRegion@@QAE@ABV0@@Z 100020d0 f i FarEditor.cpp.obj
 0001:00001110       ??0FarEditor@@QAE@PAUPluginStartupInfo@@PAVParserFactory@@_N@Z 10002110 f   FarEditor.cpp.obj
 0001:000013c0       ??_GFarEditor@@UAEPAXI@Z   100023c0 f i FarEditor.cpp.obj
 0001:000013c0       ??_EFarEditor@@UAEPAXI@Z   100023c0 f i * CIL library *:* CIL module *
 0001:000014c0       ?endJob@FarEditor@@UAEXI@Z 100024c0 f   FarEditor.cpp.obj
 0001:000014e0       ?getLine@FarEditor@@UAEPAVSString@@I@Z 100024e0 f   FarEditor.cpp.obj
 0001:000015e0       ?chooseFileType@FarEditor@@QAEXPAVString@@@Z 100025e0 f   FarEditor.cpp.obj
 0001:00001630       ?setFileType@FarEditor@@QAEXPAVFileType@@@Z 10002630 f   FarEditor.cpp.obj
 0001:00001670       ?reloadTypeSettings@FarEditor@@AAEXXZ 10002670 f   FarEditor.cpp.obj
 0001:00001830       ?setCrossState@FarEditor@@QAEXHH@Z 10002830 f   FarEditor.cpp.obj
 0001:00001920       ?setRegionMapper@FarEditor@@QAEXPAVRegionMapper@@@Z 10002920 f   FarEditor.cpp.obj
 0001:00001ad0       ?matchPair@FarEditor@@QAEXXZ 10002ad0 f   FarEditor.cpp.obj
 0001:00001bd0       ?selectPair@FarEditor@@QAEXXZ 10002bd0 f   FarEditor.cpp.obj
 0001:00001ca0       ?selectBlock@FarEditor@@QAEXXZ 10002ca0 f   FarEditor.cpp.obj
 0001:00001d70       ?selectRegion@FarEditor@@QAEXXZ 10002d70 f   FarEditor.cpp.obj
 0001:00001e40       ?getNameCurrentScheme@FarEditor@@QAEXXZ 10002e40 f   FarEditor.cpp.obj
 0001:00001f70       ?listFunctions@FarEditor@@QAEXXZ 10002f70 f   FarEditor.cpp.obj
 0001:00001f90       ?listErrors@FarEditor@@QAEXXZ 10002f90 f   FarEditor.cpp.obj
 0001:00001fb0       ?locateFunction@FarEditor@@QAEXXZ 10002fb0 f   FarEditor.cpp.obj
 0001:000022b0       ?updateHighlighting@FarEditor@@QAEXXZ 100032b0 f   FarEditor.cpp.obj
 0001:000022e0       ?editorEvent@FarEditor@@QAEHHPAX@Z 100032e0 f   FarEditor.cpp.obj
 0001:00002bd0       ?showOutliner@FarEditor@@AAEXPAVOutliner@@@Z 10003bd0 f   FarEditor.cpp.obj
 0001:00003ac0       ?enterHandler@FarEditor@@AAE?AUEditorInfo@@XZ 10004ac0 f   FarEditor.cpp.obj
 0001:00003b70       ?convert@FarEditor@@ABE?AUFarColor@@PBVStyledRegion@@@Z 10004b70 f   FarEditor.cpp.obj
 0001:00003ca0       ?addFARColor@FarEditor@@ABEXHHHABUFarColor@@_K@Z 10004ca0 f   FarEditor.cpp.obj
 0001:00003d60       ?cleanEditor@FarEditor@@QAEXXZ 10004d60 f   FarEditor.cpp.obj
 0001:00003de0       ?changeCrossStyle@FarEditor@@QAEXW4CROSS_STYLE@1@@Z 10004de0 f   FarEditor.cpp.obj
 0001:00003e30       ??1?$vector@HV?$allocator@H@std@@@std@@QAE@XZ 10004e30 f i FarEditor.cpp.obj
 0001:00003e30       ??1?$vector@PBVRegion@@V?$allocator@PBVRegion@@@std@@@std@@QAE@XZ 10004e30 f i colorer:HRCParserImpl.cpp.obj
 0001:00003e30       ??1?$vector@PAVOutlineItem@@V?$allocator@PAVOutlineItem@@@std@@@std@@QAE@XZ 10004e30 f i colorer:Outliner.cpp.obj
 0001:00003e30       ??1?$vector@PAVVirtualEntry@@V?$allocator@PAVVirtualEntry@@@std@@@std@@QAE@XZ 10004e30 f i colorer:SchemeNode.cpp.obj
 0001:00003e30       ??1?$vector@PAVFileTypeChooser@@V?$allocator@PAVFileTypeChooser@@@std@@@std@@QAE@XZ 10004e30 f i colorer:FileTypeImpl.cpp.obj
 0001:00003e30       ??1?$vector@PAVEditorListener@@V?$allocator@PAVEditorListener@@@std@@@std@@QAE@XZ 10004e30 f i colorer:BaseEditor.cpp.obj
 0001:00003e30       ??1?$vector@PAVFileTypeImpl@@V?$allocator@PAVFileTypeImpl@@@std@@@std@@QAE@XZ 10004e30 f i colorer:HRCParserImpl.cpp.obj
 0001:00003e30       ??1?$vector@PAVRegionHandler@@V?$allocator@PAVRegionHandler@@@std@@@std@@QAE@XZ 10004e30 f i colorer:BaseEditor.cpp.obj
 0001:00003e30       ??1?$vector@PBVHRDNode@@V?$allocator@PBVHRDNode@@@std@@@std@@QAE@XZ 10004e30 f i FarEditorSet.cpp.obj
 0001:00003e30       ??1?$vector@PAVSchemeNode@@V?$allocator@PAVSchemeNode@@@std@@@std@@QAE@XZ 10004e30 f i colorer:HRCParserImpl.cpp.obj
 0001:00003e30       ??1?$vector@PB_WV?$allocator@PB_W@std@@@std@@QAE@XZ 10004e30 f i FarEditorSet.cpp.obj
 0001:00003e90       ??1?$unique_ptr@VBaseEditor@@U?$default_delete@VBaseEditor@@@std@@@std@@QAE@XZ 10004e90 f i FarEditor.cpp.obj
 0001:00003e90       ??1?$unique_ptr@VOutliner@@U?$default_delete@VOutliner@@@std@@@std@@QAE@XZ 10004e90 f i FarEditor.cpp.obj
 0001:00003ea0       ??1?$unique_ptr@VLineRegion@@U?$default_delete@VLineRegion@@@std@@@std@@QAE@XZ 10004ea0 f i FarEditor.cpp.obj
 0001:00003ed0       ??1?$unique_ptr@V?$level_formatter@Vscoped_padder@details@spdlog@@@details@spdlog@@U?$default_delete@V?$level_formatter@Vscoped_padder@details@spdlog@@@details@spdlog@@@std@@@std@@QAE@XZ 10004ed0 f i spdlog:spdlog.cpp.obj
 0001:00003ed0       ??1?$unique_ptr@V?$B_formatter@Unull_scoped_padder@details@spdlog@@@details@spdlog@@U?$default_delete@V?$B_formatter@Unull_scoped_padder@details@spdlog@@@details@spdlog@@@std@@@std@@QAE@XZ 10004ed0 f i spdlog:spdlog.cpp.obj
 0001:00003ed0       ??1?$unique_ptr@VLocalFileInputSource@xercesc_3_2@@U?$default_delete@VLocalFileInputSource@xercesc_3_2@@@std@@@std@@QAE@XZ 10004ed0 f i colorer:LocalFileXmlInputSource.cpp.obj
 0001:00003ed0       ??1?$unique_ptr@Vflag_formatter@details@spdlog@@U?$default_delete@Vflag_formatter@details@spdlog@@@std@@@std@@QAE@XZ 10004ed0 f i spdlog:spdlog.cpp.obj
 0001:00003ed0       ??1?$unique_ptr@V?$level_formatter@Unull_scoped_padder@details@spdlog@@@details@spdlog@@U?$default_delete@V?$level_formatter@Unull_scoped_padder@details@spdlog@@@details@spdlog@@@std@@@std@@QAE@XZ 10004ed0 f i spdlog:spdlog.cpp.obj
 0001:00003ed0       ??1?$unique_ptr@V?$A_formatter@Unull_scoped_padder@details@spdlog@@@details@spdlog@@U?$default_delete@V?$A_formatter@Unull_scoped_padder@details@spdlog@@@details@spdlog@@@std@@@std@@QAE@XZ 10004ed0 f i spdlog:spdlog.cpp.obj
 0001:00003ed0       ??1?$unique_ptr@V?$A_formatter@Vscoped_padder@details@spdlog@@@details@spdlog@@U?$default_delete@V?$A_formatter@Vscoped_padder@details@spdlog@@@details@spdlog@@@std@@@std@@QAE@XZ 10004ed0 f i spdlog:spdlog.cpp.obj
 0001:00003ed0       ??1?$unique_ptr@VSString@@U?$default_delete@VSString@@@std@@@std@@QAE@XZ 10004ed0 f i FarEditor.cpp.obj
 0001:00003ed0       ??1?$unique_ptr@V?$name_formatter@Unull_scoped_padder@details@spdlog@@@details@spdlog@@U?$default_delete@V?$name_formatter@Unull_scoped_padder@details@spdlog@@@details@spdlog@@@std@@@std@@QAE@XZ 10004ed0 f i spdlog:spdlog.cpp.obj
 0001:00003ed0       ??1?$unique_ptr@V?$name_formatter@Vscoped_padder@details@spdlog@@@details@spdlog@@U?$default_delete@V?$name_formatter@Vscoped_padder@details@spdlog@@@details@spdlog@@@std@@@std@@QAE@XZ 10004ed0 f i spdlog:spdlog.cpp.obj
 0001:00003ed0       ??1?$unique_ptr@V?$a_formatter@Unull_scoped_padder@details@spdlog@@@details@spdlog@@U?$default_delete@V?$a_formatter@Unull_scoped_padder@details@spdlog@@@details@spdlog@@@std@@@std@@QAE@XZ 10004ed0 f i spdlog:spdlog.cpp.obj
 0001:00003ed0       ??1?$unique_ptr@Vformatter@spdlog@@U?$default_delete@Vformatter@spdlog@@@std@@@std@@QAE@XZ 10004ed0 f i FarEditorSet.cpp.obj
 0001:00003ed0       ??1?$unique_ptr@V?$short_level_formatter@Vscoped_padder@details@spdlog@@@details@spdlog@@U?$default_delete@V?$short_level_formatter@Vscoped_padder@details@spdlog@@@details@spdlog@@@std@@@std@@QAE@XZ 10004ed0 f i spdlog:spdlog.cpp.obj
 0001:00003ed0       ??1?$unique_ptr@V?$a_formatter@Vscoped_padder@details@spdlog@@@details@spdlog@@U?$default_delete@V?$a_formatter@Vscoped_padder@details@spdlog@@@details@spdlog@@@std@@@std@@QAE@XZ 10004ed0 f i spdlog:spdlog.cpp.obj
 0001:00003ed0       ??1?$unique_ptr@V_Facet_base@std@@U?$default_delete@V_Facet_base@std@@@2@@std@@QAE@XZ 10004ed0 f i spdlog:fmt.cpp.obj
 0001:00003ed0       ??1?$unique_ptr@VBinFileInputStream@xercesc_3_2@@U?$default_delete@VBinFileInputStream@xercesc_3_2@@@std@@@std@@QAE@XZ 10004ed0 f i colorer:LocalFileXmlInputSource.cpp.obj
 0001:00003ed0       ??1?$unique_ptr@VString@@U?$default_delete@VString@@@std@@@std@@QAE@XZ 10004ed0 f i colorer:FileTypeImpl.cpp.obj
 0001:00003ed0       ??1KeywordInfo@@QAE@XZ     10004ed0 f i colorer:HRCParserImpl.cpp.obj
 0001:00003ed0       ??1?$unique_ptr@V?$B_formatter@Vscoped_padder@details@spdlog@@@details@spdlog@@U?$default_delete@V?$B_formatter@Vscoped_padder@details@spdlog@@@details@spdlog@@@std@@@std@@QAE@XZ 10004ed0 f i spdlog:spdlog.cpp.obj
 0001:00003ed0       ??1?$unique_ptr@VParserFactory@@U?$default_delete@VParserFactory@@@std@@@std@@QAE@XZ 10004ed0 f i FarEditorSet.cpp.obj
 0001:00003ed0       ??1?$unique_ptr@V?$b_formatter@Unull_scoped_padder@details@spdlog@@@details@spdlog@@U?$default_delete@V?$b_formatter@Unull_scoped_padder@details@spdlog@@@details@spdlog@@@std@@@std@@QAE@XZ 10004ed0 f i spdlog:spdlog.cpp.obj
 0001:00003ed0       ??1?$unique_ptr@VXmlInputSource@@U?$default_delete@VXmlInputSource@@@std@@@std@@QAE@XZ 10004ed0 f i FarEditorSet.cpp.obj
 0001:00003ed0       ??1?$unique_ptr@V?$b_formatter@Vscoped_padder@details@spdlog@@@details@spdlog@@U?$default_delete@V?$b_formatter@Vscoped_padder@details@spdlog@@@details@spdlog@@@std@@@std@@QAE@XZ 10004ed0 f i spdlog:spdlog.cpp.obj
 0001:00003ed0       ??1?$unique_ptr@V?$short_level_formatter@Unull_scoped_padder@details@spdlog@@@details@spdlog@@U?$default_delete@V?$short_level_formatter@Unull_scoped_padder@details@spdlog@@@details@spdlog@@@std@@@std@@QAE@XZ 10004ed0 f i spdlog:spdlog.cpp.obj
 0001:00003ed0       ??1?$unique_ptr@VBinInputStream@xercesc_3_2@@U?$default_delete@VBinInputStream@xercesc_3_2@@@std@@@std@@QAE@XZ 10004ed0 f i colorer:ParserFactory.cpp.obj
 0001:00003ee0       ??1?$basic_memory_buffer@D$0PK@V?$allocator@D@std@@@v6@fmt@@UAE@XZ 10004ee0 f i FarEditor.cpp.obj
 0001:00003f20       ??0?$basic_string_view@D@v6@fmt@@QAE@PBD@Z 10004f20 f i FarEditor.cpp.obj
 0001:00003f50       ?_Tidy_deallocate@?$basic_string@DU?$char_traits@D@std@@V?$allocator@D@2@@std@@AAEXXZ 10004f50 f i FarEditor.cpp.obj
 0001:00003f50       ??1?$basic_string@DU?$char_traits@D@std@@V?$allocator@D@2@@std@@QAE@XZ 10004f50 f i FarEditor.cpp.obj
 0001:00003fa0       ??0?$basic_string@DU?$char_traits@D@std@@V?$allocator@D@2@@std@@QAE@QBD@Z 10004fa0 f i FarEditor.cpp.obj
 0001:00003fe0       ??_G?$basic_memory_buffer@D$0PK@V?$allocator@D@std@@@v6@fmt@@UAEPAXI@Z 10004fe0 f i FarEditor.cpp.obj
 0001:00003fe0       ??_E?$basic_memory_buffer@D$0PK@V?$allocator@D@std@@@v6@fmt@@UAEPAXI@Z 10004fe0 f i * CIL library *:* CIL module *
 0001:00004040       ?assign@?$basic_string@DU?$char_traits@D@std@@V?$allocator@D@2@@std@@QAEAAV12@QBDI@Z 10005040 f i FarEditor.cpp.obj
 0001:00004170       ?allocate@?$allocator@D@std@@QAEPADI@Z 10005170 f i FarEditor.cpp.obj
 0001:000041c0       ?grow@?$basic_memory_buffer@D$0BPE@V?$allocator@D@std@@@v6@fmt@@MAEXI@Z 100051c0 f i FarEditor.cpp.obj
 0001:000041c0       ?grow@?$basic_memory_buffer@D$0PK@V?$allocator@D@std@@@v6@fmt@@MAEXI@Z 100051c0 f i FarEditor.cpp.obj
 0001:00004290       ??$make_unique@VSString@@VCString@@$0A@@std@@YA?AV?$unique_ptr@VSString@@U?$default_delete@VSString@@@std@@@0@$$QAVCString@@@Z 10005290 f i FarEditor.cpp.obj
 0001:000042e0       ??$debug@PBD@spdlog@@YAXV?$basic_string_view@D@v6@fmt@@ABQBD@Z 100052e0 f i FarEditor.cpp.obj
 0001:00004320       ?_Xlen@?$basic_string@DU?$char_traits@D@std@@V?$allocator@D@2@@std@@CAXXZ 10005320 f i FarEditor.cpp.obj
 0001:00004330       ??$uninitialized_copy@PADV?$checked_array_iterator@PAD@stdext@@@std@@YA?AV?$checked_array_iterator@PAD@stdext@@QAD0V12@@Z 10005330 f i FarEditor.cpp.obj
 0001:00004330       ??$uninitialized_copy@PBDV?$checked_array_iterator@PAD@stdext@@@std@@YA?AV?$checked_array_iterator@PAD@stdext@@QBD0V12@@Z 10005330 f i FarEditor.cpp.obj
 0001:00004390       ??$vformat_to@D@internal@v6@fmt@@YA?AV?$back_insert_iterator@V?$buffer@D@internal@v6@fmt@@@std@@AAV?$buffer@D@012@V?$basic_string_view@D@12@V?$basic_format_args@V?$basic_format_context@V?$back_insert_iterator@V?$buffer@D@internal@v6@fmt@@@std@@D@v6@fmt@@@12@@Z 10005390 f i FarEditor.cpp.obj
 0001:00004420       ??$log@PBD@logger@spdlog@@QAEXUsource_loc@1@W4level_enum@level@1@V?$basic_string_view@D@v6@fmt@@ABQBD@Z 10005420 f i FarEditor.cpp.obj
 0001:00004630       ??1?$format_handler@V?$arg_formatter@V?$buffer_range@D@v6@fmt@@@v6@fmt@@DV?$basic_format_context@V?$back_insert_iterator@V?$buffer@D@internal@v6@fmt@@@std@@D@23@@v6@fmt@@QAE@XZ 10005630 f i FarEditor.cpp.obj
 0001:00004640       ??0?$format_handler@V?$arg_formatter@V?$buffer_range@D@v6@fmt@@@v6@fmt@@DV?$basic_format_context@V?$back_insert_iterator@V?$buffer@D@internal@v6@fmt@@@std@@D@23@@v6@fmt@@QAE@V?$buffer_range@D@12@V?$basic_string_view@D@12@V?$basic_format_args@V?$basic_format_context@V?$back_insert_iterator@V?$buffer@D@internal@v6@fmt@@@std@@D@v6@fmt@@@12@Vlocale_ref@internal@12@@Z 10005640 f i FarEditor.cpp.obj
 0001:000046a0       ??$parse_format_string@$0A@DAAU?$format_handler@V?$arg_formatter@V?$buffer_range@D@v6@fmt@@@v6@fmt@@DV?$basic_format_context@V?$back_insert_iterator@V?$buffer@D@internal@v6@fmt@@@std@@D@23@@v6@fmt@@@internal@v6@fmt@@YAXV?$basic_string_view@D@12@AAU?$format_handler@V?$arg_formatter@V?$buffer_range@D@v6@fmt@@@v6@fmt@@DV?$basic_format_context@V?$back_insert_iterator@V?$buffer@D@internal@v6@fmt@@@std@@D@23@@12@@Z 100056a0 f i FarEditor.cpp.obj
 0001:00004b60       ??Rpfs_writer@?1???$parse_format_string@$0A@DAAU?$format_handler@V?$arg_formatter@V?$buffer_range@D@v6@fmt@@@v6@fmt@@DV?$basic_format_context@V?$back_insert_iterator@V?$buffer@D@internal@v6@fmt@@@std@@D@23@@v6@fmt@@@internal@v6@fmt@@YAXV?$basic_string_view@D@23@AAU?$format_handler@V?$arg_formatter@V?$buffer_range@D@v6@fmt@@@v6@fmt@@DV?$basic_format_context@V?$back_insert_iterator@V?$buffer@D@internal@v6@fmt@@@std@@D@23@@23@@Z@QAEXPBD2@Z 10005b60 f i FarEditor.cpp.obj
 0001:00004ca0       ??$format_to@V?$basic_string_view@D@v6@fmt@@ABQBD$0PK@D@v6@fmt@@YA?AV?$back_insert_iterator@V?$buffer@D@internal@v6@fmt@@@std@@AAV?$basic_memory_buffer@D$0PK@V?$allocator@D@std@@@01@ABV?$basic_string_view@D@01@ABQBD@Z 10005ca0 f i FarEditor.cpp.obj
 0001:00004d40       ??$parse_arg_id@DU?$id_adapter@AAU?$format_handler@V?$arg_formatter@V?$buffer_range@D@v6@fmt@@@v6@fmt@@DV?$basic_format_context@V?$back_insert_iterator@V?$buffer@D@internal@v6@fmt@@@std@@D@23@@v6@fmt@@D@internal@v6@fmt@@@internal@v6@fmt@@YAPBDPBD0$$QAU?$id_adapter@AAU?$format_handler@V?$arg_formatter@V?$buffer_range@D@v6@fmt@@@v6@fmt@@DV?$basic_format_context@V?$back_insert_iterator@V?$buffer@D@internal@v6@fmt@@@std@@D@23@@v6@fmt@@D@012@@Z 10005d40 f i FarEditor.cpp.obj
 0001:00004f20       ??$parse_format_specs@DAAV?$specs_checker@V?$specs_handler@V?$basic_format_parse_context@DUerror_handler@internal@v6@fmt@@@v6@fmt@@V?$basic_format_context@V?$back_insert_iterator@V?$buffer@D@internal@v6@fmt@@@std@@D@23@@internal@v6@fmt@@@internal@v6@fmt@@@internal@v6@fmt@@YAPBDPBD0AAV?$specs_checker@V?$specs_handler@V?$basic_format_parse_context@DUerror_handler@internal@v6@fmt@@@v6@fmt@@V?$basic_format_context@V?$back_insert_iterator@V?$buffer@D@internal@v6@fmt@@@std@@D@23@@internal@v6@fmt@@@012@@Z 10005f20 f i FarEditor.cpp.obj
 0001:00005300       ??$visit_format_arg@V?$arg_formatter@V?$buffer_range@D@v6@fmt@@@v6@fmt@@V?$basic_format_context@V?$back_insert_iterator@V?$buffer@D@internal@v6@fmt@@@std@@D@23@@v6@fmt@@YA?AV?$back_insert_iterator@V?$buffer@D@internal@v6@fmt@@@std@@$$QAV?$arg_formatter@V?$buffer_range@D@v6@fmt@@@01@ABV?$basic_format_arg@V?$basic_format_context@V?$back_insert_iterator@V?$buffer@D@internal@v6@fmt@@@std@@D@v6@fmt@@@01@@Z 10006300 f i FarEditor.cpp.obj
 0001:00005c20       ??$get_arg@V?$basic_format_context@V?$back_insert_iterator@V?$buffer@D@internal@v6@fmt@@@std@@D@v6@fmt@@@internal@v6@fmt@@YA?AV?$basic_format_arg@V?$basic_format_context@V?$back_insert_iterator@V?$buffer@D@internal@v6@fmt@@@std@@D@v6@fmt@@@12@AAV?$basic_format_context@V?$back_insert_iterator@V?$buffer@D@internal@v6@fmt@@@std@@D@12@H@Z 10006c20 f i FarEditor.cpp.obj
 0001:00005cf0       ?resize@?$buffer@D@internal@v6@fmt@@QAEXI@Z 10006cf0 f i FarEditor.cpp.obj
 0001:00005d10       ?write@?$basic_writer@V?$buffer_range@D@v6@fmt@@@internal@v6@fmt@@QAEXV?$basic_string_view@D@34@@Z 10006d10 f i FarEditor.cpp.obj
 0001:00005d70       ?reserve@?$basic_writer@V?$buffer_range@D@v6@fmt@@@internal@v6@fmt@@AAE?AV?$checked_array_iterator@PAD@stdext@@I@Z 10006d70 f i FarEditor.cpp.obj
 0001:00005db0       ?arg@?$basic_format_context@V?$back_insert_iterator@V?$buffer@D@internal@v6@fmt@@@std@@D@v6@fmt@@QAE?AV?$basic_format_arg@V?$basic_format_context@V?$back_insert_iterator@V?$buffer@D@internal@v6@fmt@@@std@@D@v6@fmt@@@23@V?$basic_string_view@D@23@@Z 10006db0 f i FarEditor.cpp.obj
 0001:00006090       ??$?RH$0A@@?$arg_formatter_base@V?$buffer_range@D@v6@fmt@@Uerror_handler@internal@23@@internal@v6@fmt@@QAE?AV?$back_insert_iterator@V?$buffer@D@internal@v6@fmt@@@std@@H@Z 10007090 f i FarEditor.cpp.obj
 0001:000061f0       ??$write@D@?$basic_writer@V?$buffer_range@D@v6@fmt@@@internal@v6@fmt@@QAEXV?$basic_string_view@D@23@ABU?$basic_format_specs@D@23@@Z 100071f0 f i FarEditor.cpp.obj
 0001:00006230       ??$write_pointer@I@?$basic_writer@V?$buffer_range@D@v6@fmt@@@internal@v6@fmt@@QAEXIPBU?$basic_format_specs@D@23@@Z 10007230 f i FarEditor.cpp.obj
 0001:00006480       ??$copy_str@DPBDV?$checked_array_iterator@PAD@stdext@@$0A@@internal@v6@fmt@@YA?AV?$checked_array_iterator@PAD@stdext@@PBD0V34@@Z 10007480 f i FarEditor.cpp.obj
 0001:000064e0       ??0format_error@v6@fmt@@QAE@ABV012@@Z 100074e0 f i FarEditor.cpp.obj
 0001:00006510       ?on_char@char_spec_handler@?$arg_formatter_base@V?$buffer_range@D@v6@fmt@@Uerror_handler@internal@23@@internal@v6@fmt@@QAEXXZ 10007510 f i FarEditor.cpp.obj
 0001:00006570       ?write@?$basic_writer@V?$buffer_range@D@v6@fmt@@@internal@v6@fmt@@QAEXH@Z 10007570 f i FarEditor.cpp.obj
 0001:00006640       ??E?$checked_array_iterator@PAD@stdext@@QAE?AV01@H@Z 10007640 f i FarEditor.cpp.obj
 0001:00006680       ??D?$checked_array_iterator@PAD@stdext@@QBEAADXZ 10007680 f i FarEditor.cpp.obj
 0001:000066a0       ??$parse_nonnegative_int@DAAV?$specs_checker@V?$specs_handler@V?$basic_format_parse_context@DUerror_handler@internal@v6@fmt@@@v6@fmt@@V?$basic_format_context@V?$back_insert_iterator@V?$buffer@D@internal@v6@fmt@@@std@@D@23@@internal@v6@fmt@@@internal@v6@fmt@@@internal@v6@fmt@@YAHAAPBDPBDAAV?$specs_checker@V?$specs_handler@V?$basic_format_parse_context@DUerror_handler@internal@v6@fmt@@@v6@fmt@@V?$basic_format_context@V?$back_insert_iterator@V?$buffer@D@internal@v6@fmt@@@std@@D@23@@internal@v6@fmt@@@012@@Z 100076a0 f i FarEditor.cpp.obj
 0001:00006710       ??$parse_arg_id@DU?$width_adapter@AAV?$specs_checker@V?$specs_handler@V?$basic_format_parse_context@DUerror_handler@internal@v6@fmt@@@v6@fmt@@V?$basic_format_context@V?$back_insert_iterator@V?$buffer@D@internal@v6@fmt@@@std@@D@23@@internal@v6@fmt@@@internal@v6@fmt@@D@internal@v6@fmt@@@internal@v6@fmt@@YAPBDPBD0$$QAU?$width_adapter@AAV?$specs_checker@V?$specs_handler@V?$basic_format_parse_context@DUerror_handler@internal@v6@fmt@@@v6@fmt@@V?$basic_format_context@V?$back_insert_iterator@V?$buffer@D@internal@v6@fmt@@@std@@D@23@@internal@v6@fmt@@@internal@v6@fmt@@D@012@@Z 10007710 f i FarEditor.cpp.obj
 0001:00006940       ??$parse_arg_id@DU?$precision_adapter@AAV?$specs_checker@V?$specs_handler@V?$basic_format_parse_context@DUerror_handler@internal@v6@fmt@@@v6@fmt@@V?$basic_format_context@V?$back_insert_iterator@V?$buffer@D@internal@v6@fmt@@@std@@D@23@@internal@v6@fmt@@@internal@v6@fmt@@D@internal@v6@fmt@@@internal@v6@fmt@@YAPBDPBD0$$QAU?$precision_adapter@AAV?$specs_checker@V?$specs_handler@V?$basic_format_parse_context@DUerror_handler@internal@v6@fmt@@@v6@fmt@@V?$basic_format_context@V?$back_insert_iterator@V?$buffer@D@internal@v6@fmt@@@std@@D@23@@internal@v6@fmt@@@internal@v6@fmt@@D@012@@Z 10007940 f i FarEditor.cpp.obj
 0001:00006b70       ??$write@M$0A@@?$basic_writer@V?$buffer_range@D@v6@fmt@@@internal@v6@fmt@@QAEXMU?$basic_format_specs@D@23@@Z 10007b70 f i FarEditor.cpp.obj
 0001:00006f20       ??$write@N$0A@@?$basic_writer@V?$buffer_range@D@v6@fmt@@@internal@v6@fmt@@QAEXNU?$basic_format_specs@D@23@@Z 10007f20 f i FarEditor.cpp.obj
 0001:000072d0       ??$write@O$0A@@?$basic_writer@V?$buffer_range@D@v6@fmt@@@internal@v6@fmt@@QAEXOU?$basic_format_specs@D@23@@Z 100082d0 f i FarEditor.cpp.obj
 0001:00007680       ??$?RAAV?$checked_array_iterator@PAD@stdext@@@?$pointer_writer@I@?$basic_writer@V?$buffer_range@D@v6@fmt@@@internal@v6@fmt@@QBEXAAV?$checked_array_iterator@PAD@stdext@@@Z 10008680 f i FarEditor.cpp.obj
 0001:00007680       ??$?RV?$checked_array_iterator@PAD@stdext@@@?$pointer_writer@I@?$basic_writer@V?$buffer_range@D@v6@fmt@@@internal@v6@fmt@@QBEX$$QAV?$checked_array_iterator@PAD@stdext@@@Z 10008680 f i FarEditor.cpp.obj
 0001:00007720       ??$write_padded@Uchar_writer@?$arg_formatter_base@V?$buffer_range@D@v6@fmt@@Uerror_handler@internal@23@@internal@v6@fmt@@@?$basic_writer@V?$buffer_range@D@v6@fmt@@@internal@v6@fmt@@QAEXABU?$basic_format_specs@D@23@$$QAUchar_writer@?$arg_formatter_base@V?$buffer_range@D@v6@fmt@@Uerror_handler@internal@23@@123@@Z 10008720 f i FarEditor.cpp.obj
 0001:000078c0       ??0?$float_writer@D@internal@v6@fmt@@QAE@PBDHHUfloat_specs@123@D@Z 100088c0 f i FarEditor.cpp.obj
 0001:00007940       ??1?$basic_memory_buffer@D$0BPE@V?$allocator@D@std@@@v6@fmt@@UAE@XZ 10008940 f i FarEditor.cpp.obj
 0001:00007980       ??_G?$basic_memory_buffer@D$0BPE@V?$allocator@D@std@@@v6@fmt@@UAEPAXI@Z 10008980 f i FarEditor.cpp.obj
 0001:00007980       ??_E?$basic_memory_buffer@D$0BPE@V?$allocator@D@std@@@v6@fmt@@UAEPAXI@Z 10008980 f i * CIL library *:* CIL module *
 0001:000079e0       ??$handle_int_type_spec@U?$int_writer@DU?$basic_format_specs@D@v6@fmt@@@?$basic_writer@V?$buffer_range@D@v6@fmt@@@internal@v6@fmt@@@internal@v6@fmt@@YAXD$$QAU?$int_writer@DU?$basic_format_specs@D@v6@fmt@@@?$basic_writer@V?$buffer_range@D@v6@fmt@@@012@@Z 100089e0 f i FarEditor.cpp.obj
 0001:000079e0       ??$handle_int_type_spec@U?$int_writer@HU?$basic_format_specs@D@v6@fmt@@@?$basic_writer@V?$buffer_range@D@v6@fmt@@@internal@v6@fmt@@@internal@v6@fmt@@YAXD$$QAU?$int_writer@HU?$basic_format_specs@D@v6@fmt@@@?$basic_writer@V?$buffer_range@D@v6@fmt@@@012@@Z 100089e0 f i FarEditor.cpp.obj
 0001:000079e0       ??$handle_int_type_spec@U?$int_writer@IU?$basic_format_specs@D@v6@fmt@@@?$basic_writer@V?$buffer_range@D@v6@fmt@@@internal@v6@fmt@@@internal@v6@fmt@@YAXD$$QAU?$int_writer@IU?$basic_format_specs@D@v6@fmt@@@?$basic_writer@V?$buffer_range@D@v6@fmt@@@012@@Z 100089e0 f i FarEditor.cpp.obj
 0001:00007e70       ??$handle_int_type_spec@U?$int_writer@_KU?$basic_format_specs@D@v6@fmt@@@?$basic_writer@V?$buffer_range@D@v6@fmt@@@internal@v6@fmt@@@internal@v6@fmt@@YAXD$$QAU?$int_writer@_KU?$basic_format_specs@D@v6@fmt@@@?$basic_writer@V?$buffer_range@D@v6@fmt@@@012@@Z 10008e70 f i FarEditor.cpp.obj
 0001:00007e70       ??$handle_int_type_spec@U?$int_writer@_JU?$basic_format_specs@D@v6@fmt@@@?$basic_writer@V?$buffer_range@D@v6@fmt@@@internal@v6@fmt@@@internal@v6@fmt@@YAXD$$QAU?$int_writer@_JU?$basic_format_specs@D@v6@fmt@@@?$basic_writer@V?$buffer_range@D@v6@fmt@@@012@@Z 10008e70 f i FarEditor.cpp.obj
 0001:00008360       ??$parse_float_type_spec@Uerror_handler@internal@v6@fmt@@D@internal@v6@fmt@@YA?AUfloat_specs@012@ABU?$basic_format_specs@D@12@$$QAUerror_handler@012@@Z 10009360 f i FarEditor.cpp.obj
 0001:000084d0       ??$write_padded@U?$nonfinite_writer@D@internal@v6@fmt@@@?$basic_writer@V?$buffer_range@D@v6@fmt@@@internal@v6@fmt@@QAEXABU?$basic_format_specs@D@23@$$QAU?$nonfinite_writer@D@123@@Z 100094d0 f i FarEditor.cpp.obj
 0001:000086b0       ??$write_padded@U?$str_writer@D@?$basic_writer@V?$buffer_range@D@v6@fmt@@@internal@v6@fmt@@@?$basic_writer@V?$buffer_range@D@v6@fmt@@@internal@v6@fmt@@QAEXABU?$basic_format_specs@D@23@$$QAU?$str_writer@D@0123@@Z 100096b0 f i FarEditor.cpp.obj
 0001:00008870       ??$write_padded@V?$float_writer@D@internal@v6@fmt@@@?$basic_writer@V?$buffer_range@D@v6@fmt@@@internal@v6@fmt@@QAEXABU?$basic_format_specs@D@23@$$QAV?$float_writer@D@123@@Z 10009870 f i FarEditor.cpp.obj
 0001:00008a50       ??$isfinite@N@@YA_NN@Z     10009a50 f i FarEditor.cpp.obj
 0001:00008a80       ??$isinf@N@@YA_NN@Z        10009a80 f i FarEditor.cpp.obj
 0001:00008ab0       ??$isfinite@O@@YA_NO@Z     10009ab0 f i FarEditor.cpp.obj
 0001:00008ae0       ??$isinf@O@@YA_NO@Z        10009ae0 f i FarEditor.cpp.obj
 0001:00008b10       ??$format_uint@$03DV?$checked_array_iterator@PAD@stdext@@I@internal@v6@fmt@@YA?AV?$checked_array_iterator@PAD@stdext@@V34@IH_N@Z 10009b10 f i FarEditor.cpp.obj
 0001:00008bb0       ??$fill_n@V?$checked_array_iterator@PAD@stdext@@ID@std@@YA?AV?$checked_array_iterator@PAD@stdext@@V12@IABD@Z 10009bb0 f i FarEditor.cpp.obj
 0001:00008c30       ??$prettify@Vcounting_iterator@internal@v6@fmt@@@?$float_writer@D@internal@v6@fmt@@ABE?AVcounting_iterator@123@V4123@@Z 10009c30 f i FarEditor.cpp.obj
 0001:00008df0       ?on_num@?$int_writer@DU?$basic_format_specs@D@v6@fmt@@@?$basic_writer@V?$buffer_range@D@v6@fmt@@@internal@v6@fmt@@QAEXXZ 10009df0 f i FarEditor.cpp.obj
 0001:00008df0       ?on_num@?$int_writer@IU?$basic_format_specs@D@v6@fmt@@@?$basic_writer@V?$buffer_range@D@v6@fmt@@@internal@v6@fmt@@QAEXXZ 10009df0 f i FarEditor.cpp.obj
 0001:00008df0       ?on_num@?$int_writer@HU?$basic_format_specs@D@v6@fmt@@@?$basic_writer@V?$buffer_range@D@v6@fmt@@@internal@v6@fmt@@QAEXXZ 10009df0 f i FarEditor.cpp.obj
 0001:00009060       ?on_dec@?$int_writer@IU?$basic_format_specs@D@v6@fmt@@@?$basic_writer@V?$buffer_range@D@v6@fmt@@@internal@v6@fmt@@QAEXXZ 1000a060 f i FarEditor.cpp.obj
 0001:00009060       ?on_dec@?$int_writer@HU?$basic_format_specs@D@v6@fmt@@@?$basic_writer@V?$buffer_range@D@v6@fmt@@@internal@v6@fmt@@QAEXXZ 1000a060 f i FarEditor.cpp.obj
 0001:00009060       ?on_dec@?$int_writer@DU?$basic_format_specs@D@v6@fmt@@@?$basic_writer@V?$buffer_range@D@v6@fmt@@@internal@v6@fmt@@QAEXXZ 1000a060 f i FarEditor.cpp.obj
 0001:00009190       ?on_num@?$int_writer@_KU?$basic_format_specs@D@v6@fmt@@@?$basic_writer@V?$buffer_range@D@v6@fmt@@@internal@v6@fmt@@QAEXXZ 1000a190 f i FarEditor.cpp.obj
 0001:00009190       ?on_num@?$int_writer@_JU?$basic_format_specs@D@v6@fmt@@@?$basic_writer@V?$buffer_range@D@v6@fmt@@@internal@v6@fmt@@QAEXXZ 1000a190 f i FarEditor.cpp.obj
 0001:00009360       ?on_dec@?$int_writer@_JU?$basic_format_specs@D@v6@fmt@@@?$basic_writer@V?$buffer_range@D@v6@fmt@@@internal@v6@fmt@@QAEXXZ 1000a360 f i FarEditor.cpp.obj
 0001:00009360       ?on_dec@?$int_writer@_KU?$basic_format_specs@D@v6@fmt@@@?$basic_writer@V?$buffer_range@D@v6@fmt@@@internal@v6@fmt@@QAEXXZ 1000a360 f i FarEditor.cpp.obj
 0001:00009490       ??$?RAAV?$checked_array_iterator@PAD@stdext@@@?$nonfinite_writer@D@internal@v6@fmt@@QBEXAAV?$checked_array_iterator@PAD@stdext@@@Z 1000a490 f i FarEditor.cpp.obj
 0001:00009510       ??$?RAAV?$checked_array_iterator@PAD@stdext@@@?$str_writer@D@?$basic_writer@V?$buffer_range@D@v6@fmt@@@internal@v6@fmt@@QBEXAAV?$checked_array_iterator@PAD@stdext@@@Z 1000a510 f i FarEditor.cpp.obj
 0001:00009580       ??$?RAAV?$checked_array_iterator@PAD@stdext@@@?$float_writer@D@internal@v6@fmt@@QAEXAAV?$checked_array_iterator@PAD@stdext@@@Z 1000a580 f i FarEditor.cpp.obj
 0001:00009600       ??$format_decimal@D_KV?$checked_array_iterator@PAD@stdext@@V<lambda_c93a450196b7dc8911532c3b128ffa23>@@@internal@v6@fmt@@YA?AV?$checked_array_iterator@PAD@stdext@@V34@_KHV<lambda_c93a450196b7dc8911532c3b128ffa23>@@@Z 1000a600 f i FarEditor.cpp.obj
 0001:00009780       ??$format_decimal@DIV?$checked_array_iterator@PAD@stdext@@V<lambda_70de2bd2941dba0b52b879374217a30d>@@@internal@v6@fmt@@YA?AV?$checked_array_iterator@PAD@stdext@@V34@IHV<lambda_70de2bd2941dba0b52b879374217a30d>@@@Z 1000a780 f i FarEditor.cpp.obj
 0001:00009850       ??$get_dynamic_spec@Vprecision_checker@internal@v6@fmt@@V?$basic_format_arg@V?$basic_format_context@V?$back_insert_iterator@V?$buffer@D@internal@v6@fmt@@@std@@D@v6@fmt@@@34@Uerror_handler@234@@internal@v6@fmt@@YAHV?$basic_format_arg@V?$basic_format_context@V?$back_insert_iterator@V?$buffer@D@internal@v6@fmt@@@std@@D@v6@fmt@@@12@Uerror_handler@012@@Z 1000a850 f i FarEditor.cpp.obj
 0001:00009930       ??$get_dynamic_spec@Vwidth_checker@internal@v6@fmt@@V?$basic_format_arg@V?$basic_format_context@V?$back_insert_iterator@V?$buffer@D@internal@v6@fmt@@@std@@D@v6@fmt@@@34@Uerror_handler@234@@internal@v6@fmt@@YAHV?$basic_format_arg@V?$basic_format_context@V?$back_insert_iterator@V?$buffer@D@internal@v6@fmt@@@std@@D@v6@fmt@@@12@Uerror_handler@012@@Z 1000a930 f i FarEditor.cpp.obj
 0001:00009a10       ??$write_int@Unum_writer@?$int_writer@_KU?$basic_format_specs@D@v6@fmt@@@?$basic_writer@V?$buffer_range@D@v6@fmt@@@internal@v6@fmt@@@?$basic_writer@V?$buffer_range@D@v6@fmt@@@internal@v6@fmt@@AAEXHV?$basic_string_view@D@23@U?$basic_format_specs@D@23@Unum_writer@?$int_writer@_KU?$basic_format_specs@D@v6@fmt@@@0123@@Z 1000aa10 f i FarEditor.cpp.obj
 0001:00009a10       ??$write_int@Unum_writer@?$int_writer@_JU?$basic_format_specs@D@v6@fmt@@@?$basic_writer@V?$buffer_range@D@v6@fmt@@@internal@v6@fmt@@@?$basic_writer@V?$buffer_range@D@v6@fmt@@@internal@v6@fmt@@AAEXHV?$basic_string_view@D@23@U?$basic_format_specs@D@23@Unum_writer@?$int_writer@_JU?$basic_format_specs@D@v6@fmt@@@0123@@Z 1000aa10 f i FarEditor.cpp.obj
 0001:00009af0       ??$prettify@V?$checked_array_iterator@PAD@stdext@@@?$float_writer@D@internal@v6@fmt@@ABE?AV?$checked_array_iterator@PAD@stdext@@V45@@Z 1000aaf0 f i FarEditor.cpp.obj
 0001:0000a1b0       ??$write_padded@U?$padded_int_writer@Unum_writer@?$int_writer@DU?$basic_format_specs@D@v6@fmt@@@?$basic_writer@V?$buffer_range@D@v6@fmt@@@internal@v6@fmt@@@?$basic_writer@V?$buffer_range@D@v6@fmt@@@internal@v6@fmt@@@?$basic_writer@V?$buffer_range@D@v6@fmt@@@internal@v6@fmt@@QAEXABU?$basic_format_specs@D@23@$$QAU?$padded_int_writer@Unum_writer@?$int_writer@DU?$basic_format_specs@D@v6@fmt@@@?$basic_writer@V?$buffer_range@D@v6@fmt@@@internal@v6@fmt@@@0123@@Z 1000b1b0 f i FarEditor.cpp.obj
 0001:0000a1b0       ??$write_padded@U?$padded_int_writer@Unum_writer@?$int_writer@HU?$basic_format_specs@D@v6@fmt@@@?$basic_writer@V?$buffer_range@D@v6@fmt@@@internal@v6@fmt@@@?$basic_writer@V?$buffer_range@D@v6@fmt@@@internal@v6@fmt@@@?$basic_writer@V?$buffer_range@D@v6@fmt@@@internal@v6@fmt@@QAEXABU?$basic_format_specs@D@23@$$QAU?$padded_int_writer@Unum_writer@?$int_writer@HU?$basic_format_specs@D@v6@fmt@@@?$basic_writer@V?$buffer_range@D@v6@fmt@@@internal@v6@fmt@@@0123@@Z 1000b1b0 f i FarEditor.cpp.obj
 0001:0000a1b0       ??$write_padded@U?$padded_int_writer@Unum_writer@?$int_writer@IU?$basic_format_specs@D@v6@fmt@@@?$basic_writer@V?$buffer_range@D@v6@fmt@@@internal@v6@fmt@@@?$basic_writer@V?$buffer_range@D@v6@fmt@@@internal@v6@fmt@@@?$basic_writer@V?$buffer_range@D@v6@fmt@@@internal@v6@fmt@@QAEXABU?$basic_format_specs@D@23@$$QAU?$padded_int_writer@Unum_writer@?$int_writer@IU?$basic_format_specs@D@v6@fmt@@@?$basic_writer@V?$buffer_range@D@v6@fmt@@@internal@v6@fmt@@@0123@@Z 1000b1b0 f i FarEditor.cpp.obj
 0001:0000a3c0       ??$write_padded@U?$padded_int_writer@U?$bin_writer@$02@?$int_writer@IU?$basic_format_specs@D@v6@fmt@@@?$basic_writer@V?$buffer_range@D@v6@fmt@@@internal@v6@fmt@@@?$basic_writer@V?$buffer_range@D@v6@fmt@@@internal@v6@fmt@@@?$basic_writer@V?$buffer_range@D@v6@fmt@@@internal@v6@fmt@@QAEXABU?$basic_format_specs@D@23@$$QAU?$padded_int_writer@U?$bin_writer@$02@?$int_writer@IU?$basic_format_specs@D@v6@fmt@@@?$basic_writer@V?$buffer_range@D@v6@fmt@@@internal@v6@fmt@@@0123@@Z 1000b3c0 f i FarEditor.cpp.obj
 0001:0000a3c0       ??$write_padded@U?$padded_int_writer@U?$bin_writer@$02@?$int_writer@DU?$basic_format_specs@D@v6@fmt@@@?$basic_writer@V?$buffer_range@D@v6@fmt@@@internal@v6@fmt@@@?$basic_writer@V?$buffer_range@D@v6@fmt@@@internal@v6@fmt@@@?$basic_writer@V?$buffer_range@D@v6@fmt@@@internal@v6@fmt@@QAEXABU?$basic_format_specs@D@23@$$QAU?$padded_int_writer@U?$bin_writer@$02@?$int_writer@DU?$basic_format_specs@D@v6@fmt@@@?$basic_writer@V?$buffer_range@D@v6@fmt@@@internal@v6@fmt@@@0123@@Z 1000b3c0 f i FarEditor.cpp.obj
 0001:0000a3c0       ??$write_padded@U?$padded_int_writer@U?$bin_writer@$02@?$int_writer@HU?$basic_format_specs@D@v6@fmt@@@?$basic_writer@V?$buffer_range@D@v6@fmt@@@internal@v6@fmt@@@?$basic_writer@V?$buffer_range@D@v6@fmt@@@internal@v6@fmt@@@?$basic_writer@V?$buffer_range@D@v6@fmt@@@internal@v6@fmt@@QAEXABU?$basic_format_specs@D@23@$$QAU?$padded_int_writer@U?$bin_writer@$02@?$int_writer@HU?$basic_format_specs@D@v6@fmt@@@?$basic_writer@V?$buffer_range@D@v6@fmt@@@internal@v6@fmt@@@0123@@Z 1000b3c0 f i FarEditor.cpp.obj
 0001:0000a5d0       ??$write_padded@U?$padded_int_writer@U?$bin_writer@$00@?$int_writer@HU?$basic_format_specs@D@v6@fmt@@@?$basic_writer@V?$buffer_range@D@v6@fmt@@@internal@v6@fmt@@@?$basic_writer@V?$buffer_range@D@v6@fmt@@@internal@v6@fmt@@@?$basic_writer@V?$buffer_range@D@v6@fmt@@@internal@v6@fmt@@QAEXABU?$basic_format_specs@D@23@$$QAU?$padded_int_writer@U?$bin_writer@$00@?$int_writer@HU?$basic_format_specs@D@v6@fmt@@@?$basic_writer@V?$buffer_range@D@v6@fmt@@@internal@v6@fmt@@@0123@@Z 1000b5d0 f i FarEditor.cpp.obj
 0001:0000a5d0       ??$write_padded@U?$padded_int_writer@U?$bin_writer@$00@?$int_writer@DU?$basic_format_specs@D@v6@fmt@@@?$basic_writer@V?$buffer_range@D@v6@fmt@@@internal@v6@fmt@@@?$basic_writer@V?$buffer_range@D@v6@fmt@@@internal@v6@fmt@@@?$basic_writer@V?$buffer_range@D@v6@fmt@@@internal@v6@fmt@@QAEXABU?$basic_format_specs@D@23@$$QAU?$padded_int_writer@U?$bin_writer@$00@?$int_writer@DU?$basic_format_specs@D@v6@fmt@@@?$basic_writer@V?$buffer_range@D@v6@fmt@@@internal@v6@fmt@@@0123@@Z 1000b5d0 f i FarEditor.cpp.obj
 0001:0000a5d0       ??$write_padded@U?$padded_int_writer@U?$bin_writer@$00@?$int_writer@IU?$basic_format_specs@D@v6@fmt@@@?$basic_writer@V?$buffer_range@D@v6@fmt@@@internal@v6@fmt@@@?$basic_writer@V?$buffer_range@D@v6@fmt@@@internal@v6@fmt@@@?$basic_writer@V?$buffer_range@D@v6@fmt@@@internal@v6@fmt@@QAEXABU?$basic_format_specs@D@23@$$QAU?$padded_int_writer@U?$bin_writer@$00@?$int_writer@IU?$basic_format_specs@D@v6@fmt@@@?$basic_writer@V?$buffer_range@D@v6@fmt@@@internal@v6@fmt@@@0123@@Z 1000b5d0 f i FarEditor.cpp.obj
 0001:0000a7e0       ??$write_padded@U?$padded_int_writer@Uhex_writer@?$int_writer@DU?$basic_format_specs@D@v6@fmt@@@?$basic_writer@V?$buffer_range@D@v6@fmt@@@internal@v6@fmt@@@?$basic_writer@V?$buffer_range@D@v6@fmt@@@internal@v6@fmt@@@?$basic_writer@V?$buffer_range@D@v6@fmt@@@internal@v6@fmt@@QAEXABU?$basic_format_specs@D@23@$$QAU?$padded_int_writer@Uhex_writer@?$int_writer@DU?$basic_format_specs@D@v6@fmt@@@?$basic_writer@V?$buffer_range@D@v6@fmt@@@internal@v6@fmt@@@0123@@Z 1000b7e0 f i FarEditor.cpp.obj
 0001:0000a7e0       ??$write_padded@U?$padded_int_writer@Uhex_writer@?$int_writer@HU?$basic_format_specs@D@v6@fmt@@@?$basic_writer@V?$buffer_range@D@v6@fmt@@@internal@v6@fmt@@@?$basic_writer@V?$buffer_range@D@v6@fmt@@@internal@v6@fmt@@@?$basic_writer@V?$buffer_range@D@v6@fmt@@@internal@v6@fmt@@QAEXABU?$basic_format_specs@D@23@$$QAU?$padded_int_writer@Uhex_writer@?$int_writer@HU?$basic_format_specs@D@v6@fmt@@@?$basic_writer@V?$buffer_range@D@v6@fmt@@@internal@v6@fmt@@@0123@@Z 1000b7e0 f i FarEditor.cpp.obj
 0001:0000a7e0       ??$write_padded@U?$padded_int_writer@Uhex_writer@?$int_writer@IU?$basic_format_specs@D@v6@fmt@@@?$basic_writer@V?$buffer_range@D@v6@fmt@@@internal@v6@fmt@@@?$basic_writer@V?$buffer_range@D@v6@fmt@@@internal@v6@fmt@@@?$basic_writer@V?$buffer_range@D@v6@fmt@@@internal@v6@fmt@@QAEXABU?$basic_format_specs@D@23@$$QAU?$padded_int_writer@Uhex_writer@?$int_writer@IU?$basic_format_specs@D@v6@fmt@@@?$basic_writer@V?$buffer_range@D@v6@fmt@@@internal@v6@fmt@@@0123@@Z 1000b7e0 f i FarEditor.cpp.obj
 0001:0000aa00       ??$write_padded@U?$padded_int_writer@Udec_writer@?$int_writer@DU?$basic_format_specs@D@v6@fmt@@@?$basic_writer@V?$buffer_range@D@v6@fmt@@@internal@v6@fmt@@@?$basic_writer@V?$buffer_range@D@v6@fmt@@@internal@v6@fmt@@@?$basic_writer@V?$buffer_range@D@v6@fmt@@@internal@v6@fmt@@QAEXABU?$basic_format_specs@D@23@$$QAU?$padded_int_writer@Udec_writer@?$int_writer@DU?$basic_format_specs@D@v6@fmt@@@?$basic_writer@V?$buffer_range@D@v6@fmt@@@internal@v6@fmt@@@0123@@Z 1000ba00 f i FarEditor.cpp.obj
 0001:0000aa00       ??$write_padded@U?$padded_int_writer@Udec_writer@?$int_writer@HU?$basic_format_specs@D@v6@fmt@@@?$basic_writer@V?$buffer_range@D@v6@fmt@@@internal@v6@fmt@@@?$basic_writer@V?$buffer_range@D@v6@fmt@@@internal@v6@fmt@@@?$basic_writer@V?$buffer_range@D@v6@fmt@@@internal@v6@fmt@@QAEXABU?$basic_format_specs@D@23@$$QAU?$padded_int_writer@Udec_writer@?$int_writer@HU?$basic_format_specs@D@v6@fmt@@@?$basic_writer@V?$buffer_range@D@v6@fmt@@@internal@v6@fmt@@@0123@@Z 1000ba00 f i FarEditor.cpp.obj
 0001:0000aa00       ??$write_padded@U?$padded_int_writer@Udec_writer@?$int_writer@IU?$basic_format_specs@D@v6@fmt@@@?$basic_writer@V?$buffer_range@D@v6@fmt@@@internal@v6@fmt@@@?$basic_writer@V?$buffer_range@D@v6@fmt@@@internal@v6@fmt@@@?$basic_writer@V?$buffer_range@D@v6@fmt@@@internal@v6@fmt@@QAEXABU?$basic_format_specs@D@23@$$QAU?$padded_int_writer@Udec_writer@?$int_writer@IU?$basic_format_specs@D@v6@fmt@@@?$basic_writer@V?$buffer_range@D@v6@fmt@@@internal@v6@fmt@@@0123@@Z 1000ba00 f i FarEditor.cpp.obj
 0001:0000ac20       ??$write_padded@U?$padded_int_writer@Unum_writer@?$int_writer@_JU?$basic_format_specs@D@v6@fmt@@@?$basic_writer@V?$buffer_range@D@v6@fmt@@@internal@v6@fmt@@@?$basic_writer@V?$buffer_range@D@v6@fmt@@@internal@v6@fmt@@@?$basic_writer@V?$buffer_range@D@v6@fmt@@@internal@v6@fmt@@QAEXABU?$basic_format_specs@D@23@$$QAU?$padded_int_writer@Unum_writer@?$int_writer@_JU?$basic_format_specs@D@v6@fmt@@@?$basic_writer@V?$buffer_range@D@v6@fmt@@@internal@v6@fmt@@@0123@@Z 1000bc20 f i FarEditor.cpp.obj
 0001:0000ac20       ??$write_padded@U?$padded_int_writer@Unum_writer@?$int_writer@_KU?$basic_format_specs@D@v6@fmt@@@?$basic_writer@V?$buffer_range@D@v6@fmt@@@internal@v6@fmt@@@?$basic_writer@V?$buffer_range@D@v6@fmt@@@internal@v6@fmt@@@?$basic_writer@V?$buffer_range@D@v6@fmt@@@internal@v6@fmt@@QAEXABU?$basic_format_specs@D@23@$$QAU?$padded_int_writer@Unum_writer@?$int_writer@_KU?$basic_format_specs@D@v6@fmt@@@?$basic_writer@V?$buffer_range@D@v6@fmt@@@internal@v6@fmt@@@0123@@Z 1000bc20 f i FarEditor.cpp.obj
 0001:0000ae30       ??$write_padded@U?$padded_int_writer@U?$bin_writer@$02@?$int_writer@_JU?$basic_format_specs@D@v6@fmt@@@?$basic_writer@V?$buffer_range@D@v6@fmt@@@internal@v6@fmt@@@?$basic_writer@V?$buffer_range@D@v6@fmt@@@internal@v6@fmt@@@?$basic_writer@V?$buffer_range@D@v6@fmt@@@internal@v6@fmt@@QAEXABU?$basic_format_specs@D@23@$$QAU?$padded_int_writer@U?$bin_writer@$02@?$int_writer@_JU?$basic_format_specs@D@v6@fmt@@@?$basic_writer@V?$buffer_range@D@v6@fmt@@@internal@v6@fmt@@@0123@@Z 1000be30 f i FarEditor.cpp.obj
 0001:0000ae30       ??$write_padded@U?$padded_int_writer@U?$bin_writer@$02@?$int_writer@_KU?$basic_format_specs@D@v6@fmt@@@?$basic_writer@V?$buffer_range@D@v6@fmt@@@internal@v6@fmt@@@?$basic_writer@V?$buffer_range@D@v6@fmt@@@internal@v6@fmt@@@?$basic_writer@V?$buffer_range@D@v6@fmt@@@internal@v6@fmt@@QAEXABU?$basic_format_specs@D@23@$$QAU?$padded_int_writer@U?$bin_writer@$02@?$int_writer@_KU?$basic_format_specs@D@v6@fmt@@@?$basic_writer@V?$buffer_range@D@v6@fmt@@@internal@v6@fmt@@@0123@@Z 1000be30 f i FarEditor.cpp.obj
 0001:0000b060       ??$write_padded@U?$padded_int_writer@U?$bin_writer@$00@?$int_writer@_KU?$basic_format_specs@D@v6@fmt@@@?$basic_writer@V?$buffer_range@D@v6@fmt@@@internal@v6@fmt@@@?$basic_writer@V?$buffer_range@D@v6@fmt@@@internal@v6@fmt@@@?$basic_writer@V?$buffer_range@D@v6@fmt@@@internal@v6@fmt@@QAEXABU?$basic_format_specs@D@23@$$QAU?$padded_int_writer@U?$bin_writer@$00@?$int_writer@_KU?$basic_format_specs@D@v6@fmt@@@?$basic_writer@V?$buffer_range@D@v6@fmt@@@internal@v6@fmt@@@0123@@Z 1000c060 f i FarEditor.cpp.obj
 0001:0000b060       ??$write_padded@U?$padded_int_writer@U?$bin_writer@$00@?$int_writer@_JU?$basic_format_specs@D@v6@fmt@@@?$basic_writer@V?$buffer_range@D@v6@fmt@@@internal@v6@fmt@@@?$basic_writer@V?$buffer_range@D@v6@fmt@@@internal@v6@fmt@@@?$basic_writer@V?$buffer_range@D@v6@fmt@@@internal@v6@fmt@@QAEXABU?$basic_format_specs@D@23@$$QAU?$padded_int_writer@U?$bin_writer@$00@?$int_writer@_JU?$basic_format_specs@D@v6@fmt@@@?$basic_writer@V?$buffer_range@D@v6@fmt@@@internal@v6@fmt@@@0123@@Z 1000c060 f i FarEditor.cpp.obj
 0001:0000b290       ??$write_padded@U?$padded_int_writer@Uhex_writer@?$int_writer@_JU?$basic_format_specs@D@v6@fmt@@@?$basic_writer@V?$buffer_range@D@v6@fmt@@@internal@v6@fmt@@@?$basic_writer@V?$buffer_range@D@v6@fmt@@@internal@v6@fmt@@@?$basic_writer@V?$buffer_range@D@v6@fmt@@@internal@v6@fmt@@QAEXABU?$basic_format_specs@D@23@$$QAU?$padded_int_writer@Uhex_writer@?$int_writer@_JU?$basic_format_specs@D@v6@fmt@@@?$basic_writer@V?$buffer_range@D@v6@fmt@@@internal@v6@fmt@@@0123@@Z 1000c290 f i FarEditor.cpp.obj
 0001:0000b290       ??$write_padded@U?$padded_int_writer@Uhex_writer@?$int_writer@_KU?$basic_format_specs@D@v6@fmt@@@?$basic_writer@V?$buffer_range@D@v6@fmt@@@internal@v6@fmt@@@?$basic_writer@V?$buffer_range@D@v6@fmt@@@internal@v6@fmt@@@?$basic_writer@V?$buffer_range@D@v6@fmt@@@internal@v6@fmt@@QAEXABU?$basic_format_specs@D@23@$$QAU?$padded_int_writer@Uhex_writer@?$int_writer@_KU?$basic_format_specs@D@v6@fmt@@@?$basic_writer@V?$buffer_range@D@v6@fmt@@@internal@v6@fmt@@@0123@@Z 1000c290 f i FarEditor.cpp.obj
 0001:0000b4d0       ??$write_padded@U?$padded_int_writer@Udec_writer@?$int_writer@_KU?$basic_format_specs@D@v6@fmt@@@?$basic_writer@V?$buffer_range@D@v6@fmt@@@internal@v6@fmt@@@?$basic_writer@V?$buffer_range@D@v6@fmt@@@internal@v6@fmt@@@?$basic_writer@V?$buffer_range@D@v6@fmt@@@internal@v6@fmt@@QAEXABU?$basic_format_specs@D@23@$$QAU?$padded_int_writer@Udec_writer@?$int_writer@_KU?$basic_format_specs@D@v6@fmt@@@?$basic_writer@V?$buffer_range@D@v6@fmt@@@internal@v6@fmt@@@0123@@Z 1000c4d0 f i FarEditor.cpp.obj
 0001:0000b4d0       ??$write_padded@U?$padded_int_writer@Udec_writer@?$int_writer@_JU?$basic_format_specs@D@v6@fmt@@@?$basic_writer@V?$buffer_range@D@v6@fmt@@@internal@v6@fmt@@@?$basic_writer@V?$buffer_range@D@v6@fmt@@@internal@v6@fmt@@@?$basic_writer@V?$buffer_range@D@v6@fmt@@@internal@v6@fmt@@QAEXABU?$basic_format_specs@D@23@$$QAU?$padded_int_writer@Udec_writer@?$int_writer@_JU?$basic_format_specs@D@v6@fmt@@@?$basic_writer@V?$buffer_range@D@v6@fmt@@@internal@v6@fmt@@@0123@@Z 1000c4d0 f i FarEditor.cpp.obj
 0001:0000b710       ??$fill_n@V?$checked_array_iterator@PAD@stdext@@HD@std@@YA?AV?$checked_array_iterator@PAD@stdext@@V12@HABD@Z 1000c710 f i FarEditor.cpp.obj
 0001:0000b780       ??$?RAAV?$checked_array_iterator@PAD@stdext@@@?$padded_int_writer@Unum_writer@?$int_writer@HU?$basic_format_specs@D@v6@fmt@@@?$basic_writer@V?$buffer_range@D@v6@fmt@@@internal@v6@fmt@@@?$basic_writer@V?$buffer_range@D@v6@fmt@@@internal@v6@fmt@@QBEXAAV?$checked_array_iterator@PAD@stdext@@@Z 1000c780 f i FarEditor.cpp.obj
 0001:0000b780       ??$?RAAV?$checked_array_iterator@PAD@stdext@@@?$padded_int_writer@Unum_writer@?$int_writer@DU?$basic_format_specs@D@v6@fmt@@@?$basic_writer@V?$buffer_range@D@v6@fmt@@@internal@v6@fmt@@@?$basic_writer@V?$buffer_range@D@v6@fmt@@@internal@v6@fmt@@QBEXAAV?$checked_array_iterator@PAD@stdext@@@Z 1000c780 f i FarEditor.cpp.obj
 0001:0000b780       ??$?RAAV?$checked_array_iterator@PAD@stdext@@@?$padded_int_writer@Unum_writer@?$int_writer@IU?$basic_format_specs@D@v6@fmt@@@?$basic_writer@V?$buffer_range@D@v6@fmt@@@internal@v6@fmt@@@?$basic_writer@V?$buffer_range@D@v6@fmt@@@internal@v6@fmt@@QBEXAAV?$checked_array_iterator@PAD@stdext@@@Z 1000c780 f i FarEditor.cpp.obj
 0001:0000b840       ??$?RAAV?$checked_array_iterator@PAD@stdext@@@?$padded_int_writer@U?$bin_writer@$02@?$int_writer@HU?$basic_format_specs@D@v6@fmt@@@?$basic_writer@V?$buffer_range@D@v6@fmt@@@internal@v6@fmt@@@?$basic_writer@V?$buffer_range@D@v6@fmt@@@internal@v6@fmt@@QBEXAAV?$checked_array_iterator@PAD@stdext@@@Z 1000c840 f i FarEditor.cpp.obj
 0001:0000b840       ??$?RAAV?$checked_array_iterator@PAD@stdext@@@?$padded_int_writer@U?$bin_writer@$02@?$int_writer@IU?$basic_format_specs@D@v6@fmt@@@?$basic_writer@V?$buffer_range@D@v6@fmt@@@internal@v6@fmt@@@?$basic_writer@V?$buffer_range@D@v6@fmt@@@internal@v6@fmt@@QBEXAAV?$checked_array_iterator@PAD@stdext@@@Z 1000c840 f i FarEditor.cpp.obj
 0001:0000b840       ??$?RAAV?$checked_array_iterator@PAD@stdext@@@?$padded_int_writer@U?$bin_writer@$02@?$int_writer@DU?$basic_format_specs@D@v6@fmt@@@?$basic_writer@V?$buffer_range@D@v6@fmt@@@internal@v6@fmt@@@?$basic_writer@V?$buffer_range@D@v6@fmt@@@internal@v6@fmt@@QBEXAAV?$checked_array_iterator@PAD@stdext@@@Z 1000c840 f i FarEditor.cpp.obj
 0001:0000b930       ??$?RAAV?$checked_array_iterator@PAD@stdext@@@?$padded_int_writer@U?$bin_writer@$00@?$int_writer@DU?$basic_format_specs@D@v6@fmt@@@?$basic_writer@V?$buffer_range@D@v6@fmt@@@internal@v6@fmt@@@?$basic_writer@V?$buffer_range@D@v6@fmt@@@internal@v6@fmt@@QBEXAAV?$checked_array_iterator@PAD@stdext@@@Z 1000c930 f i FarEditor.cpp.obj
 0001:0000b930       ??$?RAAV?$checked_array_iterator@PAD@stdext@@@?$padded_int_writer@U?$bin_writer@$00@?$int_writer@IU?$basic_format_specs@D@v6@fmt@@@?$basic_writer@V?$buffer_range@D@v6@fmt@@@internal@v6@fmt@@@?$basic_writer@V?$buffer_range@D@v6@fmt@@@internal@v6@fmt@@QBEXAAV?$checked_array_iterator@PAD@stdext@@@Z 1000c930 f i FarEditor.cpp.obj
 0001:0000b930       ??$?RAAV?$checked_array_iterator@PAD@stdext@@@?$padded_int_writer@U?$bin_writer@$00@?$int_writer@HU?$basic_format_specs@D@v6@fmt@@@?$basic_writer@V?$buffer_range@D@v6@fmt@@@internal@v6@fmt@@@?$basic_writer@V?$buffer_range@D@v6@fmt@@@internal@v6@fmt@@QBEXAAV?$checked_array_iterator@PAD@stdext@@@Z 1000c930 f i FarEditor.cpp.obj
 0001:0000ba20       ??$?RAAV?$checked_array_iterator@PAD@stdext@@@?$padded_int_writer@Uhex_writer@?$int_writer@DU?$basic_format_specs@D@v6@fmt@@@?$basic_writer@V?$buffer_range@D@v6@fmt@@@internal@v6@fmt@@@?$basic_writer@V?$buffer_range@D@v6@fmt@@@internal@v6@fmt@@QBEXAAV?$checked_array_iterator@PAD@stdext@@@Z 1000ca20 f i FarEditor.cpp.obj
 0001:0000ba20       ??$?RAAV?$checked_array_iterator@PAD@stdext@@@?$padded_int_writer@Uhex_writer@?$int_writer@HU?$basic_format_specs@D@v6@fmt@@@?$basic_writer@V?$buffer_range@D@v6@fmt@@@internal@v6@fmt@@@?$basic_writer@V?$buffer_range@D@v6@fmt@@@internal@v6@fmt@@QBEXAAV?$checked_array_iterator@PAD@stdext@@@Z 1000ca20 f i FarEditor.cpp.obj
 0001:0000ba20       ??$?RAAV?$checked_array_iterator@PAD@stdext@@@?$padded_int_writer@Uhex_writer@?$int_writer@IU?$basic_format_specs@D@v6@fmt@@@?$basic_writer@V?$buffer_range@D@v6@fmt@@@internal@v6@fmt@@@?$basic_writer@V?$buffer_range@D@v6@fmt@@@internal@v6@fmt@@QBEXAAV?$checked_array_iterator@PAD@stdext@@@Z 1000ca20 f i FarEditor.cpp.obj
 0001:0000bb20       ??$?RAAV?$checked_array_iterator@PAD@stdext@@@?$padded_int_writer@Udec_writer@?$int_writer@IU?$basic_format_specs@D@v6@fmt@@@?$basic_writer@V?$buffer_range@D@v6@fmt@@@internal@v6@fmt@@@?$basic_writer@V?$buffer_range@D@v6@fmt@@@internal@v6@fmt@@QBEXAAV?$checked_array_iterator@PAD@stdext@@@Z 1000cb20 f i FarEditor.cpp.obj
 0001:0000bb20       ??$?RAAV?$checked_array_iterator@PAD@stdext@@@?$padded_int_writer@Udec_writer@?$int_writer@HU?$basic_format_specs@D@v6@fmt@@@?$basic_writer@V?$buffer_range@D@v6@fmt@@@internal@v6@fmt@@@?$basic_writer@V?$buffer_range@D@v6@fmt@@@internal@v6@fmt@@QBEXAAV?$checked_array_iterator@PAD@stdext@@@Z 1000cb20 f i FarEditor.cpp.obj
 0001:0000bb20       ??$?RAAV?$checked_array_iterator@PAD@stdext@@@?$padded_int_writer@Udec_writer@?$int_writer@DU?$basic_format_specs@D@v6@fmt@@@?$basic_writer@V?$buffer_range@D@v6@fmt@@@internal@v6@fmt@@@?$basic_writer@V?$buffer_range@D@v6@fmt@@@internal@v6@fmt@@QBEXAAV?$checked_array_iterator@PAD@stdext@@@Z 1000cb20 f i FarEditor.cpp.obj
 0001:0000bc20       ??$?RAAV?$checked_array_iterator@PAD@stdext@@@?$padded_int_writer@Unum_writer@?$int_writer@_JU?$basic_format_specs@D@v6@fmt@@@?$basic_writer@V?$buffer_range@D@v6@fmt@@@internal@v6@fmt@@@?$basic_writer@V?$buffer_range@D@v6@fmt@@@internal@v6@fmt@@QBEXAAV?$checked_array_iterator@PAD@stdext@@@Z 1000cc20 f i FarEditor.cpp.obj
 0001:0000bc20       ??$?RAAV?$checked_array_iterator@PAD@stdext@@@?$padded_int_writer@Unum_writer@?$int_writer@_KU?$basic_format_specs@D@v6@fmt@@@?$basic_writer@V?$buffer_range@D@v6@fmt@@@internal@v6@fmt@@@?$basic_writer@V?$buffer_range@D@v6@fmt@@@internal@v6@fmt@@QBEXAAV?$checked_array_iterator@PAD@stdext@@@Z 1000cc20 f i FarEditor.cpp.obj
 0001:0000bce0       ??$?RAAV?$checked_array_iterator@PAD@stdext@@@?$padded_int_writer@U?$bin_writer@$02@?$int_writer@_JU?$basic_format_specs@D@v6@fmt@@@?$basic_writer@V?$buffer_range@D@v6@fmt@@@internal@v6@fmt@@@?$basic_writer@V?$buffer_range@D@v6@fmt@@@internal@v6@fmt@@QBEXAAV?$checked_array_iterator@PAD@stdext@@@Z 1000cce0 f i FarEditor.cpp.obj
 0001:0000bce0       ??$?RAAV?$checked_array_iterator@PAD@stdext@@@?$padded_int_writer@U?$bin_writer@$02@?$int_writer@_KU?$basic_format_specs@D@v6@fmt@@@?$basic_writer@V?$buffer_range@D@v6@fmt@@@internal@v6@fmt@@@?$basic_writer@V?$buffer_range@D@v6@fmt@@@internal@v6@fmt@@QBEXAAV?$checked_array_iterator@PAD@stdext@@@Z 1000cce0 f i FarEditor.cpp.obj
 0001:0000bdf0       ??$?RAAV?$checked_array_iterator@PAD@stdext@@@?$padded_int_writer@U?$bin_writer@$00@?$int_writer@_JU?$basic_format_specs@D@v6@fmt@@@?$basic_writer@V?$buffer_range@D@v6@fmt@@@internal@v6@fmt@@@?$basic_writer@V?$buffer_range@D@v6@fmt@@@internal@v6@fmt@@QBEXAAV?$checked_array_iterator@PAD@stdext@@@Z 1000cdf0 f i FarEditor.cpp.obj
 0001:0000bdf0       ??$?RAAV?$checked_array_iterator@PAD@stdext@@@?$padded_int_writer@U?$bin_writer@$00@?$int_writer@_KU?$basic_format_specs@D@v6@fmt@@@?$basic_writer@V?$buffer_range@D@v6@fmt@@@internal@v6@fmt@@@?$basic_writer@V?$buffer_range@D@v6@fmt@@@internal@v6@fmt@@QBEXAAV?$checked_array_iterator@PAD@stdext@@@Z 1000cdf0 f i FarEditor.cpp.obj
 0001:0000bf00       ??$?RAAV?$checked_array_iterator@PAD@stdext@@@?$padded_int_writer@Uhex_writer@?$int_writer@_KU?$basic_format_specs@D@v6@fmt@@@?$basic_writer@V?$buffer_range@D@v6@fmt@@@internal@v6@fmt@@@?$basic_writer@V?$buffer_range@D@v6@fmt@@@internal@v6@fmt@@QBEXAAV?$checked_array_iterator@PAD@stdext@@@Z 1000cf00 f i FarEditor.cpp.obj
 0001:0000bf00       ??$?RAAV?$checked_array_iterator@PAD@stdext@@@?$padded_int_writer@Uhex_writer@?$int_writer@_JU?$basic_format_specs@D@v6@fmt@@@?$basic_writer@V?$buffer_range@D@v6@fmt@@@internal@v6@fmt@@@?$basic_writer@V?$buffer_range@D@v6@fmt@@@internal@v6@fmt@@QBEXAAV?$checked_array_iterator@PAD@stdext@@@Z 1000cf00 f i FarEditor.cpp.obj
 0001:0000c020       ??$?RAAV?$checked_array_iterator@PAD@stdext@@@?$padded_int_writer@Udec_writer@?$int_writer@_JU?$basic_format_specs@D@v6@fmt@@@?$basic_writer@V?$buffer_range@D@v6@fmt@@@internal@v6@fmt@@@?$basic_writer@V?$buffer_range@D@v6@fmt@@@internal@v6@fmt@@QBEXAAV?$checked_array_iterator@PAD@stdext@@@Z 1000d020 f i FarEditor.cpp.obj
 0001:0000c020       ??$?RAAV?$checked_array_iterator@PAD@stdext@@@?$padded_int_writer@Udec_writer@?$int_writer@_KU?$basic_format_specs@D@v6@fmt@@@?$basic_writer@V?$buffer_range@D@v6@fmt@@@internal@v6@fmt@@@?$basic_writer@V?$buffer_range@D@v6@fmt@@@internal@v6@fmt@@QBEXAAV?$checked_array_iterator@PAD@stdext@@@Z 1000d020 f i FarEditor.cpp.obj
 0001:0000c130       ??$?RAAV?$checked_array_iterator@PAD@stdext@@@num_writer@?$int_writer@HU?$basic_format_specs@D@v6@fmt@@@?$basic_writer@V?$buffer_range@D@v6@fmt@@@internal@v6@fmt@@QBEXAAV?$checked_array_iterator@PAD@stdext@@@Z 1000d130 f i FarEditor.cpp.obj
 0001:0000c130       ??$?RAAV?$checked_array_iterator@PAD@stdext@@@num_writer@?$int_writer@DU?$basic_format_specs@D@v6@fmt@@@?$basic_writer@V?$buffer_range@D@v6@fmt@@@internal@v6@fmt@@QBEXAAV?$checked_array_iterator@PAD@stdext@@@Z 1000d130 f i FarEditor.cpp.obj
 0001:0000c130       ??$?RAAV?$checked_array_iterator@PAD@stdext@@@num_writer@?$int_writer@IU?$basic_format_specs@D@v6@fmt@@@?$basic_writer@V?$buffer_range@D@v6@fmt@@@internal@v6@fmt@@QBEXAAV?$checked_array_iterator@PAD@stdext@@@Z 1000d130 f i FarEditor.cpp.obj
 0001:0000c1c0       ??R<lambda_5158686a749662190b724551ca5bda33>@@QBEXAAPAD@Z 1000d1c0 f i FarEditor.cpp.obj
 0001:0000c1c0       ??R<lambda_056bd735c353f7176471ac35591a3674>@@QBEXAAPAD@Z 1000d1c0 f i FarEditor.cpp.obj
 0001:0000c1c0       ??R<lambda_930077044f1cc97ddf78891b1263c854>@@QBEXAAPAD@Z 1000d1c0 f i FarEditor.cpp.obj
 0001:0000c260       ??$?RAAV?$checked_array_iterator@PAD@stdext@@@num_writer@?$int_writer@_JU?$basic_format_specs@D@v6@fmt@@@?$basic_writer@V?$buffer_range@D@v6@fmt@@@internal@v6@fmt@@QBEXAAV?$checked_array_iterator@PAD@stdext@@@Z 1000d260 f i FarEditor.cpp.obj
 0001:0000c260       ??$?RAAV?$checked_array_iterator@PAD@stdext@@@num_writer@?$int_writer@_KU?$basic_format_specs@D@v6@fmt@@@?$basic_writer@V?$buffer_range@D@v6@fmt@@@internal@v6@fmt@@QBEXAAV?$checked_array_iterator@PAD@stdext@@@Z 1000d260 f i FarEditor.cpp.obj
 0001:0000c2f0       ??R<lambda_9aa69cfa967aec8237c67bc6241cf746>@@QBEXAAPAD@Z 1000d2f0 f i FarEditor.cpp.obj
 0001:0000c2f0       ??R<lambda_2a9d270fd0b13fec3cef3fc5b06dfcf3>@@QBEXAAPAD@Z 1000d2f0 f i FarEditor.cpp.obj
 0001:0000c390       ??$format_decimal@DIV?$checked_array_iterator@PAD@stdext@@V<lambda_056bd735c353f7176471ac35591a3674>@@@internal@v6@fmt@@YA?AV?$checked_array_iterator@PAD@stdext@@V34@IHV<lambda_056bd735c353f7176471ac35591a3674>@@@Z 1000d390 f i FarEditor.cpp.obj
 0001:0000c390       ??$format_decimal@DIV?$checked_array_iterator@PAD@stdext@@V<lambda_5158686a749662190b724551ca5bda33>@@@internal@v6@fmt@@YA?AV?$checked_array_iterator@PAD@stdext@@V34@IHV<lambda_5158686a749662190b724551ca5bda33>@@@Z 1000d390 f i FarEditor.cpp.obj
 0001:0000c390       ??$format_decimal@DIV?$checked_array_iterator@PAD@stdext@@V<lambda_930077044f1cc97ddf78891b1263c854>@@@internal@v6@fmt@@YA?AV?$checked_array_iterator@PAD@stdext@@V34@IHV<lambda_930077044f1cc97ddf78891b1263c854>@@@Z 1000d390 f i FarEditor.cpp.obj
 0001:0000c430       ??$format_uint@$02DV?$checked_array_iterator@PAD@stdext@@I@internal@v6@fmt@@YA?AV?$checked_array_iterator@PAD@stdext@@V34@IH_N@Z 1000d430 f i FarEditor.cpp.obj
 0001:0000c4b0       ??$format_uint@$00DV?$checked_array_iterator@PAD@stdext@@I@internal@v6@fmt@@YA?AV?$checked_array_iterator@PAD@stdext@@V34@IH_N@Z 1000d4b0 f i FarEditor.cpp.obj
 0001:0000c530       ??$format_decimal@D_KV?$checked_array_iterator@PAD@stdext@@V<lambda_2a9d270fd0b13fec3cef3fc5b06dfcf3>@@@internal@v6@fmt@@YA?AV?$checked_array_iterator@PAD@stdext@@V34@_KHV<lambda_2a9d270fd0b13fec3cef3fc5b06dfcf3>@@@Z 1000d530 f i FarEditor.cpp.obj
 0001:0000c530       ??$format_decimal@D_KV?$checked_array_iterator@PAD@stdext@@V<lambda_9aa69cfa967aec8237c67bc6241cf746>@@@internal@v6@fmt@@YA?AV?$checked_array_iterator@PAD@stdext@@V34@_KHV<lambda_9aa69cfa967aec8237c67bc6241cf746>@@@Z 1000d530 f i FarEditor.cpp.obj
 0001:0000c5e0       ??$format_uint@$02DV?$checked_array_iterator@PAD@stdext@@_K@internal@v6@fmt@@YA?AV?$checked_array_iterator@PAD@stdext@@V34@_KH_N@Z 1000d5e0 f i FarEditor.cpp.obj
 0001:0000c680       ??$format_uint@$00DV?$checked_array_iterator@PAD@stdext@@_K@internal@v6@fmt@@YA?AV?$checked_array_iterator@PAD@stdext@@V34@_KH_N@Z 1000d680 f i FarEditor.cpp.obj
 0001:0000c710       ??$format_uint@$03DV?$checked_array_iterator@PAD@stdext@@_K@internal@v6@fmt@@YA?AV?$checked_array_iterator@PAD@stdext@@V34@_KH_N@Z 1000d710 f i FarEditor.cpp.obj
 0001:0000c7b0       ??$format_decimal@IDV<lambda_930077044f1cc97ddf78891b1263c854>@@@internal@v6@fmt@@YAPADPADIHV<lambda_930077044f1cc97ddf78891b1263c854>@@@Z 1000d7b0 f i FarEditor.cpp.obj
 0001:0000c7b0       ??$format_decimal@IDV<lambda_056bd735c353f7176471ac35591a3674>@@@internal@v6@fmt@@YAPADPADIHV<lambda_056bd735c353f7176471ac35591a3674>@@@Z 1000d7b0 f i FarEditor.cpp.obj
 0001:0000c7b0       ??$format_decimal@IDV<lambda_5158686a749662190b724551ca5bda33>@@@internal@v6@fmt@@YAPADPADIHV<lambda_5158686a749662190b724551ca5bda33>@@@Z 1000d7b0 f i FarEditor.cpp.obj
 0001:0000c970       ??$format_decimal@_KDV<lambda_9aa69cfa967aec8237c67bc6241cf746>@@@internal@v6@fmt@@YAPADPAD_KHV<lambda_9aa69cfa967aec8237c67bc6241cf746>@@@Z 1000d970 f i FarEditor.cpp.obj
 0001:0000c970       ??$format_decimal@_KDV<lambda_2a9d270fd0b13fec3cef3fc5b06dfcf3>@@@internal@v6@fmt@@YAPADPAD_KHV<lambda_2a9d270fd0b13fec3cef3fc5b06dfcf3>@@@Z 1000d970 f i FarEditor.cpp.obj
 0001:0000cbe0       _ceilf                     1000dbe0 f i FarEditorSet.cpp.obj
 0001:0000cc10       ?_Decref@_Ref_count_base@std@@QAEXXZ 1000dc10 f i FarEditorSet.cpp.obj
 0001:0000cc40       ?GetLangString@?$DialogBuilderBase@UFarDialogItem@@@@MAEPB_WH@Z 1000dc40 f i FarEditorSet.cpp.obj
 0001:0000cc40       ?createRelative@InputSource@colorer@@UAEPAV12@PBVString@@@Z 1000dc40 f i colorer:FileInputSource.cpp.obj
 0001:0000cc40       ?getChild@Token@xercesc_3_2@@UBEPAV12@I@Z 1000dc40 f i xerces-c_3:RangeToken.cpp.obj
 0001:0000cc40       ?_Get_deleter@_Ref_count_base@std@@UBEPAXABVtype_info@@@Z 1000dc40 f i FarEditorSet.cpp.obj
 0001:0000cc40       ?CreateRadioButtonBinding@?$DialogBuilderBase@UFarDialogItem@@@@MAEPAU?$DialogItemBinding@UFarDialogItem@@@@PAH@Z 1000dc40 f i FarEditorSet.cpp.obj
 0001:0000cc40       ?getURIForPrefix@ValidationContext@xercesc_3_2@@UAEPB_WPA_W@Z 1000dc40 f i xerces-c_3:ValidationContextImpl.cpp.obj
 0001:0000cc50       ??1recursive_mutex@std@@QAE@XZ 1000dc50 f i xerces-c_3:StdMutexMgr.cpp.obj
 0001:0000cc50       ??1mutex@std@@QAE@XZ       1000dc50 f i FarEditorSet.cpp.obj
 0001:0000cc60       ??0logger@spdlog@@QAE@V?$basic_string@DU?$char_traits@D@std@@V?$allocator@D@2@@std@@V?$shared_ptr@Vsink@sinks@spdlog@@@3@@Z 1000dc60 f i FarEditorSet.cpp.obj
 0001:0000cdd0       ??0logger@spdlog@@QAE@V?$basic_string@DU?$char_traits@D@std@@V?$allocator@D@2@@std@@V?$initializer_list@V?$shared_ptr@Vsink@sinks@spdlog@@@std@@@3@@Z 1000ddd0 f i FarEditorSet.cpp.obj
 0001:0000cea0       ??_Glogger@spdlog@@UAEPAXI@Z 1000dea0 f i FarEditorSet.cpp.obj
 0001:0000cea0       ??_Elogger@spdlog@@UAEPAXI@Z 1000dea0 f i * CIL library *:* CIL module *
 0001:0000ced0       ??1logger@spdlog@@UAE@XZ   1000ded0 f i FarEditorSet.cpp.obj
 0001:0000cf60       ??1?$_Func_class@XABV?$basic_string@DU?$char_traits@D@std@@V?$allocator@D@2@@std@@@std@@QAE@XZ 1000df60 f i FarEditorSet.cpp.obj
 0001:0000cf60       ??1?$function@$$A6AXABV?$basic_string@DU?$char_traits@D@std@@V?$allocator@D@2@@std@@@Z@std@@QAE@XZ 1000df60 f i FarEditorSet.cpp.obj
 0001:0000cf90       ??1?$circular_q@Vlog_msg_buffer@details@spdlog@@@details@spdlog@@QAE@XZ 1000df90 f i FarEditorSet.cpp.obj
 0001:0000cfa0       ??4CString@@QAEAAV0@$$QAV0@@Z 1000dfa0 f i FarEditorSet.cpp.obj
 0001:0000cff0       ??0FarMacroValue@@QAE@XZ   1000dff0 f i FarEditorSet.cpp.obj
 0001:0000d000       ??0ParserFactoryException@@QAE@ABVString@@@Z 1000e000 f i FarEditorSet.cpp.obj
 0001:0000d050       ??_EParserFactoryException@@UAEPAXI@Z 1000e050 f i * CIL library *:* CIL module *
 0001:0000d050       ??_GSettingsControlException@@UAEPAXI@Z 1000e050 f i SettingsControl.cpp.obj
 0001:0000d050       ??_ECatalogParserException@@UAEPAXI@Z 1000e050 f i colorer:CatalogParser.cpp.obj
 0001:0000d050       ??_GCatalogParserException@@UAEPAXI@Z 1000e050 f i colorer:CatalogParser.cpp.obj
 0001:0000d050       ??_EUnsupportedEncodingException@@UAEPAXI@Z 1000e050 f i colorer:CString.cpp.obj
 0001:0000d050       ??_GHRCParserException@@UAEPAXI@Z 1000e050 f i colorer:HRCParserImpl.cpp.obj
 0001:0000d050       ??_EFarHrcSettingsException@@UAEPAXI@Z 1000e050 f i * CIL library *:* CIL module *
 0001:0000d050       ??_ESettingsControlException@@UAEPAXI@Z 1000e050 f i * CIL library *:* CIL module *
 0001:0000d050       ??_GParserFactoryException@@UAEPAXI@Z 1000e050 f i FarEditorSet.cpp.obj
 0001:0000d050       ??_EHRCParserException@@UAEPAXI@Z 1000e050 f i colorer:HRCParserImpl.cpp.obj
 0001:0000d050       ??_GStringIndexOutOfBoundsException@@UAEPAXI@Z 1000e050 f i colorer:CString.cpp.obj
 0001:0000d050       ??_GFarHrcSettingsException@@UAEPAXI@Z 1000e050 f i FarHrcSettings.cpp.obj
 0001:0000d050       ??_GUnsupportedEncodingException@@UAEPAXI@Z 1000e050 f i colorer:CString.cpp.obj
 0001:0000d050       ??_EStringIndexOutOfBoundsException@@UAEPAXI@Z 1000e050 f i colorer:CString.cpp.obj
 0001:0000d070       ??1HRCParserException@@UAE@XZ 1000e070 f i colorer:HRCParserImpl.cpp.obj
 0001:0000d070       ??1FarHrcSettingsException@@UAE@XZ 1000e070 f i FarHrcSettings.cpp.obj
 0001:0000d070       ??1SettingsControlException@@UAE@XZ 1000e070 f i SettingsControl.cpp.obj
 0001:0000d070       ??1ParserFactoryException@@UAE@XZ 1000e070 f i FarEditorSet.cpp.obj
 0001:0000d070       ??1UnsupportedEncodingException@@UAE@XZ 1000e070 f i colorer:CString.cpp.obj
 0001:0000d070       ??1StringIndexOutOfBoundsException@@UAE@XZ 1000e070 f i colorer:CString.cpp.obj
 0001:0000d070       ??1CatalogParserException@@UAE@XZ 1000e070 f i colorer:CatalogParser.cpp.obj
 0001:0000d080       ??_GErrorHandler@xercesc_3_2@@UAEPAXI@Z 1000e080 f i FarEditorSet.cpp.obj
 0001:0000d080       ??_EErrorHandler@xercesc_3_2@@UAEPAXI@Z 1000e080 f i * CIL library *:* CIL module *
 0001:0000d0b0       ??1XMLInternalErrorHandler@xercesc_3_2@@UAE@XZ 1000e0b0 f i xerces-c_3:XIncludeUtils.cpp.obj
 0001:0000d0b0       ??1XmlParserErrorHandler@@UAE@XZ 1000e0b0 f i FarEditorSet.cpp.obj
 0001:0000d0c0       ??_GXmlParserErrorHandler@@UAEPAXI@Z 1000e0c0 f i FarEditorSet.cpp.obj
 0001:0000d0c0       ??_EXmlParserErrorHandler@@UAEPAXI@Z 1000e0c0 f i * CIL library *:* CIL module *
 0001:0000d0f0       ?resetErrors@XmlParserErrorHandler@@UAEXXZ 1000e0f0 f i FarEditorSet.cpp.obj
 0001:0000d100       ??1DialogAPIBinding@@UAE@XZ 1000e100 f i FarEditorSet.cpp.obj
 0001:0000d110       ?SaveValue@PluginCheckBoxBinding@@UAEXPAUFarDialogItem@@H@Z 1000e110 f i FarEditorSet.cpp.obj
 0001:0000d150       ??_GPluginCheckBoxBinding@@UAEPAXI@Z 1000e150 f i FarEditorSet.cpp.obj
 0001:0000d150       ??_EPluginEditFieldBinding@@UAEPAXI@Z 1000e150 f i * CIL library *:* CIL module *
 0001:0000d150       ??_EPluginCheckBoxBinding@@UAEPAXI@Z 1000e150 f i * CIL library *:* CIL module *
 0001:0000d150       ??_GPluginEditFieldBinding@@UAEPAXI@Z 1000e150 f i FarEditorSet.cpp.obj
 0001:0000d180       ?SaveValue@PluginRadioButtonBinding@@UAEXPAUFarDialogItem@@H@Z 1000e180 f i FarEditorSet.cpp.obj
 0001:0000d1b0       ??_EPluginRadioButtonBinding@@UAEPAXI@Z 1000e1b0 f i * CIL library *:* CIL module *
 0001:0000d1b0       ??_GPluginRadioButtonBinding@@UAEPAXI@Z 1000e1b0 f i FarEditorSet.cpp.obj
 0001:0000d1e0       ?SaveValue@PluginEditFieldBinding@@UAEXPAUFarDialogItem@@H@Z 1000e1e0 f i FarEditorSet.cpp.obj
 0001:0000d210       ?SaveValue@PluginIntEditFieldBinding@@UAEXPAUFarDialogItem@@H@Z 1000e210 f i FarEditorSet.cpp.obj
 0001:0000d240       ??_GPluginIntEditFieldBinding@@UAEPAXI@Z 1000e240 f i FarEditorSet.cpp.obj
 0001:0000d240       ??_GPluginUIntEditFieldBinding@@UAEPAXI@Z 1000e240 f i FarEditorSet.cpp.obj
 0001:0000d240       ??_EPluginIntEditFieldBinding@@UAEPAXI@Z 1000e240 f i * CIL library *:* CIL module *
 0001:0000d240       ??_EPluginUIntEditFieldBinding@@UAEPAXI@Z 1000e240 f i * CIL library *:* CIL module *
 0001:0000d270       ?SaveValue@PluginUIntEditFieldBinding@@UAEXPAUFarDialogItem@@H@Z 1000e270 f i FarEditorSet.cpp.obj
 0001:0000d2a0       ?SaveValue@PluginListControlBinding@@UAEXPAUFarDialogItem@@H@Z 1000e2a0 f i FarEditorSet.cpp.obj
 0001:0000d300       ??_EPluginListControlBinding@@UAEPAXI@Z 1000e300 f i * CIL library *:* CIL module *
 0001:0000d300       ??_GPluginListControlBinding@@UAEPAXI@Z 1000e300 f i FarEditorSet.cpp.obj
 0001:0000d350       ?InitDialogItem@PluginDialogBuilder@@MAEXPAUFarDialogItem@@PB_W@Z 1000e350 f i FarEditorSet.cpp.obj
 0001:0000d370       ?TextWidth@PluginDialogBuilder@@MAEHABUFarDialogItem@@@Z 1000e370 f i FarEditorSet.cpp.obj
 0001:0000d380       ?GetLangString@PluginDialogBuilder@@MAEPB_WH@Z 1000e380 f i FarEditorSet.cpp.obj
 0001:0000d3a0       ?DoShowDialog@PluginDialogBuilder@@MAEHXZ 1000e3a0 f i FarEditorSet.cpp.obj
 0001:0000d3f0       ?CreateCheckBoxBinding@PluginDialogBuilder@@MAEPAU?$DialogItemBinding@UFarDialogItem@@@@PAHH@Z 1000e3f0 f i FarEditorSet.cpp.obj
 0001:0000d450       ?CreateRadioButtonBinding@PluginDialogBuilder@@MAEPAU?$DialogItemBinding@UFarDialogItem@@@@PAH@Z 1000e450 f i FarEditorSet.cpp.obj
 0001:0000d4a0       ??0PluginDialogBuilder@@QAE@ABUPluginStartupInfo@@ABU_GUID@@1HPB_WP6GHPAXHH3@Z3_K@Z 1000e4a0 f i FarEditorSet.cpp.obj
 0001:0000d5d0       ??1PluginDialogBuilder@@UAE@XZ 1000e5d0 f i FarEditorSet.cpp.obj
 0001:0000d650       ?AddIntEditField@PluginDialogBuilder@@UAEPAUFarDialogItem@@PAHH@Z 1000e650 f i FarEditorSet.cpp.obj
 0001:0000d790       ?AddUIntEditField@PluginDialogBuilder@@UAEPAUFarDialogItem@@PAIH@Z 1000e790 f i FarEditorSet.cpp.obj
 0001:0000d8d0       ?AddEditField@PluginDialogBuilder@@QAEPAUFarDialogItem@@PA_WHHPB_W_N@Z 1000e8d0 f i FarEditorSet.cpp.obj
 0001:0000d970       ?AddComboBox@PluginDialogBuilder@@QAEPAUFarDialogItem@@PAHPA_WHPBQB_WI_K@Z 1000e970 f i FarEditorSet.cpp.obj
 0001:0000dab0       ??_EPluginDialogBuilder@@UAEPAXI@Z 1000eab0 f i * CIL library *:* CIL module *
 0001:0000dab0       ??_GPluginDialogBuilder@@UAEPAXI@Z 1000eab0 f i FarEditorSet.cpp.obj
 0001:0000dad0       ??0FarEditorSet@@QAE@XZ    1000ead0 f   FarEditorSet.cpp.obj
 0001:0000dd20       ??1?$unordered_map@W4level_enum@level@spdlog@@GU?$hash@H@std@@U?$equal_to@W4level_enum@level@spdlog@@@5@V?$allocator@U?$pair@$$CBW4level_enum@level@spdlog@@G@std@@@5@@std@@QAE@XZ 1000ed20 f i spdlog:color_sinks.cpp.obj
 0001:0000dd20       ??1?$unordered_map@HPAVFarEditor@@U?$hash@H@std@@U?$equal_to@H@3@V?$allocator@U?$pair@$$CBHPAVFarEditor@@@std@@@3@@std@@QAE@XZ 1000ed20 f i FarEditorSet.cpp.obj
 0001:0000dd30       ??1?$_Hash@V?$_Umap_traits@W4level_enum@level@spdlog@@GV?$_Uhash_compare@W4level_enum@level@spdlog@@U?$hash@H@std@@U?$equal_to@W4level_enum@level@spdlog@@@5@@std@@V?$allocator@U?$pair@$$CBW4level_enum@level@spdlog@@G@std@@@5@$0A@@std@@@std@@QAE@XZ 1000ed30 f i spdlog:color_sinks.cpp.obj
 0001:0000dd30       ??1?$_Hash@V?$_Umap_traits@HPAVFarEditor@@V?$_Uhash_compare@HU?$hash@H@std@@U?$equal_to@H@2@@std@@V?$allocator@U?$pair@$$CBHPAVFarEditor@@@std@@@3@$0A@@std@@@std@@QAE@XZ 1000ed30 f i FarEditorSet.cpp.obj
 0001:0000ddc0       ??1FarEditorSet@@QAE@XZ    1000edc0 f   FarEditorSet.cpp.obj
 0001:0000df00       ?ColorThread@@YGXPAXE@Z    1000ef00 f   FarEditorSet.cpp.obj
 0001:0000df20       ?menuConfigure@FarEditorSet@@QAEXXZ 1000ef20 f   FarEditorSet.cpp.obj
 0001:0000e110       ?openMenu@FarEditorSet@@QAEXH@Z 1000f110 f   FarEditorSet.cpp.obj
 0001:0000e510       ?viewFile@FarEditorSet@@QAEXABVString@@@Z 1000f510 f   FarEditorSet.cpp.obj
 0001:0000e7e0       ?FillTypeMenu@FarEditorSet@@ABEXPAVChooseTypeMenu@@PAVFileType@@@Z 1000f7e0 f   FarEditorSet.cpp.obj
 0001:0000e930       ?KeyDialogProc@@YGHPAXHH0@Z 1000f930 f   FarEditorSet.cpp.obj
 0001:0000ea30       ?chooseType@FarEditorSet@@AAE_NXZ 1000fa30 f   FarEditorSet.cpp.obj
 0001:0000f250       ?SettingDialogProc@@YGHPAXHH0@Z 10010250 f   FarEditorSet.cpp.obj
 0001:0000f300       ?configure@FarEditorSet@@QAE_NXZ 10010300 f   FarEditorSet.cpp.obj
 0001:00010140       ?editorInput@FarEditorSet@@QAEHABU_INPUT_RECORD@@@Z 10011140 f   FarEditorSet.cpp.obj
 0001:00010240       ?editorEvent@FarEditorSet@@QAEHPBUProcessEditorEventInfo@@@Z 10011240 f   FarEditorSet.cpp.obj
 0001:00010470       ?TestLoadBase@FarEditorSet@@QAE_NPB_W00HW4HRC_MODE@1@@Z 10011470 f   FarEditorSet.cpp.obj
 0001:000109c0       ?ReloadBase@FarEditorSet@@AAEXXZ 100119c0 f   FarEditorSet.cpp.obj
 0001:00010ef0       ?addCurrentEditor@FarEditorSet@@AAEPAVFarEditor@@XZ 10011ef0 f   FarEditorSet.cpp.obj
 0001:000110a0       ?getCurrentFileName@FarEditorSet@@AAEPAVString@@XZ 100120a0 f   FarEditorSet.cpp.obj
 0001:00011180       ?getCurrentEditor@FarEditorSet@@AAEPAVFarEditor@@XZ 10012180 f   FarEditorSet.cpp.obj
 0001:000112a0       ?disableColorer@FarEditorSet@@QAEXXZ 100122a0 f   FarEditorSet.cpp.obj
 0001:000113a0       ?dropCurrentEditor@FarEditorSet@@AAEX_N@Z 100123a0 f   FarEditorSet.cpp.obj
 0001:00011500       ?ReadSettings@FarEditorSet@@QAEXXZ 10012500 f   FarEditorSet.cpp.obj
 0001:00011be0       ?applyLogSetting@FarEditorSet@@QAEXXZ 10012be0 f   FarEditorSet.cpp.obj
 0001:00012070       ?SaveSettings@FarEditorSet@@ABEXXZ 10013070 f   FarEditorSet.cpp.obj
 0001:000123c0       ?SaveLogSettings@FarEditorSet@@ABEXXZ 100133c0 f   FarEditorSet.cpp.obj
 0001:000124c0       ?LoadUserHrd@FarEditorSet@@QAEXPBVString@@PAVParserFactory@@@Z 100134c0 f   FarEditorSet.cpp.obj
 0001:000127d0       ??0ParserFactoryException@@QAE@ABV0@@Z 100137d0 f i FarEditorSet.cpp.obj
 0001:000127f0       ?LoadUserHrc@FarEditorSet@@QAEXPBVString@@PAVParserFactory@@@Z 100137f0 f   FarEditorSet.cpp.obj
 0001:000128a0       ?configureHrc@FarEditorSet@@QAE_N_N@Z 100138a0 f   FarEditorSet.cpp.obj
 0001:00012910       ?showExceptionMessage@FarEditorSet@@QAEXPB_W@Z 10013910 f   FarEditorSet.cpp.obj
 0001:00012970       ?configureLogging@FarEditorSet@@QAE_NXZ 10013970 f   FarEditorSet.cpp.obj
 0001:00012c30       ?setEmptyLogger@FarEditorSet@@AAEXXZ 10013c30 f   FarEditorSet.cpp.obj
 0001:00012db0       ?getHrdArrayWithCurrent@FarEditorSet@@AAEHPB_WPAV?$vector@PBVHRDNode@@V?$allocator@PBVHRDNode@@@std@@@std@@PAV?$vector@PB_WV?$allocator@PB_W@std@@@3@@Z 10013db0 f   FarEditorSet.cpp.obj
 0001:00012ef0       ?oldMacro@FarEditorSet@@QAEPAXW4FARMACROAREA@@PAUOpenMacroInfo@@@Z 10013ef0 f   FarEditorSet.cpp.obj
 0001:00013060       ?macroSettings@FarEditorSet@@AAEPAXW4FARMACROAREA@@PAUOpenMacroInfo@@@Z 10014060 f   FarEditorSet.cpp.obj
 0001:00013330       ?macroTypes@FarEditorSet@@AAEPAXW4FARMACROAREA@@PAUOpenMacroInfo@@@Z 10014330 f   FarEditorSet.cpp.obj
 0001:00013770       ?macroBrackets@FarEditorSet@@AAEPAXW4FARMACROAREA@@PAUOpenMacroInfo@@@Z 10014770 f   FarEditorSet.cpp.obj
 0001:00013950       ?macroRegion@FarEditorSet@@AAEPAXW4FARMACROAREA@@PAUOpenMacroInfo@@@Z 10014950 f   FarEditorSet.cpp.obj
 0001:00013be0       ?macroFunctions@FarEditorSet@@AAEPAXW4FARMACROAREA@@PAUOpenMacroInfo@@@Z 10014be0 f   FarEditorSet.cpp.obj
 0001:00013f20       ?macroErrors@FarEditorSet@@AAEPAXW4FARMACROAREA@@PAUOpenMacroInfo@@@Z 10014f20 f   FarEditorSet.cpp.obj
 0001:00014210       ?macroEditor@FarEditorSet@@AAEPAXW4FARMACROAREA@@PAUOpenMacroInfo@@@Z 10015210 f   FarEditorSet.cpp.obj
 0001:000148d0       ?macroParams@FarEditorSet@@AAEPAXW4FARMACROAREA@@PAUOpenMacroInfo@@@Z 100158d0 f   FarEditorSet.cpp.obj
 0001:00014fe0       ?execMacro@FarEditorSet@@QAEPAXW4FARMACROAREA@@PAUOpenMacroInfo@@@Z 10015fe0 f   FarEditorSet.cpp.obj
 0001:00015370       ??1?$unique_ptr@VHRDNode@@U?$default_delete@VHRDNode@@@std@@@std@@QAE@XZ 10016370 f i FarEditorSet.cpp.obj
 0001:000153d0       ?ShowDialog@?$DialogBuilderBase@UFarDialogItem@@@@QAE_NXZ 100163d0 f i FarEditorSet.cpp.obj
 0001:000154c0       ?AddTextBefore@?$DialogBuilderBase@UFarDialogItem@@@@QAEPAUFarDialogItem@@PAU2@H@Z 100164c0 f i FarEditorSet.cpp.obj
 0001:00015550       ?resolveSystemId@XMLScanner@xercesc_3_2@@MAEPAVInputSource@2@QB_W0@Z 10016550 f i xerces-c_3:XMLScanner.cpp.obj
 0001:00015550       ?AddUIntEditField@?$DialogBuilderBase@UFarDialogItem@@@@UAEPAUFarDialogItem@@PAIH@Z 10016550 f i FarEditorSet.cpp.obj
 0001:00015550       ?resolveSystemId@WFXMLScanner@xercesc_3_2@@EAEPAVInputSource@2@QB_W0@Z 10016550 f i xerces-c_3:WFXMLScanner.cpp.obj
 0001:00015550       ?CreateCheckBoxBinding@?$DialogBuilderBase@UFarDialogItem@@@@MAEPAU?$DialogItemBinding@UFarDialogItem@@@@PAHH@Z 10016550 f i FarEditorSet.cpp.obj
 0001:00015550       ?AddIntEditField@?$DialogBuilderBase@UFarDialogItem@@@@UAEPAUFarDialogItem@@PAHH@Z 10016550 f i FarEditorSet.cpp.obj
 0001:00015550       ?getFeature@DOMNodeImpl@xercesc_3_2@@QBEPAXPB_W0@Z 10016550 f i xerces-c_3:DOMNodeImpl.cpp.obj
 0001:00015550       ?getFeature@DOMImplementationImpl@xercesc_3_2@@UBEPAXPB_W0@Z 10016550 f i xerces-c_3:DOMImplementationImpl.cpp.obj
 0001:00015560       ??1?$DialogBuilderBase@UFarDialogItem@@@@MAE@XZ 10016560 f i FarEditorSet.cpp.obj
 0001:000155a0       ?getMin@Token@xercesc_3_2@@UBEHXZ 100165a0 f i xerces-c_3:RangeToken.cpp.obj
 0001:000155a0       ?getChar@Token@xercesc_3_2@@UBEHXZ 100165a0 f i xerces-c_3:RangeToken.cpp.obj
 0001:000155a0       ?GetVirtualProcessorId@ExternalContextBase@details@Concurrency@@UBEIXZ 100165a0 f i libconcrt:ExternalContextBase.obj
 0001:000155a0       ?getMax@Token@xercesc_3_2@@UBEHXZ 100165a0 f i xerces-c_3:RangeToken.cpp.obj
 0001:000155a0       ?DoShowDialog@?$DialogBuilderBase@UFarDialogItem@@@@MAEHXZ 100165a0 f i FarEditorSet.cpp.obj
 0001:000155b0       ?TextWidth@?$DialogBuilderBase@UFarDialogItem@@@@MAEHABUFarDialogItem@@@Z 100165b0 f i FarEditorSet.cpp.obj
 0001:000155c0       ?normalizeContent@AbstractStringValidator@xercesc_3_2@@MBEXQA_WQAVMemoryManager@2@@Z 100165c0 f i xerces-c_3:AbstractStringValidator.cpp.obj
 0001:000155c0       ?checkAdditionalFacet@AbstractStringValidator@xercesc_3_2@@MBEXQB_WQAVMemoryManager@2@@Z 100165c0 f i xerces-c_3:AbstractStringValidator.cpp.obj
 0001:000155c0       ?checkValueSpace@ListDatatypeValidator@xercesc_3_2@@MAEXQB_WQAVMemoryManager@2@@Z 100165c0 f i xerces-c_3:ListDatatypeValidator.cpp.obj
 0001:000155c0       ?NotifyResourcesExternallyBusy@ThreadScheduler@details@Concurrency@@UAEXPAPAUIVirtualProcessorRoot@3@I@Z 100165c0 f i libconcrt:ThreadScheduler.obj
 0001:000155c0       ?VirtualProcessorActiveNotification@SchedulerBase@details@Concurrency@@MAEX_NJ@Z 100165c0 f i libconcrt:SchedulerBase.obj
 0001:000155c0       ?checkValueSpace@StringDatatypeValidator@xercesc_3_2@@MAEXQB_WQAVMemoryManager@2@@Z 100165c0 f i xerces-c_3:StringDatatypeValidator.cpp.obj
 0001:000155c0       ?NotifyResourcesExternallyIdle@ThreadScheduler@details@Concurrency@@UAEXPAPAUIVirtualProcessorRoot@3@I@Z 100165c0 f i libconcrt:ThreadScheduler.obj
 0001:000155c0       ?InitDialogItem@?$DialogBuilderBase@UFarDialogItem@@@@MAEXPAUFarDialogItem@@PB_W@Z 100165c0 f i FarEditorSet.cpp.obj
 0001:000155c0       ?SaveValue@?$DialogItemBinding@UFarDialogItem@@@@UAEXPAUFarDialogItem@@H@Z 100165c0 f i FarEditorSet.cpp.obj
 0001:000155c0       ?clearLine@RegionHandler@@UAEXIPAVString@@@Z 100165c0 f i colorer:Outliner.cpp.obj
 0001:000155d0       ?AddDialogItem@?$DialogBuilderBase@UFarDialogItem@@@@IAEPAUFarDialogItem@@W4FARDIALOGITEMTYPES@@PB_W@Z 100165d0 f i FarEditorSet.cpp.obj
 0001:000156f0       ??1?$unique_ptr@VColorer@@U?$default_delete@VColorer@@@std@@@std@@QAE@XZ 100166f0 f i FarEditorSet.cpp.obj
 0001:00015710       ??1?$unique_ptr@VRegionMapper@@U?$default_delete@VRegionMapper@@@std@@@std@@QAE@XZ 10016710 f i FarEditorSet.cpp.obj
 0001:00015720       ??1?$_Hash_vec@V?$allocator@V?$_List_unchecked_iterator@V?$_List_val@U?$_List_simple_types@U?$pair@$$CBVSString@@V?$unique_ptr@V?$vector@V?$unique_ptr@VHRDNode@@U?$default_delete@VHRDNode@@@std@@@std@@V?$allocator@V?$unique_ptr@VHRDNode@@U?$default_delete@VHRDNode@@@std@@@std@@@2@@std@@U?$default_delete@V?$vector@V?$unique_ptr@VHRDNode@@U?$default_delete@VHRDNode@@@std@@@std@@V?$allocator@V?$unique_ptr@VHRDNode@@U?$default_delete@VHRDNode@@@std@@@std@@@2@@std@@@2@@std@@@std@@@std@@@std@@@std@@@std@@@std@@QAE@XZ 10016720 f i colorer:ParserFactory.cpp.obj
 0001:00015720       ??1?$_Hash_vec@V?$allocator@V?$_List_unchecked_iterator@V?$_List_val@U?$_List_simple_types@U?$pair@$$CBV?$basic_string@DU?$char_traits@D@std@@V?$allocator@D@2@@std@@V?$shared_ptr@Vlogger@spdlog@@@2@@std@@@std@@@std@@@std@@@std@@@std@@QAE@XZ 10016720 f i spdlog:spdlog.cpp.obj
 0001:00015720       ??1?$_Hash_vec@V?$allocator@V?$_List_unchecked_iterator@V?$_List_val@U?$_List_simple_types@U?$pair@$$CBW4level_enum@level@spdlog@@G@std@@@std@@@std@@@std@@@std@@@std@@QAE@XZ 10016720 f i spdlog:color_sinks.cpp.obj
 0001:00015720       ??1?$_Hash_vec@V?$allocator@V?$_List_unchecked_iterator@V?$_List_val@U?$_List_simple_types@U?$pair@$$CBVSString@@PAVSharedXmlInputSource@@@std@@@std@@@std@@@std@@@std@@@std@@QAE@XZ 10016720 f i colorer:SharedXmlInputSource.cpp.obj
 0001:00015720       ??1?$_Hash_vec@V?$allocator@V?$_List_unchecked_iterator@V?$_List_val@U?$_List_simple_types@U?$pair@$$CBHPAVFarEditor@@@std@@@std@@@std@@@std@@@std@@@std@@QAE@XZ 10016720 f i FarEditorSet.cpp.obj
 0001:00015720       ??1?$_Hash_vec@V?$allocator@V?$_List_unchecked_iterator@V?$_List_val@U?$_List_simple_types@U?$pair@$$CBVSString@@PAVSchemeImpl@@@std@@@std@@@std@@@std@@@std@@@std@@QAE@XZ 10016720 f i colorer:HRCParserImpl.cpp.obj
 0001:00015720       ??1?$_Hash_vec@V?$allocator@V?$_List_unchecked_iterator@V?$_List_val@U?$_List_simple_types@U?$pair@$$CBVSString@@PAVRegionDefine@@@std@@@std@@@std@@@std@@@std@@@std@@QAE@XZ 10016720 f i colorer:StyledHRDMapper.cpp.obj
 0001:00015720       ??1?$_Hash_vec@V?$allocator@V?$_List_unchecked_iterator@V?$_List_val@U?$_List_simple_types@U?$pair@$$CBVSString@@PBVRegion@@@std@@@std@@@std@@@std@@@std@@@std@@QAE@XZ 10016720 f i colorer:HRCParserImpl.cpp.obj
 0001:00015720       ??1?$_Hash_vec@V?$allocator@V?$_List_unchecked_iterator@V?$_List_val@U?$_List_simple_types@U?$pair@$$CBVSString@@PAVTypeParameter@@@std@@@std@@@std@@@std@@@std@@@std@@QAE@XZ 10016720 f i colorer:FileTypeImpl.cpp.obj
 0001:00015720       ??1?$_Hash_vec@V?$allocator@V?$_List_unchecked_iterator@V?$_List_val@U?$_List_simple_types@U?$pair@$$CBVSString@@H@std@@@std@@@std@@@std@@@std@@@std@@QAE@XZ 10016720 f i colorer:HRCParserImpl.cpp.obj
 0001:00015720       ??1?$_Hash_vec@V?$allocator@V?$_List_unchecked_iterator@V?$_List_val@U?$_List_simple_types@U?$pair@$$CBVSString@@PAVFileTypeImpl@@@std@@@std@@@std@@@std@@@std@@@std@@QAE@XZ 10016720 f i colorer:HRCParserImpl.cpp.obj
 0001:00015720       ??1?$_Hash_vec@V?$allocator@V?$_List_unchecked_iterator@V?$_List_val@U?$_List_simple_types@U?$pair@$$CBVSString@@PAVSharedInputSource@@@std@@@std@@@std@@@std@@@std@@@std@@QAE@XZ 10016720 f i colorer:SharedInputSource.cpp.obj
 0001:00015720       ??1?$_Hash_vec@V?$allocator@V?$_List_unchecked_iterator@V?$_List_val@U?$_List_simple_types@U?$pair@$$CBVSString@@PAVString@@@std@@@std@@@std@@@std@@@std@@@std@@QAE@XZ 10016720 f i colorer:HRCParserImpl.cpp.obj
 0001:00015770       ?clear@?$_Hash@V?$_Umap_traits@HPAVFarEditor@@V?$_Uhash_compare@HU?$hash@H@std@@U?$equal_to@H@2@@std@@V?$allocator@U?$pair@$$CBHPAVFarEditor@@@std@@@3@$0A@@std@@@std@@QAEXXZ 10016770 f i FarEditorSet.cpp.obj
 0001:000157f0       ?erase@?$_Hash@V?$_Umap_traits@HPAVFarEditor@@V?$_Uhash_compare@HU?$hash@H@std@@U?$equal_to@H@2@@std@@V?$allocator@U?$pair@$$CBHPAVFarEditor@@@std@@@3@$0A@@std@@@std@@QAEIABH@Z 100167f0 f i FarEditorSet.cpp.obj
 0001:000158b0       ??1?$list@U?$pair@$$CBHPAVFarEditor@@@std@@V?$allocator@U?$pair@$$CBHPAVFarEditor@@@std@@@2@@std@@QAE@XZ 100168b0 f i FarEditorSet.cpp.obj
 0001:000158b0       ??1?$list@U?$pair@$$CBW4level_enum@level@spdlog@@G@std@@V?$allocator@U?$pair@$$CBW4level_enum@level@spdlog@@G@std@@@2@@std@@QAE@XZ 100168b0 f i spdlog:color_sinks.cpp.obj
 0001:000158f0       ??1?$vector@VSString@@V?$allocator@VSString@@@std@@@std@@QAE@XZ 100168f0 f i FarEditorSet.cpp.obj
 0001:00015970       ??1?$shared_ptr@Vlogger@spdlog@@@std@@QAE@XZ 10016970 f i FarEditorSet.cpp.obj
 0001:00015970       ??1?$shared_ptr@V?$null_sink@Unull_mutex@details@spdlog@@@sinks@spdlog@@@std@@QAE@XZ 10016970 f i FarEditorSet.cpp.obj
 0001:00015970       ??1?$shared_ptr@Vsink@sinks@spdlog@@@std@@QAE@XZ 10016970 f i FarEditorSet.cpp.obj
 0001:00015970       ??1?$shared_ptr@V?$wincolor_stdout_sink@Uconsole_mutex@details@spdlog@@@sinks@spdlog@@@std@@QAE@XZ 10016970 f i spdlog:spdlog.cpp.obj
 0001:00015970       ??1?$shared_ptr@Vthread_pool@details@spdlog@@@std@@QAE@XZ 10016970 f i spdlog:spdlog.cpp.obj
 0001:00015970       ??1?$shared_ptr@V?$basic_file_sink@Vmutex@std@@@sinks@spdlog@@@std@@QAE@XZ 10016970 f i FarEditorSet.cpp.obj
 0001:000159a0       ??1?$vector@V?$shared_ptr@Vsink@sinks@spdlog@@@std@@V?$allocator@V?$shared_ptr@Vsink@sinks@spdlog@@@std@@@2@@std@@QAE@XZ 100169a0 f i FarEditorSet.cpp.obj
 0001:000159b0       ??1?$vector@Vlog_msg_buffer@details@spdlog@@V?$allocator@Vlog_msg_buffer@details@spdlog@@@std@@@std@@QAE@XZ 100169b0 f i FarEditorSet.cpp.obj
 0001:000159b0       ?_Tidy@?$vector@Vlog_msg_buffer@details@spdlog@@V?$allocator@Vlog_msg_buffer@details@spdlog@@@std@@@std@@AAEXXZ 100169b0 f i FarEditorSet.cpp.obj
 0001:00015a70       ??0?$basic_string@DU?$char_traits@D@std@@V?$allocator@D@2@@std@@QAE@ABV01@@Z 10016a70 f i FarEditorSet.cpp.obj
 0001:00015b40       ??_G?$DialogBuilderBase@UFarDialogItem@@@@MAEPAXI@Z 10016b40 f i FarEditorSet.cpp.obj
 0001:00015b40       ??_E?$DialogBuilderBase@UFarDialogItem@@@@MAEPAXI@Z 10016b40 f i * CIL library *:* CIL module *
 0001:00015ba0       ??_G?$DialogItemBinding@UFarDialogItem@@@@UAEPAXI@Z 10016ba0 f i FarEditorSet.cpp.obj
 0001:00015ba0       ??_E?$DialogItemBinding@UFarDialogItem@@@@UAEPAXI@Z 10016ba0 f i * CIL library *:* CIL module *
 0001:00015bd0       ?_Xrange@?$vector@PAVSchemeNode@@V?$allocator@PAVSchemeNode@@@std@@@std@@CAXXZ 10016bd0 f i colorer:HRCParserImpl.cpp.obj
 0001:00015bd0       ?_Xrange@?$vector@PAVLineRegion@@V?$allocator@PAVLineRegion@@@std@@@std@@CAXXZ 10016bd0 f i colorer:LineRegionsSupport.cpp.obj
 0001:00015bd0       ?_Xrange@?$vector@V?$unique_ptr@VString@@U?$default_delete@VString@@@std@@@std@@V?$allocator@V?$unique_ptr@VString@@U?$default_delete@VString@@@std@@@std@@@2@@std@@CAXXZ 10016bd0 f i colorer:HRCParserImpl.cpp.obj
 0001:00015bd0       ?_Xrange@?$vector@PBVRegionDefine@@V?$allocator@PBVRegionDefine@@@std@@@std@@CAXXZ 10016bd0 f i colorer:RegionMapperImpl.cpp.obj
 0001:00015bd0       ?_Xrange@?$vector@PBVHRDNode@@V?$allocator@PBVHRDNode@@@std@@@std@@CAXXZ 10016bd0 f i FarEditorSet.cpp.obj
 0001:00015bd0       ?_Xrange@?$vector@PAVSString@@V?$allocator@PAVSString@@@std@@@std@@CAXXZ 10016bd0 f i colorer:TextLinesStore.cpp.obj
 0001:00015bd0       ?_Xrange@?$vector@PAVOutlineItem@@V?$allocator@PAVOutlineItem@@@std@@@std@@CAXXZ 10016bd0 f i colorer:Outliner.cpp.obj
 0001:00015be0       ?AddButtons@?$DialogBuilderBase@UFarDialogItem@@@@QAEXHPBHHH@Z 10016be0 f i FarEditorSet.cpp.obj
 0001:00015e30       ?ItemWidth@?$DialogBuilderBase@UFarDialogItem@@@@IAEHABUFarDialogItem@@@Z 10016e30 f i FarEditorSet.cpp.obj
 0001:00015ed0       ?_Unchecked_erase@?$_Hash@V?$_Umap_traits@HPAVFarEditor@@V?$_Uhash_compare@HU?$hash@H@std@@U?$equal_to@H@2@@std@@V?$allocator@U?$pair@$$CBHPAVFarEditor@@@std@@@3@$0A@@std@@@std@@AAEPAU?$_List_node@U?$pair@$$CBHPAVFarEditor@@@std@@PAX@2@PAU32@QAU32@@Z 10016ed0 f i FarEditorSet.cpp.obj
 0001:00016080       ?_Destroy@?$vector@VSString@@V?$allocator@VSString@@@std@@@std@@AAEXPAVSString@@0@Z 10017080 f i FarEditorSet.cpp.obj
 0001:000160b0       ?_Tidy@?$vector@V?$shared_ptr@Vsink@sinks@spdlog@@@std@@V?$allocator@V?$shared_ptr@Vsink@sinks@spdlog@@@std@@@2@@std@@AAEXXZ 100170b0 f i FarEditorSet.cpp.obj
 0001:00016110       ?append@?$basic_string@DU?$char_traits@D@std@@V?$allocator@D@2@@std@@QAEAAV12@QBDI@Z 10017110 f i FarEditorSet.cpp.obj
 0001:00016170       ?UpdateBorderSize@?$DialogBuilderBase@UFarDialogItem@@@@IAEXXZ 10017170 f i FarEditorSet.cpp.obj
 0001:00016300       ?_Assign_grow@?$_Hash_vec@V?$allocator@V?$_List_unchecked_iterator@V?$_List_val@U?$_List_simple_types@U?$pair@$$CBHPAVFarEditor@@@std@@@std@@@std@@@std@@@std@@@std@@QAEXIV?$_List_unchecked_iterator@V?$_List_val@U?$_List_simple_types@U?$pair@$$CBHPAVFarEditor@@@std@@@std@@@std@@@2@@Z 10017300 f i FarEditorSet.cpp.obj
 0001:000163f0       ?getExceptionMemoryManager@MemoryManagerImpl@xercesc_3_2@@UAEPAVMemoryManager@2@XZ 100173f0 f i xerces-c_3:MemoryManagerImpl.cpp.obj
 0001:000163f0       ?_Getal@?$vector@VSString@@V?$allocator@VSString@@@std@@@std@@AAEAAV?$allocator@VSString@@@2@XZ 100173f0 f i FarEditorSet.cpp.obj
 0001:000163f0       ?getInputSource@ZipXmlInputSource@@UAEPAVInputSource@xercesc_3_2@@XZ 100173f0 f i colorer:ZipXmlInputSource.cpp.obj
 0001:00016400       ?deallocate@?$allocator@VSString@@@std@@QAEXQAVSString@@I@Z 10017400 f i FarEditorSet.cpp.obj
 0001:00016440       ??$?0PBV?$shared_ptr@Vsink@sinks@spdlog@@@std@@@logger@spdlog@@QAE@V?$basic_string@DU?$char_traits@D@std@@V?$allocator@D@2@@std@@PBV?$shared_ptr@Vsink@sinks@spdlog@@@3@1@Z 10017440 f i FarEditorSet.cpp.obj
 0001:00016630       ??$error@PBD@spdlog@@YAXV?$basic_string_view@D@v6@fmt@@ABQBD@Z 10017630 f i FarEditorSet.cpp.obj
 0001:00016670       ??$find@X@?$_Hash@V?$_Umap_traits@HPAVFarEditor@@V?$_Uhash_compare@HU?$hash@H@std@@U?$equal_to@H@2@@std@@V?$allocator@U?$pair@$$CBHPAVFarEditor@@@std@@@3@$0A@@std@@@std@@QAE?AV?$_List_iterator@V?$_List_val@U?$_List_simple_types@U?$pair@$$CBHPAVFarEditor@@@std@@@std@@@std@@@1@ABH@Z 10017670 f i FarEditorSet.cpp.obj
 0001:000166e0       ??$erase@V?$_List_iterator@V?$_List_val@U?$_List_simple_types@U?$pair@$$CBHPAVFarEditor@@@std@@@std@@@std@@@std@@X@?$_Hash@V?$_Umap_traits@HPAVFarEditor@@V?$_Uhash_compare@HU?$hash@H@std@@U?$equal_to@H@2@@std@@V?$allocator@U?$pair@$$CBHPAVFarEditor@@@std@@@3@$0A@@std@@@std@@QAE?AV?$_List_iterator@V?$_List_val@U?$_List_simple_types@U?$pair@$$CBHPAVFarEditor@@@std@@@std@@@std@@@1@V21@@Z 100176e0 f i FarEditorSet.cpp.obj
 0001:00016780       ??$emplace@AAU?$pair@HPAVFarEditor@@@std@@@?$_Hash@V?$_Umap_traits@HPAVFarEditor@@V?$_Uhash_compare@HU?$hash@H@std@@U?$equal_to@H@2@@std@@V?$allocator@U?$pair@$$CBHPAVFarEditor@@@std@@@3@$0A@@std@@@std@@QAE?AU?$pair@V?$_List_iterator@V?$_List_val@U?$_List_simple_types@U?$pair@$$CBHPAVFarEditor@@@std@@@std@@@std@@@std@@_N@1@AAU?$pair@HPAVFarEditor@@@1@@Z 10017780 f i FarEditorSet.cpp.obj
 0001:00016970       ??$_Emplace_reallocate@PB_W@?$vector@PB_WV?$allocator@PB_W@std@@@std@@QAEPAPB_WQAPB_W$$QAPB_W@Z 10017970 f i FarEditorSet.cpp.obj
 0001:00016970       ??$_Emplace_reallocate@ABQB_W@?$vector@PB_WV?$allocator@PB_W@std@@@std@@QAEPAPB_WQAPB_WABQB_W@Z 10017970 f i FarEditorSet.cpp.obj
 0001:00016a40       ??$_Find_last@W4level_enum@level@spdlog@@@?$_Hash@V?$_Umap_traits@W4level_enum@level@spdlog@@GV?$_Uhash_compare@W4level_enum@level@spdlog@@U?$hash@H@std@@U?$equal_to@W4level_enum@level@spdlog@@@5@@std@@V?$allocator@U?$pair@$$CBW4level_enum@level@spdlog@@G@std@@@5@$0A@@std@@@std@@IBE?AU?$_Hash_find_last_result@PAU?$_List_node@U?$pair@$$CBW4level_enum@level@spdlog@@G@std@@PAX@std@@@1@ABW4level_enum@level@spdlog@@I@Z 10017a40 f i spdlog:color_sinks.cpp.obj
 0001:00016a40       ??$_Find_last@H@?$_Hash@V?$_Umap_traits@HPAVFarEditor@@V?$_Uhash_compare@HU?$hash@H@std@@U?$equal_to@H@2@@std@@V?$allocator@U?$pair@$$CBHPAVFarEditor@@@std@@@3@$0A@@std@@@std@@IBE?AU?$_Hash_find_last_result@PAU?$_List_node@U?$pair@$$CBHPAVFarEditor@@@std@@PAX@std@@@1@ABHI@Z 10017a40 f i FarEditorSet.cpp.obj
 0001:00016ab0       ??$_Reallocate_grow_by@V<lambda_ab246b20b9526e2ef7792587e4298a77>@@PBDI@?$basic_string@DU?$char_traits@D@std@@V?$allocator@D@2@@std@@AAEAAV01@IV<lambda_ab246b20b9526e2ef7792587e4298a77>@@PBDI@Z 10017ab0 f i FarEditorSet.cpp.obj
 0001:00016c00       ??$_Destroy_range@V?$allocator@V?$shared_ptr@Vsink@sinks@spdlog@@@std@@@std@@@std@@YAXPAV?$shared_ptr@Vsink@sinks@spdlog@@@0@QAV10@AAV?$allocator@V?$shared_ptr@Vsink@sinks@spdlog@@@std@@@0@@Z 10017c00 f i FarEditorSet.cpp.obj
 0001:00016c50       ??$_Destroy_range@V?$allocator@Vlog_msg_buffer@details@spdlog@@@std@@@std@@YAXPAVlog_msg_buffer@details@spdlog@@QAV123@AAV?$allocator@Vlog_msg_buffer@details@spdlog@@@0@@Z 10017c50 f i FarEditorSet.cpp.obj
 0001:00016cb0       ??1?$_Alloc_construct_ptr@V?$allocator@U?$_List_node@U?$pair@$$CBHPAVFarEditor@@@std@@PAX@std@@@std@@@std@@QAE@XZ 10017cb0 f i FarEditorSet.cpp.obj
 0001:00016cb0       ??1?$_Alloc_construct_ptr@V?$allocator@U?$_List_node@U?$pair@$$CBW4level_enum@level@spdlog@@G@std@@PAX@std@@@std@@@std@@QAE@XZ 10017cb0 f i spdlog:color_sinks.cpp.obj
 0001:00016cb0       ??1?$_List_node_emplace_op2@V?$allocator@U?$_List_node@U?$pair@$$CBW4level_enum@level@spdlog@@G@std@@PAX@std@@@std@@@std@@QAE@XZ 10017cb0 f i spdlog:color_sinks.cpp.obj
 0001:00016cb0       ??1?$_List_node_emplace_op2@V?$allocator@U?$_List_node@U?$pair@$$CBHPAVFarEditor@@@std@@PAX@std@@@std@@@std@@QAE@XZ 10017cb0 f i FarEditorSet.cpp.obj
 0001:00016cd0       ?_Xlength@?$vector@PAVSString@@V?$allocator@PAVSString@@@std@@@std@@CAXXZ 10017cd0 f i colorer:TextLinesStore.cpp.obj
 0001:00016cd0       ?_Xlength@?$vector@V?$shared_ptr@Vsink@sinks@spdlog@@@std@@V?$allocator@V?$shared_ptr@Vsink@sinks@spdlog@@@std@@@2@@std@@CAXXZ 10017cd0 f i FarEditorSet.cpp.obj
 0001:00016cd0       ?_Xlength@?$vector@PAVOutlineItem@@V?$allocator@PAVOutlineItem@@@std@@@std@@CAXXZ 10017cd0 f i colorer:Outliner.cpp.obj
 0001:00016cd0       ?_Xlength@?$vector@PAVSchemeNode@@V?$allocator@PAVSchemeNode@@@std@@@std@@CAXXZ 10017cd0 f i colorer:HRCParserImpl.cpp.obj
 0001:00016cd0       ?_Xlength@?$vector@PAVFileTypeImpl@@V?$allocator@PAVFileTypeImpl@@@std@@@std@@CAXXZ 10017cd0 f i colorer:HRCParserImpl.cpp.obj
 0001:00016cd0       ?_Xlength@?$vector@V?$unique_ptr@VString@@U?$default_delete@VString@@@std@@@std@@V?$allocator@V?$unique_ptr@VString@@U?$default_delete@VString@@@std@@@std@@@2@@std@@CAXXZ 10017cd0 f i colorer:HRCParserImpl.cpp.obj
 0001:00016cd0       ?_Xlength@?$vector@HV?$allocator@H@std@@@std@@CAXXZ 10017cd0 f i colorer:Outliner.cpp.obj
 0001:00016cd0       ?_Xlength@?$vector@PAVFileTypeChooser@@V?$allocator@PAVFileTypeChooser@@@std@@@std@@CAXXZ 10017cd0 f i colorer:HRCParserImpl.cpp.obj
 0001:00016cd0       ?_Xlength@?$vector@PB_WV?$allocator@PB_W@std@@@std@@CAXXZ 10017cd0 f i FarEditorSet.cpp.obj
 0001:00016cd0       ?_Xlength@?$vector@V?$unique_ptr@VHRDNode@@U?$default_delete@VHRDNode@@@std@@@std@@V?$allocator@V?$unique_ptr@VHRDNode@@U?$default_delete@VHRDNode@@@std@@@std@@@2@@std@@CAXXZ 10017cd0 f i colorer:ParserFactory.cpp.obj
 0001:00016cd0       ?_Xlength@?$vector@PAVVirtualEntry@@V?$allocator@PAVVirtualEntry@@@std@@@std@@CAXXZ 10017cd0 f i colorer:HRCParserImpl.cpp.obj
 0001:00016cd0       ?_Xlength@?$vector@V?$unique_ptr@Vflag_formatter@details@spdlog@@U?$default_delete@Vflag_formatter@details@spdlog@@@std@@@std@@V?$allocator@V?$unique_ptr@Vflag_formatter@details@spdlog@@U?$default_delete@Vflag_formatter@details@spdlog@@@std@@@std@@@2@@std@@CAXXZ 10017cd0 f i spdlog:spdlog.cpp.obj
 0001:00016cd0       ?_Xlength@?$vector@VSString@@V?$allocator@VSString@@@std@@@std@@CAXXZ 10017cd0 f i colorer:FileTypeImpl.cpp.obj
 0001:00016cd0       ?_Xlength@?$vector@PAVEditorListener@@V?$allocator@PAVEditorListener@@@std@@@std@@CAXXZ 10017cd0 f i colorer:BaseEditor.cpp.obj
 0001:00016cd0       ?_Xlength@?$vector@PBVRegionDefine@@V?$allocator@PBVRegionDefine@@@std@@@std@@CAXXZ 10017cd0 f i colorer:RegionMapperImpl.cpp.obj
 0001:00016cd0       ?_Xlength@?$vector@PAVLineRegion@@V?$allocator@PAVLineRegion@@@std@@@std@@CAXXZ 10017cd0 f i colorer:LineRegionsSupport.cpp.obj
 0001:00016cd0       ?_Xlength@?$vector@PBVHRDNode@@V?$allocator@PBVHRDNode@@@std@@@std@@CAXXZ 10017cd0 f i colorer:ParserFactory.cpp.obj
 0001:00016cd0       ?_Xlength@?$vector@PAVRegionHandler@@V?$allocator@PAVRegionHandler@@@std@@@std@@CAXXZ 10017cd0 f i colorer:BaseEditor.cpp.obj
 0001:00016cd0       ?_Xlength@?$vector@PBVRegion@@V?$allocator@PBVRegion@@@std@@@std@@CAXXZ 10017cd0 f i colorer:HRCParserImpl.cpp.obj
 0001:00016cd0       ?_Xlength@?$vector@Vlog_msg_buffer@details@spdlog@@V?$allocator@Vlog_msg_buffer@details@spdlog@@@std@@@std@@CAXXZ 10017cd0 f i spdlog:spdlog.cpp.obj
 0001:00016ce0       ?_Change_array@?$vector@PAVFileTypeImpl@@V?$allocator@PAVFileTypeImpl@@@std@@@std@@AAEXQAPAVFileTypeImpl@@II@Z 10017ce0 f i colorer:HRCParserImpl.cpp.obj
 0001:00016ce0       ?_Change_array@?$vector@PB_WV?$allocator@PB_W@std@@@std@@AAEXQAPB_WII@Z 10017ce0 f i FarEditorSet.cpp.obj
 0001:00016ce0       ?_Change_array@?$vector@PAVOutlineItem@@V?$allocator@PAVOutlineItem@@@std@@@std@@AAEXQAPAVOutlineItem@@II@Z 10017ce0 f i colorer:Outliner.cpp.obj
 0001:00016ce0       ?_Change_array@?$vector@PAVSString@@V?$allocator@PAVSString@@@std@@@std@@AAEXQAPAVSString@@II@Z 10017ce0 f i colorer:TextLinesStore.cpp.obj
 0001:00016ce0       ?_Change_array@?$vector@PBVHRDNode@@V?$allocator@PBVHRDNode@@@std@@@std@@AAEXQAPBVHRDNode@@II@Z 10017ce0 f i colorer:ParserFactory.cpp.obj
 0001:00016ce0       ?_Change_array@?$vector@PBVRegion@@V?$allocator@PBVRegion@@@std@@@std@@AAEXQAPBVRegion@@II@Z 10017ce0 f i colorer:HRCParserImpl.cpp.obj
 0001:00016ce0       ?_Change_array@?$vector@PBVRegionDefine@@V?$allocator@PBVRegionDefine@@@std@@@std@@AAEXQAPBVRegionDefine@@II@Z 10017ce0 f i colorer:RegionMapperImpl.cpp.obj
 0001:00016ce0       ?_Change_array@?$vector@PAVLineRegion@@V?$allocator@PAVLineRegion@@@std@@@std@@AAEXQAPAVLineRegion@@II@Z 10017ce0 f i colorer:LineRegionsSupport.cpp.obj
 0001:00016d40       ?allocate@?$allocator@PAVOutlineItem@@@std@@QAEPAPAVOutlineItem@@I@Z 10017d40 f i colorer:Outliner.cpp.obj
 0001:00016d40       ?allocate@?$allocator@PBVRegionDefine@@@std@@QAEPAPBVRegionDefine@@I@Z 10017d40 f i colorer:RegionMapperImpl.cpp.obj
 0001:00016d40       ?allocate@?$allocator@PAVFileTypeImpl@@@std@@QAEPAPAVFileTypeImpl@@I@Z 10017d40 f i colorer:HRCParserImpl.cpp.obj
 0001:00016d40       ?allocate@?$allocator@PAVLineRegion@@@std@@QAEPAPAVLineRegion@@I@Z 10017d40 f i colorer:LineRegionsSupport.cpp.obj
 0001:00016d40       ?allocate@?$allocator@PB_W@std@@QAEPAPB_WI@Z 10017d40 f i FarEditorSet.cpp.obj
 0001:00016d40       ?allocate@?$allocator@PAVSString@@@std@@QAEPAPAVSString@@I@Z 10017d40 f i colorer:TextLinesStore.cpp.obj
 0001:00016d40       ?allocate@?$allocator@PBVRegion@@@std@@QAEPAPBVRegion@@I@Z 10017d40 f i colorer:HRCParserImpl.cpp.obj
 0001:00016d40       ?allocate@?$allocator@PBVHRDNode@@@std@@QAEPAPBVHRDNode@@I@Z 10017d40 f i colorer:ParserFactory.cpp.obj
 0001:00016da0       ?_Forced_rehash@?$_Hash@V?$_Umap_traits@HPAVFarEditor@@V?$_Uhash_compare@HU?$hash@H@std@@U?$equal_to@H@2@@std@@V?$allocator@U?$pair@$$CBHPAVFarEditor@@@std@@@3@$0A@@std@@@std@@IAEXI@Z 10017da0 f i FarEditorSet.cpp.obj
 0001:00016f00       ??$create@V?$basic_file_sink@Vmutex@std@@@sinks@spdlog@@ABV?$basic_string@DU?$char_traits@D@std@@V?$allocator@D@2@@std@@AA_N@synchronous_factory@spdlog@@SA?AV?$shared_ptr@Vlogger@spdlog@@@std@@V?$basic_string@DU?$char_traits@D@std@@V?$allocator@D@2@@3@ABV43@AA_N@Z 10017f00 f i FarEditorSet.cpp.obj
 0001:000170b0       ??$create@V?$null_sink@Unull_mutex@details@spdlog@@@sinks@spdlog@@$$V@synchronous_factory@spdlog@@SA?AV?$shared_ptr@Vlogger@spdlog@@@std@@V?$basic_string@DU?$char_traits@D@std@@V?$allocator@D@2@@3@@Z 100180b0 f i FarEditorSet.cpp.obj
 0001:00017d50       ?_Delete_this@?$_Ref_count_obj2@V?$null_sink@Unull_mutex@details@spdlog@@@sinks@spdlog@@@std@@EAEXXZ 10018d50 f i FarEditorSet.cpp.obj
 0001:00017d50       ?_Delete_this@?$_Ref_count_obj2@V?$wincolor_stdout_sink@Uconsole_mutex@details@spdlog@@@sinks@spdlog@@@std@@EAEXXZ 10018d50 f i spdlog:spdlog.cpp.obj
 0001:00017d50       ?_Delete_this@?$_Ref_count_obj2@V?$basic_file_sink@Vmutex@std@@@sinks@spdlog@@@std@@EAEXXZ 10018d50 f i FarEditorSet.cpp.obj
 0001:00017d50       ?_Delete_this@?$_Ref_count_obj2@Vlogger@spdlog@@@std@@EAEXXZ 10018d50 f i FarEditorSet.cpp.obj
 0001:00017d60       ?_Destroy@?$_Ref_count_obj2@V?$wincolor_stdout_sink@Uconsole_mutex@details@spdlog@@@sinks@spdlog@@@std@@EAEXXZ 10018d60 f i spdlog:spdlog.cpp.obj
 0001:00017d60       ?_Destroy@?$_Ref_count_obj2@V?$null_sink@Unull_mutex@details@spdlog@@@sinks@spdlog@@@std@@EAEXXZ 10018d60 f i FarEditorSet.cpp.obj
 0001:00017d70       ?_Destroy@?$_Ref_count_obj2@Vlogger@spdlog@@@std@@EAEXXZ 10018d70 f i FarEditorSet.cpp.obj
 0001:00017d80       ?_Destroy@?$_Ref_count_obj2@V?$basic_file_sink@Vmutex@std@@@sinks@spdlog@@@std@@EAEXXZ 10018d80 f i FarEditorSet.cpp.obj
 0001:00017db0       ??_E?$_Ref_count_obj2@V?$null_sink@Unull_mutex@details@spdlog@@@sinks@spdlog@@@std@@UAEPAXI@Z 10018db0 f i * CIL library *:* CIL module *
 0001:00017db0       ??_G?$_Ref_count_obj2@V?$null_sink@Unull_mutex@details@spdlog@@@sinks@spdlog@@@std@@UAEPAXI@Z 10018db0 f i FarEditorSet.cpp.obj
 0001:00017de0       ??_E?$_Ref_count_obj2@Vlogger@spdlog@@@std@@UAEPAXI@Z 10018de0 f i * CIL library *:* CIL module *
 0001:00017de0       ??_G?$_Ref_count_obj2@Vlogger@spdlog@@@std@@UAEPAXI@Z 10018de0 f i FarEditorSet.cpp.obj
 0001:00017e10       ??_G?$_Ref_count_obj2@V?$basic_file_sink@Vmutex@std@@@sinks@spdlog@@@std@@UAEPAXI@Z 10018e10 f i FarEditorSet.cpp.obj
 0001:00017e10       ??_E?$_Ref_count_obj2@V?$basic_file_sink@Vmutex@std@@@sinks@spdlog@@@std@@UAEPAXI@Z 10018e10 f i * CIL library *:* CIL module *
 0001:00017e40       ?_Buy_raw@?$vector@V?$shared_ptr@Vsink@sinks@spdlog@@@std@@V?$allocator@V?$shared_ptr@Vsink@sinks@spdlog@@@std@@@2@@std@@AAEXI@Z 10018e40 f i FarEditorSet.cpp.obj
 0001:00018250       ??_G?$basic_file_sink@Vmutex@std@@@sinks@spdlog@@UAEPAXI@Z 10019250 f i FarEditorSet.cpp.obj
 0001:00018250       ??_E?$basic_file_sink@Vmutex@std@@@sinks@spdlog@@UAEPAXI@Z 10019250 f i * CIL library *:* CIL module *
 0001:00018290       ??1?$base_sink@Vmutex@std@@@sinks@spdlog@@UAE@XZ 10019290 f i FarEditorSet.cpp.obj
 0001:000182b0       ??_E?$null_sink@Unull_mutex@details@spdlog@@@sinks@spdlog@@UAEPAXI@Z 100192b0 f i * CIL library *:* CIL module *
 0001:000182b0       ??_G?$null_sink@Unull_mutex@details@spdlog@@@sinks@spdlog@@UAEPAXI@Z 100192b0 f i FarEditorSet.cpp.obj
 0001:000182b0       ??_E?$base_sink@Unull_mutex@details@spdlog@@@sinks@spdlog@@UAEPAXI@Z 100192b0 f i spdlog:spdlog.cpp.obj
 0001:000182b0       ??_G?$base_sink@Unull_mutex@details@spdlog@@@sinks@spdlog@@UAEPAXI@Z 100192b0 f i spdlog:spdlog.cpp.obj
 0001:000182e0       ??0FarHrcSettingsException@@QAE@ABVString@@@Z 100192e0 f i FarHrcSettings.cpp.obj
 0001:00018330       ?readProfile@FarHrcSettings@@QAEXPAVSString@@@Z 10019330 f   FarHrcSettings.cpp.obj
 0001:000183d0       ?readXML@FarHrcSettings@@QAEXPAVString@@_N@Z 100193d0 f   FarHrcSettings.cpp.obj
 0001:00018610       ??0FarHrcSettingsException@@QAE@ABV0@@Z 10019610 f i FarHrcSettings.cpp.obj
 0001:00018630       ?UpdatePrototype@FarHrcSettings@@AAEXPAVDOMElement@xercesc_3_2@@_N@Z 10019630 f   FarHrcSettings.cpp.obj
 0001:00018870       ?readProfileFromRegistry@FarHrcSettings@@AAEXXZ 10019870 f   FarHrcSettings.cpp.obj
 0001:00018b20       ?writeProfileToRegistry@FarHrcSettings@@AAEXXZ 10019b20 f   FarHrcSettings.cpp.obj
 0001:00018de0       ?SettingHrcDialogProc@@YGHPAXHH0@Z 10019de0 f   HrcSettingsForm.cpp.obj
 0001:00018ec0       ?showForm@HrcSettingsForm@@QAE_NXZ 10019ec0 f   HrcSettingsForm.cpp.obj
 0001:00019410       ?buildHrcList@HrcSettingsForm@@QBEPAUFarList@@XZ 1001a410 f   HrcSettingsForm.cpp.obj
 0001:000195b0       ?OnChangeParam@HrcSettingsForm@@QAEXH@Z 1001a5b0 f   HrcSettingsForm.cpp.obj
 0001:00019860       ?SaveChangedValueParam@HrcSettingsForm@@QBEXXZ 1001a860 f   HrcSettingsForm.cpp.obj
 0001:000199e0       ?OnChangeHrc@HrcSettingsForm@@QAEXXZ 1001a9e0 f   HrcSettingsForm.cpp.obj
 0001:00019c10       ?setYNListValueToCombobox@HrcSettingsForm@@QBEXABVCString@@@Z 1001ac10 f   HrcSettingsForm.cpp.obj
 0001:00019e20       ?setTFListValueToCombobox@HrcSettingsForm@@QBEXABVCString@@@Z 1001ae20 f   HrcSettingsForm.cpp.obj
 0001:0001a030       ?setCustomListValueToCombobox@HrcSettingsForm@@QBEXABVCString@@@Z 1001b030 f   HrcSettingsForm.cpp.obj
 0001:0001a1e0       ?setCrossValueListToCombobox@HrcSettingsForm@@QBEXXZ 1001b1e0 f   HrcSettingsForm.cpp.obj
 0001:0001a440       ?setCrossPosValueListToCombobox@HrcSettingsForm@@QBEXXZ 1001b440 f   HrcSettingsForm.cpp.obj
 0001:0001a640       ?getParamDefValue@HrcSettingsForm@@QBEPBVString@@PAVFileTypeImpl@@ABVSString@@@Z 1001b640 f   HrcSettingsForm.cpp.obj
 0001:0001a750       ?removeFarList@HrcSettingsForm@@SAXPAUFarList@@@Z 1001b750 f   HrcSettingsForm.cpp.obj
 0001:0001a790       ??0SettingsControlException@@QAE@ABVString@@@Z 1001b790 f i SettingsControl.cpp.obj
 0001:0001a7e0       ??0SettingsControl@@QAE@XZ 1001b7e0 f   SettingsControl.cpp.obj
 0001:0001a890       ??0SettingsControlException@@QAE@ABV0@@Z 1001b890 f i SettingsControl.cpp.obj
 0001:0001a8b0       ??1SettingsControl@@QAE@XZ 1001b8b0 f   SettingsControl.cpp.obj
 0001:0001a8f0       _GetGlobalInfoW@4          1001b8f0 f   pcolorer.cpp.obj
 0001:0001a980       _SetStartupInfoW@4         1001b980 f   pcolorer.cpp.obj
 0001:0001a9c0       _GetPluginInfoW@4          1001b9c0 f   pcolorer.cpp.obj
 0001:0001aa70       _ExitFARW@4                1001ba70 f   pcolorer.cpp.obj
 0001:0001aaa0       _OpenW@4                   1001baa0 f   pcolorer.cpp.obj
 0001:0001ab90       _ConfigureW@4              1001bb90 f   pcolorer.cpp.obj
 0001:0001abd0       _ProcessEditorEventW@4     1001bbd0 f   pcolorer.cpp.obj
 0001:0001ac30       _ProcessEditorInputW@4     1001bc30 f   pcolorer.cpp.obj
 0001:0001ac60       _ProcessSynchroEventW@4    1001bc60 f   pcolorer.cpp.obj
 0001:0001acf0       ?trim@@YAPA_WPA_W@Z        1001bcf0 f   tools.cpp.obj
 0001:0001ad60       ?PathToFull@@YAPA_WPB_W_N@Z 1001bd60 f   tools.cpp.obj
 0001:0001aeb0       ?PathToFullS@@YAPAVSString@@PB_W_N@Z 1001beb0 f   tools.cpp.obj
 0001:0001af10       ?macroGetValue@@YAHPAUFarMacroValue@@H@Z 1001bf10 f   tools.cpp.obj
 0001:0001af30       ?MacroCallback@@YGXPAXPAUFarMacroValue@@I@Z 1001bf30 f   tools.cpp.obj
 0001:0001afb0       ?macroReturnInt@@YAPAUFarMacroCall@@_J@Z 1001bfb0 f   tools.cpp.obj
 0001:0001b010       ?macroReturnValues@@YAPAUFarMacroCall@@PAUFarMacroValue@@H@Z 1001c010 f   tools.cpp.obj
 0001:0001b0b0       _EncodePointerWrapper@4    1001c0b0 f   vc_crt_fix_impl.cpp.obj
 0001:0001b110       _DecodePointerWrapper@4    1001c110 f   vc_crt_fix_impl.cpp.obj
 0001:0001b160       _GetModuleHandleExWWrapper@12 1001c160 f   vc_crt_fix_impl.cpp.obj
 0001:0001b4c0       _InitializeSListHeadWrapper@4 1001c4c0 f   vc_crt_fix_impl.cpp.obj
 0001:0001b510       _InterlockedFlushSListWrapper@4 1001c510 f   vc_crt_fix_impl.cpp.obj
 0001:0001b560       _InterlockedPopEntrySListWrapper@4 1001c560 f   vc_crt_fix_impl.cpp.obj
 0001:0001b5b0       _InterlockedPushEntrySListWrapper@8 1001c5b0 f   vc_crt_fix_impl.cpp.obj
 0001:0001b600       _InterlockedPushListSListExWrapper@16 1001c600 f   vc_crt_fix_impl.cpp.obj
 0001:0001b650       _RtlFirstEntrySListWrapper@4 1001c650 f   vc_crt_fix_impl.cpp.obj
 0001:0001b6a0       _QueryDepthSListWrapper@4  1001c6a0 f   vc_crt_fix_impl.cpp.obj
 0001:0001b6f0       _GetNumaHighestNodeNumberWrapper@4 1001c6f0 f   vc_crt_fix_impl.cpp.obj
 0001:0001b760       _GetLogicalProcessorInformationWrapper@8 1001c760 f   vc_crt_fix_impl.cpp.obj
 0001:0001b7c0       _SetThreadStackGuaranteeWrapper@4 1001c7c0 f   vc_crt_fix_impl.cpp.obj
 0001:0001b820       ??0CString@@QAE@ABVString@@II@Z 1001c820 f   colorer:CString.cpp.obj
 0001:0001b820       ??0CString@@QAE@PBVString@@II@Z 1001c820 f   colorer:CString.cpp.obj
 0001:0001b900       ??0CString@@QAE@PBDIIH@Z   1001c900 f   colorer:CString.cpp.obj
 0001:0001b9b0       ??0CString@@QAE@PBEIH@Z    1001c9b0 f   colorer:CString.cpp.obj
 0001:0001bdf0       ??0CString@@QAE@PB_WII@Z   1001cdf0 f   colorer:CString.cpp.obj
 0001:0001be60       ??0CString@@QAE@XZ         1001ce60 f   colorer:CString.cpp.obj
 0001:0001bea0       ??0StringIndexOutOfBoundsException@@QAE@ABV0@@Z 1001cea0 f i colorer:CString.cpp.obj
 0001:0001bec0       ??0StringIndexOutOfBoundsException@@QAE@ABVString@@@Z 1001cec0 f   colorer:CString.cpp.obj
 0001:0001bf20       ??0UnsupportedEncodingException@@QAE@ABV0@@Z 1001cf20 f i colorer:CString.cpp.obj
 0001:0001bf40       ??1CString@@UAE@XZ         1001cf40 f   colorer:CString.cpp.obj
 0001:0001bf70       ??4CString@@QAEAAV0@ABV0@@Z 1001cf70 f   colorer:CString.cpp.obj
 0001:0001bff0       ??ACString@@UBE_WI@Z       1001cff0 f   colorer:CString.cpp.obj
 0001:0001c190       ??_ECString@@UAEPAXI@Z     1001d190 f i colorer:CString.cpp.obj
 0001:0001c190       ??_GCString@@UAEPAXI@Z     1001d190 f i colorer:CString.cpp.obj
 0001:0001c1d0       ?getRawData@XMLAbstractDoubleFloat@xercesc_3_2@@UBEPA_WXZ 1001d1d0 f   xerces-c_3:XMLAbstractDoubleFloat.cpp.obj
 0001:0001c1d0       ?Id@ScheduleGroupBase@details@Concurrency@@UBEIXZ 1001d1d0 f   libconcrt:SchedulerBase.obj
 0001:0001c1d0       ?getBaseType@XSComplexTypeDefinition@xercesc_3_2@@UAEPAVXSTypeDefinition@2@XZ 1001d1d0 f   xerces-c_3:XSComplexTypeDefinition.cpp.obj
 0001:0001c1d0       ?length@CString@@UBEIXZ    1001d1d0 f   colorer:CString.cpp.obj
 0001:0001c1d0       ?getSystemId@XMLEntityDecl@xercesc_3_2@@QBEPB_WXZ 1001d1d0 f   xerces-c_3:AbstractDOMParser.cpp.obj
 0001:0001c1d0       ?GetScheduler@ContextBase@details@Concurrency@@QBEPAVSchedulerBase@23@XZ 1001d1d0 f   libconcrt:ContextBase.obj
 0001:0001c1d0       ?getPublicId@XSDLocator@xercesc_3_2@@UBEPB_WXZ 1001d1d0 f   xerces-c_3:XSDLocator.cpp.obj
 0001:0001c1d0       ?getAttributes@XMLSchemaDescriptionImpl@xercesc_3_2@@UBEPBVXMLAttDef@2@XZ 1001d1d0 f   xerces-c_3:XMLSchemaDescriptionImpl.cpp.obj
 0001:0001c1d0       ?getSystemId@DOMNotationImpl@xercesc_3_2@@UBEPB_WXZ 1001d1d0 f   xerces-c_3:DOMNotationImpl.cpp.obj
 0001:0001c1d0       ?getBaseType@XSSimpleTypeDefinition@xercesc_3_2@@UAEPAVXSTypeDefinition@2@XZ 1001d1d0 f   xerces-c_3:XSSimpleTypeDefinition.cpp.obj
 0001:0001c1d0       ?getNext@XSAnnotation@xercesc_3_2@@QAEPAV12@XZ 1001d1d0 f   xerces-c_3:XSAnnotation.cpp.obj
 0001:0001c1e0       ??0SString@@QAE@ABV0@@Z    1001d1e0 f   colorer:SString.cpp.obj
 0001:0001c250       ??0SString@@QAE@ABVString@@II@Z 1001d250 f   colorer:SString.cpp.obj
 0001:0001c250       ??0SString@@QAE@PBVString@@II@Z 1001d250 f   colorer:SString.cpp.obj
 0001:0001c2c0       ??0SString@@QAE@H@Z        1001d2c0 f   colorer:SString.cpp.obj
 0001:0001c370       ??0SString@@QAE@I@Z        1001d370 f   colorer:SString.cpp.obj
 0001:0001c420       ??0SString@@QAE@PADH@Z     1001d420 f   colorer:SString.cpp.obj
 0001:0001c4b0       ??0SString@@QAE@PA_W@Z     1001d4b0 f   colorer:SString.cpp.obj
 0001:0001c540       ??0SString@@QAE@PBDII@Z    1001d540 f   colorer:SString.cpp.obj
 0001:0001c5e0       ??0SString@@QAE@PB_WII@Z   1001d5e0 f   colorer:SString.cpp.obj
 0001:0001c670       ??0SString@@QAE@XZ         1001d670 f   colorer:SString.cpp.obj
 0001:0001c6a0       ??1?$unique_ptr@$$BY0A@EU?$default_delete@$$BY0A@E@std@@@std@@QAE@XZ 1001d6a0 f i colorer:ZipXmlInputSource.cpp.obj
 0001:0001c6a0       ??1?$unique_ptr@$$BY0A@_WU?$default_delete@$$BY0A@_W@std@@@std@@QAE@XZ 1001d6a0 f i colorer:SString.cpp.obj
 0001:0001c6b0       ??1SString@@UAE@XZ         1001d6b0 f   colorer:SString.cpp.obj
 0001:0001c6e0       ??ASString@@UBE_WI@Z       1001d6e0 f i colorer:SString.cpp.obj
 0001:0001c6f0       ??HSString@@QAEAAV0@ABVString@@@Z 1001d6f0 f   colorer:SString.cpp.obj
 0001:0001c700       ??HSString@@QAEAAV0@PBD@Z  1001d700 f   colorer:SString.cpp.obj
 0001:0001c770       ?append@SString@@QAEAAV1@PBVString@@@Z 1001d770 f   colorer:SString.cpp.obj
 0001:0001c770       ??HSString@@QAEAAV0@PBVString@@@Z 1001d770 f   colorer:SString.cpp.obj
 0001:0001c800       ??_GSString@@UAEPAXI@Z     1001d800 f i colorer:SString.cpp.obj
 0001:0001c800       ??_ESString@@UAEPAXI@Z     1001d800 f i colorer:SString.cpp.obj
 0001:0001c840       ?append@SString@@QAEAAV1@ABVString@@@Z 1001d840 f   colorer:SString.cpp.obj
 0001:0001c950       ?compareTo@SString@@QBEHABV1@@Z 1001d950 f   colorer:SString.cpp.obj
 0001:0001c9d0       ?compareTo@SString@@QBEHABVDString@@@Z 1001d9d0 f   colorer:SString.cpp.obj
 0001:0001ca40       ?construct@SString@@IAEXPBVString@@II@Z 1001da40 f   colorer:SString.cpp.obj
 0001:0001cb40       ?replace@SString@@QBEPAV1@ABVString@@0@Z 1001db40 f   colorer:SString.cpp.obj
 0001:0001cc80       _sprintf                   1001dc80 f i colorer:SString.cpp.obj
 0001:0001ccb0       ??0Exception@@QAE@ABV0@@Z  1001dcb0 f   colorer:Exception.cpp.obj
 0001:0001cd10       ??0Exception@@QAE@ABVString@@@Z 1001dd10 f   colorer:Exception.cpp.obj
 0001:0001cd70       ??0Exception@@QAE@PBD@Z    1001dd70 f   colorer:Exception.cpp.obj
 0001:0001cdd0       ??0InputSourceException@@QAE@ABVString@@@Z 1001ddd0 f   colorer:Exception.cpp.obj
 0001:0001ce50       ??1InputSourceException@@UAE@XZ 1001de50 f   colorer:Exception.cpp.obj
 0001:0001ce50       ??1Exception@@UAE@XZ       1001de50 f   colorer:Exception.cpp.obj
 0001:0001ce80       ??_EException@@UAEPAXI@Z   1001de80 f i colorer:Exception.cpp.obj
 0001:0001ce80       ??_GException@@UAEPAXI@Z   1001de80 f i colorer:Exception.cpp.obj
 0001:0001ce80       ??_EInputSourceException@@UAEPAXI@Z 1001de80 f i colorer:Exception.cpp.obj
 0001:0001ce80       ??_GInputSourceException@@UAEPAXI@Z 1001de80 f i colorer:Exception.cpp.obj
 0001:0001cec0       ?what@Exception@@UBEPBDXZ  1001dec0 f   colorer:Exception.cpp.obj
 0001:0001cf00       ??$_Emplace_reallocate@ABVSString@@@?$vector@VSString@@V?$allocator@VSString@@@std@@@std@@QAEPAVSString@@QAV2@ABV2@@Z 1001df00 f i colorer:FileTypeImpl.cpp.obj
 0001:0001cf00       ??$_Emplace_reallocate@AAVSString@@@?$vector@VSString@@V?$allocator@VSString@@@std@@@std@@QAEPAVSString@@QAV2@AAV2@@Z 1001df00 f i colorer:ParserFactory.cpp.obj
 0001:0001d070       ??$_Find_last@VSString@@@?$_Hash@V?$_Umap_traits@VSString@@PAVTypeParameter@@V?$_Uhash_compare@VSString@@U?$hash@VSString@@@std@@U?$equal_to@VSString@@@3@@std@@V?$allocator@U?$pair@$$CBVSString@@PAVTypeParameter@@@std@@@4@$0A@@std@@@std@@IBE?AU?$_Hash_find_last_result@PAU?$_List_node@U?$pair@$$CBVSString@@PAVTypeParameter@@@std@@PAX@std@@@1@ABVSString@@I@Z 1001e070 f i colorer:FileTypeImpl.cpp.obj
 0001:0001d070       ??$_Find_last@VSString@@@?$_Hash@V?$_Umap_traits@VSString@@PBVRegion@@V?$_Uhash_compare@VSString@@U?$hash@VSString@@@std@@U?$equal_to@VSString@@@3@@std@@V?$allocator@U?$pair@$$CBVSString@@PBVRegion@@@std@@@4@$0A@@std@@@std@@IBE?AU?$_Hash_find_last_result@PAU?$_List_node@U?$pair@$$CBVSString@@PBVRegion@@@std@@PAX@std@@@1@ABVSString@@I@Z 1001e070 f i colorer:HRCParserImpl.cpp.obj
 0001:0001d070       ??$_Find_last@VSString@@@?$_Hash@V?$_Umap_traits@VSString@@PAVSharedXmlInputSource@@V?$_Uhash_compare@VSString@@U?$hash@VSString@@@std@@U?$equal_to@VSString@@@3@@std@@V?$allocator@U?$pair@$$CBVSString@@PAVSharedXmlInputSource@@@std@@@4@$0A@@std@@@std@@IBE?AU?$_Hash_find_last_result@PAU?$_List_node@U?$pair@$$CBVSString@@PAVSharedXmlInputSource@@@std@@PAX@std@@@1@ABVSString@@I@Z 1001e070 f i colorer:SharedXmlInputSource.cpp.obj
 0001:0001d070       ??$_Find_last@VSString@@@?$_Hash@V?$_Umap_traits@VSString@@V?$unique_ptr@V?$vector@V?$unique_ptr@VHRDNode@@U?$default_delete@VHRDNode@@@std@@@std@@V?$allocator@V?$unique_ptr@VHRDNode@@U?$default_delete@VHRDNode@@@std@@@std@@@2@@std@@U?$default_delete@V?$vector@V?$unique_ptr@VHRDNode@@U?$default_delete@VHRDNode@@@std@@@std@@V?$allocator@V?$unique_ptr@VHRDNode@@U?$default_delete@VHRDNode@@@std@@@std@@@2@@std@@@2@@std@@V?$_Uhash_compare@VSString@@U?$hash@VSString@@@std@@U?$equal_to@VSString@@@3@@3@V?$allocator@U?$pair@$$CBVSString@@V?$unique_ptr@V?$vector@V?$unique_ptr@VHRDNode@@U?$default_delete@VHRDNode@@@std@@@std@@V?$allocator@V?$unique_ptr@VHRDNode@@U?$default_delete@VHRDNode@@@std@@@std@@@2@@std@@U?$default_delete@V?$vector@V?$unique_ptr@VHRDNode@@U?$default_delete@VHRDNode@@@std@@@std@@V?$allocator@V?$unique_ptr@VHRDNode@@U?$default_delete@VHRDNode@@@std@@@std@@@2@@std@@@2@@std@@@std@@@3@$0A@@std@@@std@@IBE?AU?$_Hash_find_last_result@PAU?$_List_node@U?$pair@$$CBVSString@@V?$unique_ptr@V?$vector@V?$unique_ptr@VHRDNode@@U?$default_delete@VHRDNode@@@std@@@std@@V?$allocator@V?$unique_ptr@VHRDNode@@U?$default_delete@VHRDNode@@@std@@@std@@@2@@std@@U?$default_delete@V?$vector@V?$unique_ptr@VHRDNode@@U?$default_delete@VHRDNode@@@std@@@std@@V?$allocator@V?$unique_ptr@VHRDNode@@U?$default_delete@VHRDNode@@@std@@@std@@@2@@std@@@2@@std@@@std@@PAX@std@@@1@ABVSString@@I@Z 1001e070 f i colorer:ParserFactory.cpp.obj
 0001:0001d070       ??$_Find_last@VSString@@@?$_Hash@V?$_Umap_traits@VSString@@PAVSchemeImpl@@V?$_Uhash_compare@VSString@@U?$hash@VSString@@@std@@U?$equal_to@VSString@@@3@@std@@V?$allocator@U?$pair@$$CBVSString@@PAVSchemeImpl@@@std@@@4@$0A@@std@@@std@@IBE?AU?$_Hash_find_last_result@PAU?$_List_node@U?$pair@$$CBVSString@@PAVSchemeImpl@@@std@@PAX@std@@@1@ABVSString@@I@Z 1001e070 f i colorer:HRCParserImpl.cpp.obj
 0001:0001d070       ??$_Find_last@VSString@@@?$_Hash@V?$_Umap_traits@VSString@@PAVString@@V?$_Uhash_compare@VSString@@U?$hash@VSString@@@std@@U?$equal_to@VSString@@@3@@std@@V?$allocator@U?$pair@$$CBVSString@@PAVString@@@std@@@4@$0A@@std@@@std@@IBE?AU?$_Hash_find_last_result@PAU?$_List_node@U?$pair@$$CBVSString@@PAVString@@@std@@PAX@std@@@1@ABVSString@@I@Z 1001e070 f i colorer:HRCParserImpl.cpp.obj
 0001:0001d070       ??$_Find_last@VSString@@@?$_Hash@V?$_Umap_traits@VSString@@PAVSharedInputSource@@V?$_Uhash_compare@VSString@@U?$hash@VSString@@@std@@U?$equal_to@VSString@@@3@@std@@V?$allocator@U?$pair@$$CBVSString@@PAVSharedInputSource@@@std@@@4@$0A@@std@@@std@@IBE?AU?$_Hash_find_last_result@PAU?$_List_node@U?$pair@$$CBVSString@@PAVSharedInputSource@@@std@@PAX@std@@@1@ABVSString@@I@Z 1001e070 f i colorer:SharedInputSource.cpp.obj
 0001:0001d070       ??$_Find_last@VSString@@@?$_Hash@V?$_Umap_traits@VSString@@PAVFileTypeImpl@@V?$_Uhash_compare@VSString@@U?$hash@VSString@@@std@@U?$equal_to@VSString@@@3@@std@@V?$allocator@U?$pair@$$CBVSString@@PAVFileTypeImpl@@@std@@@4@$0A@@std@@@std@@IBE?AU?$_Hash_find_last_result@PAU?$_List_node@U?$pair@$$CBVSString@@PAVFileTypeImpl@@@std@@PAX@std@@@1@ABVSString@@I@Z 1001e070 f i colorer:HRCParserImpl.cpp.obj
 0001:0001d070       ??$_Find_last@VSString@@@?$_Hash@V?$_Umap_traits@VSString@@PAVRegionDefine@@V?$_Uhash_compare@VSString@@U?$hash@VSString@@@std@@U?$equal_to@VSString@@@3@@std@@V?$allocator@U?$pair@$$CBVSString@@PAVRegionDefine@@@std@@@4@$0A@@std@@@std@@IBE?AU?$_Hash_find_last_result@PAU?$_List_node@U?$pair@$$CBVSString@@PAVRegionDefine@@@std@@PAX@std@@@1@ABVSString@@I@Z 1001e070 f i colorer:StyledHRDMapper.cpp.obj
 0001:0001d0f0       ??$construct@VSString@@V1@@?$_Default_allocator_traits@V?$allocator@VSString@@@std@@@std@@SAXAAV?$allocator@VSString@@@1@QAVSString@@$$QAV3@@Z 1001e0f0 f i colorer:FileTypeImpl.cpp.obj
 0001:0001d150       ??$emplace@AAU?$pair@VSString@@PAVTypeParameter@@@std@@@?$_Hash@V?$_Umap_traits@VSString@@PAVTypeParameter@@V?$_Uhash_compare@VSString@@U?$hash@VSString@@@std@@U?$equal_to@VSString@@@3@@std@@V?$allocator@U?$pair@$$CBVSString@@PAVTypeParameter@@@std@@@4@$0A@@std@@@std@@QAE?AU?$pair@V?$_List_iterator@V?$_List_val@U?$_List_simple_types@U?$pair@$$CBVSString@@PAVTypeParameter@@@std@@@std@@@std@@@std@@_N@1@AAU?$pair@VSString@@PAVTypeParameter@@@1@@Z 1001e150 f i colorer:FileTypeImpl.cpp.obj
 0001:0001d150       ??$emplace@AAU?$pair@VSString@@PAVRegionDefine@@@std@@@?$_Hash@V?$_Umap_traits@VSString@@PAVRegionDefine@@V?$_Uhash_compare@VSString@@U?$hash@VSString@@@std@@U?$equal_to@VSString@@@3@@std@@V?$allocator@U?$pair@$$CBVSString@@PAVRegionDefine@@@std@@@4@$0A@@std@@@std@@QAE?AU?$pair@V?$_List_iterator@V?$_List_val@U?$_List_simple_types@U?$pair@$$CBVSString@@PAVRegionDefine@@@std@@@std@@@std@@@std@@_N@1@AAU?$pair@VSString@@PAVRegionDefine@@@1@@Z 1001e150 f i colorer:StyledHRDMapper.cpp.obj
 0001:0001d330       ??$make_unique@VSString@@AAPBVString@@$0A@@std@@YA?AV?$unique_ptr@VSString@@U?$default_delete@VSString@@@std@@@0@AAPBVString@@@Z 1001e330 f i colorer:FileTypeImpl.cpp.obj
 0001:0001d3b0       ??0FileTypeImpl@@IAE@PAVHRCParserImpl@@@Z 1001e3b0 f   colorer:FileTypeImpl.cpp.obj
 0001:0001d4d0       ??1?$_Alloc_construct_ptr@V?$allocator@U?$_List_node@U?$pair@$$CBVSString@@PBVRegion@@@std@@PAX@std@@@std@@@std@@QAE@XZ 1001e4d0 f i colorer:HRCParserImpl.cpp.obj
 0001:0001d4d0       ??1?$_Alloc_construct_ptr@V?$allocator@U?$_List_node@U?$pair@$$CBVSString@@V?$unique_ptr@V?$vector@V?$unique_ptr@VHRDNode@@U?$default_delete@VHRDNode@@@std@@@std@@V?$allocator@V?$unique_ptr@VHRDNode@@U?$default_delete@VHRDNode@@@std@@@std@@@2@@std@@U?$default_delete@V?$vector@V?$unique_ptr@VHRDNode@@U?$default_delete@VHRDNode@@@std@@@std@@V?$allocator@V?$unique_ptr@VHRDNode@@U?$default_delete@VHRDNode@@@std@@@std@@@2@@std@@@2@@std@@@std@@PAX@std@@@std@@@std@@QAE@XZ 1001e4d0 f i colorer:ParserFactory.cpp.obj
 0001:0001d4d0       ??1?$_Alloc_construct_ptr@V?$allocator@U?$_List_node@U?$pair@$$CBVSString@@PAVSharedInputSource@@@std@@PAX@std@@@std@@@std@@QAE@XZ 1001e4d0 f i colorer:SharedInputSource.cpp.obj
 0001:0001d4d0       ??1?$_Alloc_construct_ptr@V?$allocator@U?$_List_node@U?$pair@$$CBVSString@@PAVFileTypeImpl@@@std@@PAX@std@@@std@@@std@@QAE@XZ 1001e4d0 f i colorer:HRCParserImpl.cpp.obj
 0001:0001d4d0       ??1?$_Alloc_construct_ptr@V?$allocator@U?$_List_node@U?$pair@$$CBVSString@@PAVRegionDefine@@@std@@PAX@std@@@std@@@std@@QAE@XZ 1001e4d0 f i colorer:StyledHRDMapper.cpp.obj
 0001:0001d4d0       ??1?$_Alloc_construct_ptr@V?$allocator@U?$_List_node@U?$pair@$$CBVSString@@PAVSharedXmlInputSource@@@std@@PAX@std@@@std@@@std@@QAE@XZ 1001e4d0 f i colorer:SharedXmlInputSource.cpp.obj
 0001:0001d4d0       ??1?$_Alloc_construct_ptr@V?$allocator@U?$_List_node@U?$pair@$$CBVSString@@PAVString@@@std@@PAX@std@@@std@@@std@@QAE@XZ 1001e4d0 f i colorer:HRCParserImpl.cpp.obj
 0001:0001d4d0       ??1?$_Alloc_construct_ptr@V?$allocator@U?$_List_node@U?$pair@$$CBVSString@@PAVTypeParameter@@@std@@PAX@std@@@std@@@std@@QAE@XZ 1001e4d0 f i colorer:FileTypeImpl.cpp.obj
 0001:0001d4d0       ??1?$_Alloc_construct_ptr@V?$allocator@U?$_List_node@U?$pair@$$CBVSString@@PAVSchemeImpl@@@std@@PAX@std@@@std@@@std@@QAE@XZ 1001e4d0 f i colorer:HRCParserImpl.cpp.obj
 0001:0001d4f0       ??1?$_Hash@V?$_Umap_traits@VSString@@PAVString@@V?$_Uhash_compare@VSString@@U?$hash@VSString@@@std@@U?$equal_to@VSString@@@3@@std@@V?$allocator@U?$pair@$$CBVSString@@PAVString@@@std@@@4@$0A@@std@@@std@@QAE@XZ 1001e4f0 f i colorer:HRCParserImpl.cpp.obj
 0001:0001d4f0       ??1?$_Hash@V?$_Umap_traits@VSString@@PBVRegion@@V?$_Uhash_compare@VSString@@U?$hash@VSString@@@std@@U?$equal_to@VSString@@@3@@std@@V?$allocator@U?$pair@$$CBVSString@@PBVRegion@@@std@@@4@$0A@@std@@@std@@QAE@XZ 1001e4f0 f i colorer:HRCParserImpl.cpp.obj
 0001:0001d4f0       ??1?$_Hash@V?$_Umap_traits@VSString@@PAVRegionDefine@@V?$_Uhash_compare@VSString@@U?$hash@VSString@@@std@@U?$equal_to@VSString@@@3@@std@@V?$allocator@U?$pair@$$CBVSString@@PAVRegionDefine@@@std@@@4@$0A@@std@@@std@@QAE@XZ 1001e4f0 f i colorer:StyledHRDMapper.cpp.obj
 0001:0001d4f0       ??1?$_Hash@V?$_Umap_traits@VSString@@PAVFileTypeImpl@@V?$_Uhash_compare@VSString@@U?$hash@VSString@@@std@@U?$equal_to@VSString@@@3@@std@@V?$allocator@U?$pair@$$CBVSString@@PAVFileTypeImpl@@@std@@@4@$0A@@std@@@std@@QAE@XZ 1001e4f0 f i colorer:HRCParserImpl.cpp.obj
 0001:0001d4f0       ??1?$_Hash@V?$_Umap_traits@VSString@@PAVSchemeImpl@@V?$_Uhash_compare@VSString@@U?$hash@VSString@@@std@@U?$equal_to@VSString@@@3@@std@@V?$allocator@U?$pair@$$CBVSString@@PAVSchemeImpl@@@std@@@4@$0A@@std@@@std@@QAE@XZ 1001e4f0 f i colorer:HRCParserImpl.cpp.obj
 0001:0001d4f0       ??1?$_Hash@V?$_Umap_traits@VSString@@HV?$_Uhash_compare@VSString@@U?$hash@VSString@@@std@@U?$equal_to@VSString@@@3@@std@@V?$allocator@U?$pair@$$CBVSString@@H@std@@@3@$0A@@std@@@std@@QAE@XZ 1001e4f0 f i colorer:HRCParserImpl.cpp.obj
 0001:0001d4f0       ??1?$_Hash@V?$_Umap_traits@VSString@@PAVSharedInputSource@@V?$_Uhash_compare@VSString@@U?$hash@VSString@@@std@@U?$equal_to@VSString@@@3@@std@@V?$allocator@U?$pair@$$CBVSString@@PAVSharedInputSource@@@std@@@4@$0A@@std@@@std@@QAE@XZ 1001e4f0 f i colorer:SharedInputSource.cpp.obj
 0001:0001d4f0       ??1?$_Hash@V?$_Umap_traits@VSString@@PAVSharedXmlInputSource@@V?$_Uhash_compare@VSString@@U?$hash@VSString@@@std@@U?$equal_to@VSString@@@3@@std@@V?$allocator@U?$pair@$$CBVSString@@PAVSharedXmlInputSource@@@std@@@4@$0A@@std@@@std@@QAE@XZ 1001e4f0 f i colorer:SharedXmlInputSource.cpp.obj
 0001:0001d4f0       ??1?$_Hash@V?$_Umap_traits@VSString@@PAVTypeParameter@@V?$_Uhash_compare@VSString@@U?$hash@VSString@@@std@@U?$equal_to@VSString@@@3@@std@@V?$allocator@U?$pair@$$CBVSString@@PAVTypeParameter@@@std@@@4@$0A@@std@@@std@@QAE@XZ 1001e4f0 f i colorer:FileTypeImpl.cpp.obj
 0001:0001d550       ??1?$_List_node_emplace_op2@V?$allocator@U?$_List_node@U?$pair@$$CBVSString@@PAVSharedInputSource@@@std@@PAX@std@@@std@@@std@@QAE@XZ 1001e550 f i colorer:SharedInputSource.cpp.obj
 0001:0001d550       ??1?$_List_node_emplace_op2@V?$allocator@U?$_List_node@U?$pair@$$CBVSString@@PBVRegion@@@std@@PAX@std@@@std@@@std@@QAE@XZ 1001e550 f i colorer:HRCParserImpl.cpp.obj
 0001:0001d550       ??1?$_List_node_emplace_op2@V?$allocator@U?$_List_node@U?$pair@$$CBVSString@@PAVSchemeImpl@@@std@@PAX@std@@@std@@@std@@QAE@XZ 1001e550 f i colorer:HRCParserImpl.cpp.obj
 0001:0001d550       ??1?$_List_node_emplace_op2@V?$allocator@U?$_List_node@U?$pair@$$CBVSString@@PAVFileTypeImpl@@@std@@PAX@std@@@std@@@std@@QAE@XZ 1001e550 f i colorer:HRCParserImpl.cpp.obj
 0001:0001d550       ??1?$_List_node_emplace_op2@V?$allocator@U?$_List_node@U?$pair@$$CBVSString@@PAVString@@@std@@PAX@std@@@std@@@std@@QAE@XZ 1001e550 f i colorer:HRCParserImpl.cpp.obj
 0001:0001d550       ??1?$_List_node_emplace_op2@V?$allocator@U?$_List_node@U?$pair@$$CBVSString@@PAVTypeParameter@@@std@@PAX@std@@@std@@@std@@QAE@XZ 1001e550 f i colorer:FileTypeImpl.cpp.obj
 0001:0001d550       ??1?$_List_node_emplace_op2@V?$allocator@U?$_List_node@U?$pair@$$CBVSString@@PAVRegionDefine@@@std@@PAX@std@@@std@@@std@@QAE@XZ 1001e550 f i colorer:StyledHRDMapper.cpp.obj
 0001:0001d550       ??1?$_List_node_emplace_op2@V?$allocator@U?$_List_node@U?$pair@$$CBVSString@@PAVSharedXmlInputSource@@@std@@PAX@std@@@std@@@std@@QAE@XZ 1001e550 f i colorer:SharedXmlInputSource.cpp.obj
 0001:0001d580       ??1?$_Uninitialized_backout_al@V?$allocator@VSString@@@std@@@std@@QAE@XZ 1001e580 f i colorer:FileTypeImpl.cpp.obj
 0001:0001d5b0       ??1?$list@U?$pair@$$CBVSString@@PAVTypeParameter@@@std@@V?$allocator@U?$pair@$$CBVSString@@PAVTypeParameter@@@std@@@2@@std@@QAE@XZ 1001e5b0 f i colorer:FileTypeImpl.cpp.obj
 0001:0001d5b0       ??1?$list@U?$pair@$$CBVSString@@PAVFileTypeImpl@@@std@@V?$allocator@U?$pair@$$CBVSString@@PAVFileTypeImpl@@@std@@@2@@std@@QAE@XZ 1001e5b0 f i colorer:HRCParserImpl.cpp.obj
 0001:0001d5b0       ??1?$list@U?$pair@$$CBVSString@@PBVRegion@@@std@@V?$allocator@U?$pair@$$CBVSString@@PBVRegion@@@std@@@2@@std@@QAE@XZ 1001e5b0 f i colorer:HRCParserImpl.cpp.obj
 0001:0001d5b0       ??1?$list@U?$pair@$$CBVSString@@PAVString@@@std@@V?$allocator@U?$pair@$$CBVSString@@PAVString@@@std@@@2@@std@@QAE@XZ 1001e5b0 f i colorer:HRCParserImpl.cpp.obj
 0001:0001d5b0       ??1?$list@U?$pair@$$CBVSString@@PAVSharedXmlInputSource@@@std@@V?$allocator@U?$pair@$$CBVSString@@PAVSharedXmlInputSource@@@std@@@2@@std@@QAE@XZ 1001e5b0 f i colorer:SharedXmlInputSource.cpp.obj
 0001:0001d5b0       ??1?$list@U?$pair@$$CBVSString@@H@std@@V?$allocator@U?$pair@$$CBVSString@@H@std@@@2@@std@@QAE@XZ 1001e5b0 f i colorer:HRCParserImpl.cpp.obj
 0001:0001d5b0       ??1?$list@U?$pair@$$CBVSString@@PAVSchemeImpl@@@std@@V?$allocator@U?$pair@$$CBVSString@@PAVSchemeImpl@@@std@@@2@@std@@QAE@XZ 1001e5b0 f i colorer:HRCParserImpl.cpp.obj
 0001:0001d5b0       ??1?$list@U?$pair@$$CBVSString@@PAVSharedInputSource@@@std@@V?$allocator@U?$pair@$$CBVSString@@PAVSharedInputSource@@@std@@@2@@std@@QAE@XZ 1001e5b0 f i colorer:SharedInputSource.cpp.obj
 0001:0001d5b0       ??1?$list@U?$pair@$$CBVSString@@PAVRegionDefine@@@std@@V?$allocator@U?$pair@$$CBVSString@@PAVRegionDefine@@@std@@@2@@std@@QAE@XZ 1001e5b0 f i colorer:StyledHRDMapper.cpp.obj
 0001:0001d600       ??1?$pair@VSString@@PAVRegionDefine@@@std@@QAE@XZ 1001e600 f i colorer:StyledHRDMapper.cpp.obj
 0001:0001d600       ??1?$pair@VSString@@PBVRegion@@@std@@QAE@XZ 1001e600 f i colorer:HRCParserImpl.cpp.obj
 0001:0001d600       ??1?$pair@VSString@@PAVFileTypeImpl@@@std@@QAE@XZ 1001e600 f i colorer:HRCParserImpl.cpp.obj
 0001:0001d600       ??1?$pair@VSString@@PAVString@@@std@@QAE@XZ 1001e600 f i colorer:HRCParserImpl.cpp.obj
 0001:0001d600       ??1?$pair@VSString@@PAVSchemeImpl@@@std@@QAE@XZ 1001e600 f i colorer:HRCParserImpl.cpp.obj
 0001:0001d600       ??1?$pair@VSString@@PAVSharedInputSource@@@std@@QAE@XZ 1001e600 f i colorer:SharedInputSource.cpp.obj
 0001:0001d600       ??1?$pair@VSString@@PAVTypeParameter@@@std@@QAE@XZ 1001e600 f i colorer:FileTypeImpl.cpp.obj
 0001:0001d610       ??1?$unique_ptr@VCRegExp@@U?$default_delete@VCRegExp@@@std@@@std@@QAE@XZ 1001e610 f i colorer:FileTypeImpl.cpp.obj
 0001:0001d630       ??1?$vector@V?$unique_ptr@VString@@U?$default_delete@VString@@@std@@@std@@V?$allocator@V?$unique_ptr@VString@@U?$default_delete@VString@@@std@@@std@@@2@@std@@QAE@XZ 1001e630 f i colorer:FileTypeImpl.cpp.obj
 0001:0001d630       ??1?$vector@V?$unique_ptr@Vflag_formatter@details@spdlog@@U?$default_delete@Vflag_formatter@details@spdlog@@@std@@@std@@V?$allocator@V?$unique_ptr@Vflag_formatter@details@spdlog@@U?$default_delete@Vflag_formatter@details@spdlog@@@std@@@std@@@2@@std@@QAE@XZ 1001e630 f i spdlog:spdlog.cpp.obj
 0001:0001d6a0       ??1FileType@@MAE@XZ        1001e6a0 f i colorer:FileTypeImpl.cpp.obj
 0001:0001d6b0       ??1FileTypeImpl@@MAE@XZ    1001e6b0 f   colorer:FileTypeImpl.cpp.obj
 0001:0001d840       ??1_Clear_guard@?$_Hash@V?$_Umap_traits@VSString@@PAVTypeParameter@@V?$_Uhash_compare@VSString@@U?$hash@VSString@@@std@@U?$equal_to@VSString@@@3@@std@@V?$allocator@U?$pair@$$CBVSString@@PAVTypeParameter@@@std@@@4@$0A@@std@@@std@@QAE@XZ 1001e840 f i colorer:FileTypeImpl.cpp.obj
 0001:0001d840       ??1_Clear_guard@?$_Hash@V?$_Umap_traits@VSString@@PAVRegionDefine@@V?$_Uhash_compare@VSString@@U?$hash@VSString@@@std@@U?$equal_to@VSString@@@3@@std@@V?$allocator@U?$pair@$$CBVSString@@PAVRegionDefine@@@std@@@4@$0A@@std@@@std@@QAE@XZ 1001e840 f i colorer:StyledHRDMapper.cpp.obj
 0001:0001d850       ??_EFileType@@MAEPAXI@Z    1001e850 f i colorer:FileTypeImpl.cpp.obj
 0001:0001d850       ??_GFileType@@MAEPAXI@Z    1001e850 f i colorer:FileTypeImpl.cpp.obj
 0001:0001d880       ??_GFileTypeImpl@@MAEPAXI@Z 1001e880 f i colorer:FileTypeImpl.cpp.obj
 0001:0001d880       ??_EFileTypeImpl@@MAEPAXI@Z 1001e880 f i colorer:FileTypeImpl.cpp.obj
 0001:0001d8a0       ?_Assign_grow@?$_Hash_vec@V?$allocator@V?$_List_unchecked_iterator@V?$_List_val@U?$_List_simple_types@U?$pair@$$CBVSString@@PAVRegionDefine@@@std@@@std@@@std@@@std@@@std@@@std@@QAEXIV?$_List_unchecked_iterator@V?$_List_val@U?$_List_simple_types@U?$pair@$$CBVSString@@PAVRegionDefine@@@std@@@std@@@std@@@2@@Z 1001e8a0 f i colorer:StyledHRDMapper.cpp.obj
 0001:0001d8a0       ?_Assign_grow@?$_Hash_vec@V?$allocator@V?$_List_unchecked_iterator@V?$_List_val@U?$_List_simple_types@U?$pair@$$CBVSString@@PAVSchemeImpl@@@std@@@std@@@std@@@std@@@std@@@std@@QAEXIV?$_List_unchecked_iterator@V?$_List_val@U?$_List_simple_types@U?$pair@$$CBVSString@@PAVSchemeImpl@@@std@@@std@@@std@@@2@@Z 1001e8a0 f i colorer:HRCParserImpl.cpp.obj
 0001:0001d8a0       ?_Assign_grow@?$_Hash_vec@V?$allocator@V?$_List_unchecked_iterator@V?$_List_val@U?$_List_simple_types@U?$pair@$$CBVSString@@PAVSharedInputSource@@@std@@@std@@@std@@@std@@@std@@@std@@QAEXIV?$_List_unchecked_iterator@V?$_List_val@U?$_List_simple_types@U?$pair@$$CBVSString@@PAVSharedInputSource@@@std@@@std@@@std@@@2@@Z 1001e8a0 f i colorer:SharedInputSource.cpp.obj
 0001:0001d8a0       ?_Assign_grow@?$_Hash_vec@V?$allocator@V?$_List_unchecked_iterator@V?$_List_val@U?$_List_simple_types@U?$pair@$$CBVSString@@PAVSharedXmlInputSource@@@std@@@std@@@std@@@std@@@std@@@std@@QAEXIV?$_List_unchecked_iterator@V?$_List_val@U?$_List_simple_types@U?$pair@$$CBVSString@@PAVSharedXmlInputSource@@@std@@@std@@@std@@@2@@Z 1001e8a0 f i colorer:SharedXmlInputSource.cpp.obj
 0001:0001d8a0       ?_Assign_grow@?$_Hash_vec@V?$allocator@V?$_List_unchecked_iterator@V?$_List_val@U?$_List_simple_types@U?$pair@$$CBVSString@@PBVRegion@@@std@@@std@@@std@@@std@@@std@@@std@@QAEXIV?$_List_unchecked_iterator@V?$_List_val@U?$_List_simple_types@U?$pair@$$CBVSString@@PBVRegion@@@std@@@std@@@std@@@2@@Z 1001e8a0 f i colorer:HRCParserImpl.cpp.obj
 0001:0001d8a0       ?_Assign_grow@?$_Hash_vec@V?$allocator@V?$_List_unchecked_iterator@V?$_List_val@U?$_List_simple_types@U?$pair@$$CBV?$basic_string@DU?$char_traits@D@std@@V?$allocator@D@2@@std@@V?$shared_ptr@Vlogger@spdlog@@@2@@std@@@std@@@std@@@std@@@std@@@std@@QAEXIV?$_List_unchecked_iterator@V?$_List_val@U?$_List_simple_types@U?$pair@$$CBV?$basic_string@DU?$char_traits@D@std@@V?$allocator@D@2@@std@@V?$shared_ptr@Vlogger@spdlog@@@2@@std@@@std@@@std@@@2@@Z 1001e8a0 f i spdlog:spdlog.cpp.obj
 0001:0001d8a0       ?_Assign_grow@?$_Hash_vec@V?$allocator@V?$_List_unchecked_iterator@V?$_List_val@U?$_List_simple_types@U?$pair@$$CBVSString@@PAVTypeParameter@@@std@@@std@@@std@@@std@@@std@@@std@@QAEXIV?$_List_unchecked_iterator@V?$_List_val@U?$_List_simple_types@U?$pair@$$CBVSString@@PAVTypeParameter@@@std@@@std@@@std@@@2@@Z 1001e8a0 f i colorer:FileTypeImpl.cpp.obj
 0001:0001d8a0       ?_Assign_grow@?$_Hash_vec@V?$allocator@V?$_List_unchecked_iterator@V?$_List_val@U?$_List_simple_types@U?$pair@$$CBVSString@@PAVString@@@std@@@std@@@std@@@std@@@std@@@std@@QAEXIV?$_List_unchecked_iterator@V?$_List_val@U?$_List_simple_types@U?$pair@$$CBVSString@@PAVString@@@std@@@std@@@std@@@2@@Z 1001e8a0 f i colorer:HRCParserImpl.cpp.obj
 0001:0001d8a0       ?_Assign_grow@?$_Hash_vec@V?$allocator@V?$_List_unchecked_iterator@V?$_List_val@U?$_List_simple_types@U?$pair@$$CBW4level_enum@level@spdlog@@G@std@@@std@@@std@@@std@@@std@@@std@@QAEXIV?$_List_unchecked_iterator@V?$_List_val@U?$_List_simple_types@U?$pair@$$CBW4level_enum@level@spdlog@@G@std@@@std@@@std@@@2@@Z 1001e8a0 f i spdlog:color_sinks.cpp.obj
 0001:0001d8a0       ?_Assign_grow@?$_Hash_vec@V?$allocator@V?$_List_unchecked_iterator@V?$_List_val@U?$_List_simple_types@U?$pair@$$CBVSString@@V?$unique_ptr@V?$vector@V?$unique_ptr@VHRDNode@@U?$default_delete@VHRDNode@@@std@@@std@@V?$allocator@V?$unique_ptr@VHRDNode@@U?$default_delete@VHRDNode@@@std@@@std@@@2@@std@@U?$default_delete@V?$vector@V?$unique_ptr@VHRDNode@@U?$default_delete@VHRDNode@@@std@@@std@@V?$allocator@V?$unique_ptr@VHRDNode@@U?$default_delete@VHRDNode@@@std@@@std@@@2@@std@@@2@@std@@@std@@@std@@@std@@@std@@@std@@@std@@QAEXIV?$_List_unchecked_iterator@V?$_List_val@U?$_List_simple_types@U?$pair@$$CBVSString@@V?$unique_ptr@V?$vector@V?$unique_ptr@VHRDNode@@U?$default_delete@VHRDNode@@@std@@@std@@V?$allocator@V?$unique_ptr@VHRDNode@@U?$default_delete@VHRDNode@@@std@@@std@@@2@@std@@U?$default_delete@V?$vector@V?$unique_ptr@VHRDNode@@U?$default_delete@VHRDNode@@@std@@@std@@V?$allocator@V?$unique_ptr@VHRDNode@@U?$default_delete@VHRDNode@@@std@@@std@@@2@@std@@@2@@std@@@std@@@std@@@std@@@2@@Z 1001e8a0 f i colorer:ParserFactory.cpp.obj
 0001:0001d8a0       ?_Assign_grow@?$_Hash_vec@V?$allocator@V?$_List_unchecked_iterator@V?$_List_val@U?$_List_simple_types@U?$pair@$$CBVSString@@PAVFileTypeImpl@@@std@@@std@@@std@@@std@@@std@@@std@@QAEXIV?$_List_unchecked_iterator@V?$_List_val@U?$_List_simple_types@U?$pair@$$CBVSString@@PAVFileTypeImpl@@@std@@@std@@@std@@@2@@Z 1001e8a0 f i colorer:HRCParserImpl.cpp.obj
 0001:0001d990       ?_Change_array@?$vector@VSString@@V?$allocator@VSString@@@std@@@std@@AAEXQAVSString@@II@Z 1001e990 f i colorer:FileTypeImpl.cpp.obj
 0001:0001da20       ?_Forced_rehash@?$_Hash@V?$_Umap_traits@VSString@@PAVRegionDefine@@V?$_Uhash_compare@VSString@@U?$hash@VSString@@@std@@U?$equal_to@VSString@@@3@@std@@V?$allocator@U?$pair@$$CBVSString@@PAVRegionDefine@@@std@@@4@$0A@@std@@@std@@IAEXI@Z 1001ea20 f i colorer:StyledHRDMapper.cpp.obj
 0001:0001da20       ?_Forced_rehash@?$_Hash@V?$_Umap_traits@VSString@@PAVTypeParameter@@V?$_Uhash_compare@VSString@@U?$hash@VSString@@@std@@U?$equal_to@VSString@@@3@@std@@V?$allocator@U?$pair@$$CBVSString@@PAVTypeParameter@@@std@@@4@$0A@@std@@@std@@IAEXI@Z 1001ea20 f i colorer:FileTypeImpl.cpp.obj
 0001:0001dbd0       ?_Reallocate_exactly@?$vector@VSString@@V?$allocator@VSString@@@std@@@std@@AAEXI@Z 1001ebd0 f i colorer:FileTypeImpl.cpp.obj
 0001:0001dcb0       ?_Umove@?$vector@VSString@@V?$allocator@VSString@@@std@@@std@@AAEPAVSString@@PAV3@00@Z 1001ecb0 f i colorer:FileTypeImpl.cpp.obj
 0001:0001dd70       ?_Umove_if_noexcept@?$vector@VSString@@V?$allocator@VSString@@@std@@@std@@AAEXPAVSString@@00@Z 1001ed70 f i colorer:FileTypeImpl.cpp.obj
 0001:0001dde0       ?addParam@FileTypeImpl@@QAEPAVTypeParameter@@PBVString@@@Z 1001ede0 f   colorer:FileTypeImpl.cpp.obj
 0001:0001dec0       ?allocate@?$allocator@VSString@@@std@@QAEPAVSString@@I@Z 1001eec0 f i colorer:FileTypeImpl.cpp.obj
 0001:0001df20       ?clear@?$_Hash@V?$_Umap_traits@VSString@@PAVRegionDefine@@V?$_Uhash_compare@VSString@@U?$hash@VSString@@@std@@U?$equal_to@VSString@@@3@@std@@V?$allocator@U?$pair@$$CBVSString@@PAVRegionDefine@@@std@@@4@$0A@@std@@@std@@QAEXXZ 1001ef20 f i colorer:StyledHRDMapper.cpp.obj
 0001:0001df20       ?clear@?$_Hash@V?$_Umap_traits@VSString@@PAVTypeParameter@@V?$_Uhash_compare@VSString@@U?$hash@VSString@@@std@@U?$equal_to@VSString@@@3@@std@@V?$allocator@U?$pair@$$CBVSString@@PAVTypeParameter@@@std@@@4@$0A@@std@@@std@@QAEXXZ 1001ef20 f i colorer:FileTypeImpl.cpp.obj
 0001:0001df90       ?enumParams@FileTypeImpl@@UBE?AV?$vector@VSString@@V?$allocator@VSString@@@std@@@std@@XZ 1001ef90 f   colorer:FileTypeImpl.cpp.obj
 0001:0001e050       ?getBaseScheme@FileTypeImpl@@UAEPAVScheme@@XZ 1001f050 f   colorer:FileTypeImpl.cpp.obj
 0001:0001e070       ?getValidatingMemberType@ValidationContextImpl@xercesc_3_2@@UBEPAVDatatypeValidator@2@XZ 1001f070 f i xerces-c_3:ValidationContextImpl.cpp.obj
 0001:0001e070       ?getParameterNames@DOMConfigurationImpl@xercesc_3_2@@UBEPBVDOMStringList@2@XZ 1001f070 f i xerces-c_3:DOMConfigurationImpl.cpp.obj
 0001:0001e070       ?getMemoryManager@?$BaseRefVectorOf@VXMLReader@xercesc_3_2@@@xercesc_3_2@@QBEPAVMemoryManager@2@XZ 1001f070 f i xerces-c_3:ReaderMgr.cpp.obj
 0001:0001e070       ?getMemoryManager@?$BaseRefVectorOf@VXMLEntityDecl@xercesc_3_2@@@xercesc_3_2@@QBEPAVMemoryManager@2@XZ 1001f070 f i xerces-c_3:ReaderMgr.cpp.obj
 0001:0001e070       ?getFormattedString@XMLBigDecimal@xercesc_3_2@@UBEPB_WXZ 1001f070 f i xerces-c_3:XMLBigDecimal.cpp.obj
 0001:0001e070       ?getTriggeringComponent@XMLSchemaDescriptionImpl@xercesc_3_2@@UBEPBVQName@2@XZ 1001f070 f i xerces-c_3:XMLSchemaDescriptionImpl.cpp.obj
 0001:0001e070       ?getNodeName@DOMNotationImpl@xercesc_3_2@@UBEPB_WXZ 1001f070 f i xerces-c_3:DOMNotationImpl.cpp.obj
 0001:0001e070       ?getRawData@XMLBigDecimal@xercesc_3_2@@UBEPA_WXZ 1001f070 f i xerces-c_3:XMLBigDecimal.cpp.obj
 0001:0001e070       ?getFileType@SchemeImpl@@UBEPAVFileType@@XZ 1001f070 f i colorer:HRCParserImpl.cpp.obj
 0001:0001e070       ?GetNumberOfVirtualProcessors@SchedulerBase@details@Concurrency@@UBEIXZ 1001f070 f i libconcrt:SchedulerBase.obj
 0001:0001e070       ?getDescription@FileTypeImpl@@UBEPBVString@@XZ 1001f070 f i colorer:FileTypeImpl.cpp.obj
 0001:0001e070       ?getType@DOMErrorImpl@xercesc_3_2@@UBEPB_WXZ 1001f070 f i xerces-c_3:DOMErrorImpl.cpp.obj
 0001:0001e070       ?getFilter@DOMLSSerializerImpl@xercesc_3_2@@UBEPAVDOMLSSerializerFilter@2@XZ 1001f070 f i xerces-c_3:DOMLSSerializerImpl.cpp.obj
 0001:0001e070       ?getMemoryManager@?$BaseRefVectorOf@VDOMBuffer@xercesc_3_2@@@xercesc_3_2@@QBEPAVMemoryManager@2@XZ 1001f070 f i xerces-c_3:DOMDocumentImpl.cpp.obj
 0001:0001e070       ?getData@ModifierOp@xercesc_3_2@@UBEHXZ 1001f070 f i xerces-c_3:Op.cpp.obj
 0001:0001e070       ?getGrammar@DTDValidator@xercesc_3_2@@UBEPAVGrammar@2@XZ 1001f070 f i xerces-c_3:DTDValidator.cpp.obj
 0001:0001e070       ?getSystemId@DOMLSInputImpl@xercesc_3_2@@UBEPB_WXZ 1001f070 f i xerces-c_3:DOMLSInputImpl.cpp.obj
 0001:0001e070       ?getFilter@DOMLSParserImpl@xercesc_3_2@@UBEPBVDOMLSParserFilter@2@XZ 1001f070 f i xerces-c_3:DOMLSParserImpl.cpp.obj
 0001:0001e080       ?getCurrentNode@DOMTreeWalkerImpl@xercesc_3_2@@UAEPAVDOMNode@2@XZ 1001f080 f i xerces-c_3:DOMTreeWalkerImpl.cpp.obj
 0001:0001e080       ?getFirstChild@DOMParentNode@xercesc_3_2@@QBEPAVDOMNode@2@XZ 1001f080 f i xerces-c_3:DOMParentNode.cpp.obj
 0001:0001e080       ?getChar@CharToken@xercesc_3_2@@UBEHXZ 1001f080 f i xerces-c_3:CharToken.cpp.obj
 0001:0001e080       ?getEncoding@DOMLSInputImpl@xercesc_3_2@@UBEPB_WXZ 1001f080 f i xerces-c_3:DOMLSInputImpl.cpp.obj
 0001:0001e080       ?getEntityDeclPool@ValidationContextImpl@xercesc_3_2@@UBEPBV?$NameIdPool@VDTDEntityDecl@xercesc_3_2@@@2@XZ 1001f080 f i xerces-c_3:ValidationContextImpl.cpp.obj
 0001:0001e080       ?getTargetNamespace@XMLSchemaDescriptionImpl@xercesc_3_2@@UBEPB_WXZ 1001f080 f i xerces-c_3:XMLSchemaDescriptionImpl.cpp.obj
 0001:0001e080       ?getSystemId@DOMLSOutputImpl@xercesc_3_2@@UBEPB_WXZ 1001f080 f i xerces-c_3:DOMLSOutputImpl.cpp.obj
 0001:0001e080       ?getNoParen@ParenToken@xercesc_3_2@@UBEHXZ 1001f080 f i xerces-c_3:ParenToken.cpp.obj
 0001:0001e080       ?getNewLine@DOMLSSerializerImpl@xercesc_3_2@@UBEPB_WXZ 1001f080 f i xerces-c_3:DOMLSSerializerImpl.cpp.obj
 0001:0001e080       ?getScale@XMLBigDecimal@xercesc_3_2@@QBEIXZ 1001f080 f i xerces-c_3:DecimalDatatypeValidator.cpp.obj
 0001:0001e080       ?getMessage@DOMErrorImpl@xercesc_3_2@@UBEPB_WXZ 1001f080 f i xerces-c_3:DOMErrorImpl.cpp.obj
 0001:0001e080       ?getMemoryManager@XMLTranscoder@xercesc_3_2@@QBEPAVMemoryManager@2@XZ 1001f080 f i xerces-c_3:Win32TransService.cpp.obj
 0001:0001e080       ?GetId@InternalContextBase@details@Concurrency@@UBEIXZ 1001f080 f i libconcrt:InternalContextBase.obj
 0001:0001e080       ?getKey@XMLNotationDecl@xercesc_3_2@@QBEPB_WXZ 1001f080 f i xerces-c_3:DTDGrammar.cpp.obj
 0001:0001e080       ?getMin@ClosureToken@xercesc_3_2@@UBEHXZ 1001f080 f i xerces-c_3:ClosureToken.cpp.obj
 0001:0001e080       ?getPublicId@InputSource@xercesc_3_2@@UBEPB_WXZ 1001f080 f i colorer:LocalFileXmlInputSource.cpp.obj
 0001:0001e080       ?getRootName@XMLDTDDescriptionImpl@xercesc_3_2@@UBEPB_WXZ 1001f080 f i xerces-c_3:XMLDTDDescriptionImpl.cpp.obj
 0001:0001e080       ?getWhatToShow@DOMNodeIteratorImpl@xercesc_3_2@@UAEKXZ 1001f080 f i xerces-c_3:DOMNodeIteratorImpl.cpp.obj
 0001:0001e080       ?getParent@Region@@UBEPBV1@XZ 1001f080 f i colorer:HRCParserImpl.cpp.obj
 0001:0001e080       ?getReferenceNo@StringToken@xercesc_3_2@@UBEHXZ 1001f080 f i xerces-c_3:StringToken.cpp.obj
 0001:0001e080       ?getName@FileTypeImpl@@UBEPBVString@@XZ 1001f080 f i colorer:FileTypeImpl.cpp.obj
 0001:0001e080       ?getLeafCount@ContentLeafNameTypeVector@xercesc_3_2@@QBEIXZ 1001f080 f i xerces-c_3:ContentLeafNameTypeVector.cpp.obj
 0001:0001e090       ?getParamCount@FileTypeImpl@@QBEIXZ 1001f090 f   colorer:FileTypeImpl.cpp.obj
 0001:0001e090       ?getNamespaceURI@DOMAttrNSImpl@xercesc_3_2@@UBEPB_WXZ 1001f090 f   xerces-c_3:DOMAttrNSImpl.cpp.obj
 0001:0001e090       ?getSystemId@DOMEntityImpl@xercesc_3_2@@UBEPB_WXZ 1001f090 f   xerces-c_3:DOMEntityImpl.cpp.obj
 0001:0001e0a0       ?getParamDefaultValue@FileTypeImpl@@UBEPBVString@@ABV2@@Z 1001f0a0 f   colorer:FileTypeImpl.cpp.obj
 0001:0001e140       ?getParamDescription@FileTypeImpl@@UBEPBVString@@ABV2@@Z 1001f140 f   colorer:FileTypeImpl.cpp.obj
 0001:0001e1e0       ?getParamUserValue@FileTypeImpl@@QBEPBVString@@ABV2@@Z 1001f1e0 f   colorer:FileTypeImpl.cpp.obj
 0001:0001e280       ?getParamValue@FileTypeImpl@@UBEPBVString@@ABV2@@Z 1001f280 f   colorer:FileTypeImpl.cpp.obj
 0001:0001e340       ?getParamValueInt@FileTypeImpl@@UBEHABVString@@H@Z 1001f340 f   colorer:FileTypeImpl.cpp.obj
 0001:0001e370       ?getPriority@FileTypeImpl@@QBENPBVString@@0@Z 1001f370 f   colorer:FileTypeImpl.cpp.obj
 0001:0001e440       ?setParamDefaultValue@FileTypeImpl@@QAEXABVString@@PBV2@@Z 1001f440 f   colorer:FileTypeImpl.cpp.obj
 0001:0001e510       ?setParamDescription@FileTypeImpl@@QAEXABVString@@PBV2@@Z 1001f510 f   colorer:FileTypeImpl.cpp.obj
 0001:0001e5e0       ?setParamValue@FileTypeImpl@@UAEXABVString@@PBV2@@Z 1001f5e0 f   colorer:FileTypeImpl.cpp.obj
 0001:0001e6c0       ??0String@@QAE@XZ          1001f6c0 f   colorer:String.cpp.obj
 0001:0001e6e0       ??1String@@UAE@XZ          1001f6e0 f   colorer:String.cpp.obj
 0001:0001e700       ??8String@@QBE_NABV0@@Z    1001f700 f   colorer:String.cpp.obj
 0001:0001e780       ??9String@@QBE_NABV0@@Z    1001f780 f   colorer:String.cpp.obj
 0001:0001e800       ??_GString@@UAEPAXI@Z      1001f800 f i colorer:String.cpp.obj
 0001:0001e800       ??_EString@@UAEPAXI@Z      1001f800 f i colorer:String.cpp.obj
 0001:0001e840       ?compareTo@String@@QBEHABV1@@Z 1001f840 f   colorer:String.cpp.obj
 0001:0001e8e0       ?compareToIgnoreCase@String@@QBEHABV1@@Z 1001f8e0 f   colorer:String.cpp.obj
 0001:0001e990       ?equals@String@@QBE_NPBV1@@Z 1001f990 f   colorer:String.cpp.obj
 0001:0001ea20       ?equalsIgnoreCase@String@@QBE_NPBV1@@Z 1001fa20 f   colorer:String.cpp.obj
 0001:0001eaf0       ?getBytes@String@@UBEIPAPAEH@Z 1001faf0 f   colorer:String.cpp.obj
 0001:0001ec50       ?getChars@String@@UBEPBDH@Z 1001fc50 f   colorer:String.cpp.obj
 0001:0001ec80       ?getWChars@String@@UBEIPAPA_W@Z 1001fc80 f   colorer:String.cpp.obj
 0001:0001ecf0       ?getWChars@String@@UBEPB_WXZ 1001fcf0 f   colorer:String.cpp.obj
 0001:0001ed10       ?hashCode@String@@QBEIXZ   1001fd10 f   colorer:String.cpp.obj
 0001:0001ed50       ?indexOf@String@@UBEIABV1@I@Z 1001fd50 f   colorer:String.cpp.obj
 0001:0001ee00       ?indexOf@String@@UBEI_WI@Z 1001fe00 f   colorer:String.cpp.obj
 0001:0001ee50       ?indexOfIgnoreCase@String@@UBEIABV1@I@Z 1001fe50 f   colorer:String.cpp.obj
 0001:0001ef20       ?lastIndexOf@String@@UBEI_WI@Z 1001ff20 f   colorer:String.cpp.obj
 0001:0001ef80       ?startsWith@String@@UBE_NABV1@I@Z 1001ff80 f   colorer:String.cpp.obj
 0001:0001f000       ??0StyledHRDMapper@@QAE@XZ 10020000 f   colorer:StyledHRDMapper.cpp.obj
 0001:0001f0d0       ??1RegionDefine@@UAE@XZ    100200d0 f i colorer:StyledHRDMapper.cpp.obj
 0001:0001f0e0       ??1RegionMapper@@UAE@XZ    100200e0 f i colorer:StyledHRDMapper.cpp.obj
 0001:0001f0f0       ??1RegionMapperImpl@@UAE@XZ 100200f0 f i colorer:StyledHRDMapper.cpp.obj
 0001:0001f160       ??4RegionDefine@@UAEAAV0@ABV0@@Z 10020160 f i colorer:StyledHRDMapper.cpp.obj
 0001:0001f180       ??_GRegionDefine@@UAEPAXI@Z 10020180 f i colorer:StyledHRDMapper.cpp.obj
 0001:0001f180       ??_ERegionDefine@@UAEPAXI@Z 10020180 f i colorer:StyledHRDMapper.cpp.obj
 0001:0001f1b0       ??_ERegionMapper@@UAEPAXI@Z 100201b0 f i colorer:StyledHRDMapper.cpp.obj
 0001:0001f1b0       ??_GRegionMapper@@UAEPAXI@Z 100201b0 f i colorer:StyledHRDMapper.cpp.obj
 0001:0001f1e0       ??_ERegionMapperImpl@@UAEPAXI@Z 100201e0 f i colorer:StyledHRDMapper.cpp.obj
 0001:0001f1e0       ??_GRegionMapperImpl@@UAEPAXI@Z 100201e0 f i colorer:StyledHRDMapper.cpp.obj
 0001:0001f200       ??_EStyledHRDMapper@@UAEPAXI@Z 10020200 f i colorer:StyledHRDMapper.cpp.obj
 0001:0001f200       ??_GStyledHRDMapper@@UAEPAXI@Z 10020200 f i colorer:StyledHRDMapper.cpp.obj
 0001:0001f260       ??_GStyledRegion@@UAEPAXI@Z 10020260 f i colorer:StyledHRDMapper.cpp.obj
 0001:0001f260       ??_EStyledRegion@@UAEPAXI@Z 10020260 f i colorer:StyledHRDMapper.cpp.obj
 0001:0001f290       ?assignParent@StyledRegion@@UAEXPBVRegionDefine@@@Z 10020290 f i colorer:StyledHRDMapper.cpp.obj
 0001:0001f330       ?clone@StyledRegion@@UBEPAVRegionDefine@@XZ 10020330 f i colorer:StyledHRDMapper.cpp.obj
 0001:0001f3d0       ?loadRegionMappings@StyledHRDMapper@@UAEXPAVXmlInputSource@@@Z 100203d0 f   colorer:StyledHRDMapper.cpp.obj
 0001:0001f830       ?saveRegionMappings@StyledHRDMapper@@UBEXPAVWriter@@@Z 10020830 f   colorer:StyledHRDMapper.cpp.obj
 0001:0001fae0       ?setRegionDefine@StyledHRDMapper@@UAEXABVString@@PBVRegionDefine@@@Z 10020ae0 f   colorer:StyledHRDMapper.cpp.obj
 0001:0001fc60       ?setValues@StyledRegion@@UAEXPBVRegionDefine@@@Z 10020c60 f i colorer:StyledHRDMapper.cpp.obj
 0001:0001fd00       ??$_Emplace_reallocate@PBVHRDNode@@@?$vector@PBVHRDNode@@V?$allocator@PBVHRDNode@@@std@@@std@@QAEPAPBVHRDNode@@QAPBV2@$$QAPBV2@@Z 10020d00 f i colorer:ParserFactory.cpp.obj
 0001:0001fd00       ??$_Emplace_reallocate@PAVSString@@@?$vector@PAVSString@@V?$allocator@PAVSString@@@std@@@std@@QAEPAPAVSString@@QAPAV2@$$QAPAV2@@Z 10020d00 f i colorer:TextLinesStore.cpp.obj
 0001:0001fd00       ??$_Emplace_reallocate@ABQAVFileTypeImpl@@@?$vector@PAVFileTypeImpl@@V?$allocator@PAVFileTypeImpl@@@std@@@std@@QAEPAPAVFileTypeImpl@@QAPAV2@ABQAV2@@Z 10020d00 f i colorer:HRCParserImpl.cpp.obj
 0001:0001fd00       ??$_Emplace_reallocate@ABQAVLineRegion@@@?$vector@PAVLineRegion@@V?$allocator@PAVLineRegion@@@std@@@std@@QAEPAPAVLineRegion@@QAPAV2@ABQAV2@@Z 10020d00 f i colorer:LineRegionsSupport.cpp.obj
 0001:0001fd00       ??$_Emplace_reallocate@ABQBVRegion@@@?$vector@PBVRegion@@V?$allocator@PBVRegion@@@std@@@std@@QAEPAPBVRegion@@QAPBV2@ABQBV2@@Z 10020d00 f i colorer:HRCParserImpl.cpp.obj
 0001:0001fd00       ??$_Emplace_reallocate@PAVOutlineItem@@@?$vector@PAVOutlineItem@@V?$allocator@PAVOutlineItem@@@std@@@std@@QAEPAPAVOutlineItem@@QAPAV2@$$QAPAV2@@Z 10020d00 f i colorer:Outliner.cpp.obj
 0001:0001fd00       ??$_Emplace_reallocate@PAVLineRegion@@@?$vector@PAVLineRegion@@V?$allocator@PAVLineRegion@@@std@@@std@@QAEPAPAVLineRegion@@QAPAV2@$$QAPAV2@@Z 10020d00 f i colorer:LineRegionsSupport.cpp.obj
 0001:0001fdd0       ??$_Emplace_reallocate@V?$unique_ptr@VHRDNode@@U?$default_delete@VHRDNode@@@std@@@std@@@?$vector@V?$unique_ptr@VHRDNode@@U?$default_delete@VHRDNode@@@std@@@std@@V?$allocator@V?$unique_ptr@VHRDNode@@U?$default_delete@VHRDNode@@@std@@@std@@@2@@std@@QAEPAV?$unique_ptr@VHRDNode@@U?$default_delete@VHRDNode@@@std@@@1@QAV21@$$QAV21@@Z 10020dd0 f i colorer:ParserFactory.cpp.obj
 0001:0001ff80       ??$_Emplace_reallocate@VSString@@@?$vector@VSString@@V?$allocator@VSString@@@std@@@std@@QAEPAVSString@@QAV2@$$QAV2@@Z 10020f80 f i colorer:ParserFactory.cpp.obj
 0001:000200f0       ??$_Free_non_head@V?$allocator@U?$_List_node@U?$pair@$$CBVSString@@V?$unique_ptr@V?$vector@V?$unique_ptr@VHRDNode@@U?$default_delete@VHRDNode@@@std@@@std@@V?$allocator@V?$unique_ptr@VHRDNode@@U?$default_delete@VHRDNode@@@std@@@std@@@2@@std@@U?$default_delete@V?$vector@V?$unique_ptr@VHRDNode@@U?$default_delete@VHRDNode@@@std@@@std@@V?$allocator@V?$unique_ptr@VHRDNode@@U?$default_delete@VHRDNode@@@std@@@std@@@2@@std@@@2@@std@@@std@@PAX@std@@@std@@@?$_List_node@U?$pair@$$CBVSString@@V?$unique_ptr@V?$vector@V?$unique_ptr@VHRDNode@@U?$default_delete@VHRDNode@@@std@@@std@@V?$allocator@V?$unique_ptr@VHRDNode@@U?$default_delete@VHRDNode@@@std@@@std@@@2@@std@@U?$default_delete@V?$vector@V?$unique_ptr@VHRDNode@@U?$default_delete@VHRDNode@@@std@@@std@@V?$allocator@V?$unique_ptr@VHRDNode@@U?$default_delete@VHRDNode@@@std@@@std@@@2@@std@@@2@@std@@@std@@PAX@std@@SAXAAV?$allocator@U?$_List_node@U?$pair@$$CBVSString@@V?$unique_ptr@V?$vector@V?$unique_ptr@VHRDNode@@U?$default_delete@VHRDNode@@@std@@@std@@V?$allocator@V?$unique_ptr@VHRDNode@@U?$default_delete@VHRDNode@@@std@@@std@@@2@@std@@U?$default_delete@V?$vector@V?$unique_ptr@VHRDNode@@U?$default_delete@VHRDNode@@@std@@@std@@V?$allocator@V?$unique_ptr@VHRDNode@@U?$default_delete@VHRDNode@@@std@@@std@@@2@@std@@@2@@std@@@std@@PAX@std@@@1@PAU01@@Z 100210f0 f i colorer:ParserFactory.cpp.obj
 0001:00020130       ??$emplace@AAVSString@@V?$unique_ptr@V?$vector@V?$unique_ptr@VHRDNode@@U?$default_delete@VHRDNode@@@std@@@std@@V?$allocator@V?$unique_ptr@VHRDNode@@U?$default_delete@VHRDNode@@@std@@@std@@@2@@std@@U?$default_delete@V?$vector@V?$unique_ptr@VHRDNode@@U?$default_delete@VHRDNode@@@std@@@std@@V?$allocator@V?$unique_ptr@VHRDNode@@U?$default_delete@VHRDNode@@@std@@@std@@@2@@std@@@2@@std@@@?$_Hash@V?$_Umap_traits@VSString@@V?$unique_ptr@V?$vector@V?$unique_ptr@VHRDNode@@U?$default_delete@VHRDNode@@@std@@@std@@V?$allocator@V?$unique_ptr@VHRDNode@@U?$default_delete@VHRDNode@@@std@@@std@@@2@@std@@U?$default_delete@V?$vector@V?$unique_ptr@VHRDNode@@U?$default_delete@VHRDNode@@@std@@@std@@V?$allocator@V?$unique_ptr@VHRDNode@@U?$default_delete@VHRDNode@@@std@@@std@@@2@@std@@@2@@std@@V?$_Uhash_compare@VSString@@U?$hash@VSString@@@std@@U?$equal_to@VSString@@@3@@3@V?$allocator@U?$pair@$$CBVSString@@V?$unique_ptr@V?$vector@V?$unique_ptr@VHRDNode@@U?$default_delete@VHRDNode@@@std@@@std@@V?$allocator@V?$unique_ptr@VHRDNode@@U?$default_delete@VHRDNode@@@std@@@std@@@2@@std@@U?$default_delete@V?$vector@V?$unique_ptr@VHRDNode@@U?$default_delete@VHRDNode@@@std@@@std@@V?$allocator@V?$unique_ptr@VHRDNode@@U?$default_delete@VHRDNode@@@std@@@std@@@2@@std@@@2@@std@@@std@@@3@$0A@@std@@@std@@QAE?AU?$pair@V?$_List_iterator@V?$_List_val@U?$_List_simple_types@U?$pair@$$CBVSString@@V?$unique_ptr@V?$vector@V?$unique_ptr@VHRDNode@@U?$default_delete@VHRDNode@@@std@@@std@@V?$allocator@V?$unique_ptr@VHRDNode@@U?$default_delete@VHRDNode@@@std@@@std@@@2@@std@@U?$default_delete@V?$vector@V?$unique_ptr@VHRDNode@@U?$default_delete@VHRDNode@@@std@@@std@@V?$allocator@V?$unique_ptr@VHRDNode@@U?$default_delete@VHRDNode@@@std@@@std@@@2@@std@@@2@@std@@@std@@@std@@@std@@@std@@_N@1@AAVSString@@$$QAV?$unique_ptr@V?$vector@V?$unique_ptr@VHRDNode@@U?$default_delete@VHRDNode@@@std@@@std@@V?$allocator@V?$unique_ptr@VHRDNode@@U?$default_delete@VHRDNode@@@std@@@std@@@2@@std@@U?$default_delete@V?$vector@V?$unique_ptr@VHRDNode@@U?$default_delete@VHRDNode@@@std@@@std@@V?$allocator@V?$unique_ptr@VHRDNode@@U?$default_delete@VHRDNode@@@std@@@std@@@2@@std@@@2@@1@@Z 10021130 f i colorer:ParserFactory.cpp.obj
 0001:00020320       ??$emplace_back@VSString@@@?$vector@VSString@@V?$allocator@VSString@@@std@@@std@@QAEAAVSString@@$$QAV2@@Z 10021320 f i colorer:ParserFactory.cpp.obj
 0001:000203a0       ??$error@$$BY0ED@D@spdlog@@YAXAAY0ED@$$CBD@Z 100213a0 f i colorer:ParserFactory.cpp.obj
 0001:000203a0       ??$error@$$BY0BA@D@spdlog@@YAXAAY0BA@$$CBD@Z 100213a0 f i colorer:ParserFactory.cpp.obj
 0001:00020460       ??$error@PBD@spdlog@@YAXABQBD@Z 10021460 f i colorer:ParserFactory.cpp.obj
 0001:00020520       ??$log@PBDPBD@logger@spdlog@@QAEXUsource_loc@1@W4level_enum@level@1@V?$basic_string_view@D@v6@fmt@@ABQBD3@Z 10021520 f i colorer:ParserFactory.cpp.obj
 0001:00020770       ??0ParserFactory@@QAE@XZ   10021770 f   colorer:ParserFactory.cpp.obj
 0001:00020880       ??1?$_Hash@V?$_Umap_traits@VSString@@V?$unique_ptr@V?$vector@V?$unique_ptr@VHRDNode@@U?$default_delete@VHRDNode@@@std@@@std@@V?$allocator@V?$unique_ptr@VHRDNode@@U?$default_delete@VHRDNode@@@std@@@std@@@2@@std@@U?$default_delete@V?$vector@V?$unique_ptr@VHRDNode@@U?$default_delete@VHRDNode@@@std@@@std@@V?$allocator@V?$unique_ptr@VHRDNode@@U?$default_delete@VHRDNode@@@std@@@std@@@2@@std@@@2@@std@@V?$_Uhash_compare@VSString@@U?$hash@VSString@@@std@@U?$equal_to@VSString@@@3@@3@V?$allocator@U?$pair@$$CBVSString@@V?$unique_ptr@V?$vector@V?$unique_ptr@VHRDNode@@U?$default_delete@VHRDNode@@@std@@@std@@V?$allocator@V?$unique_ptr@VHRDNode@@U?$default_delete@VHRDNode@@@std@@@std@@@2@@std@@U?$default_delete@V?$vector@V?$unique_ptr@VHRDNode@@U?$default_delete@VHRDNode@@@std@@@std@@V?$allocator@V?$unique_ptr@VHRDNode@@U?$default_delete@VHRDNode@@@std@@@std@@@2@@std@@@2@@std@@@std@@@3@$0A@@std@@@std@@QAE@XZ 10021880 f i colorer:ParserFactory.cpp.obj
 0001:000208f0       ??1?$_List_node_emplace_op2@V?$allocator@U?$_List_node@U?$pair@$$CBVSString@@V?$unique_ptr@V?$vector@V?$unique_ptr@VHRDNode@@U?$default_delete@VHRDNode@@@std@@@std@@V?$allocator@V?$unique_ptr@VHRDNode@@U?$default_delete@VHRDNode@@@std@@@std@@@2@@std@@U?$default_delete@V?$vector@V?$unique_ptr@VHRDNode@@U?$default_delete@VHRDNode@@@std@@@std@@V?$allocator@V?$unique_ptr@VHRDNode@@U?$default_delete@VHRDNode@@@std@@@std@@@2@@std@@@2@@std@@@std@@PAX@std@@@std@@@std@@QAE@XZ 100218f0 f i colorer:ParserFactory.cpp.obj
 0001:00020930       ??1?$list@U?$pair@$$CBVSString@@V?$unique_ptr@V?$vector@V?$unique_ptr@VHRDNode@@U?$default_delete@VHRDNode@@@std@@@std@@V?$allocator@V?$unique_ptr@VHRDNode@@U?$default_delete@VHRDNode@@@std@@@std@@@2@@std@@U?$default_delete@V?$vector@V?$unique_ptr@VHRDNode@@U?$default_delete@VHRDNode@@@std@@@std@@V?$allocator@V?$unique_ptr@VHRDNode@@U?$default_delete@VHRDNode@@@std@@@std@@@2@@std@@@2@@std@@@std@@V?$allocator@U?$pair@$$CBVSString@@V?$unique_ptr@V?$vector@V?$unique_ptr@VHRDNode@@U?$default_delete@VHRDNode@@@std@@@std@@V?$allocator@V?$unique_ptr@VHRDNode@@U?$default_delete@VHRDNode@@@std@@@std@@@2@@std@@U?$default_delete@V?$vector@V?$unique_ptr@VHRDNode@@U?$default_delete@VHRDNode@@@std@@@std@@V?$allocator@V?$unique_ptr@VHRDNode@@U?$default_delete@VHRDNode@@@std@@@std@@@2@@std@@@2@@std@@@std@@@2@@std@@QAE@XZ 10021930 f i colorer:ParserFactory.cpp.obj
 0001:00020950       ??1?$list@V?$unique_ptr@VHRDNode@@U?$default_delete@VHRDNode@@@std@@@std@@V?$allocator@V?$unique_ptr@VHRDNode@@U?$default_delete@VHRDNode@@@std@@@std@@@2@@std@@QAE@XZ 10021950 f i colorer:ParserFactory.cpp.obj
 0001:000209a0       ??1?$unique_ptr@V?$vector@V?$unique_ptr@VHRDNode@@U?$default_delete@VHRDNode@@@std@@@std@@V?$allocator@V?$unique_ptr@VHRDNode@@U?$default_delete@VHRDNode@@@std@@@std@@@2@@std@@U?$default_delete@V?$vector@V?$unique_ptr@VHRDNode@@U?$default_delete@VHRDNode@@@std@@@std@@V?$allocator@V?$unique_ptr@VHRDNode@@U?$default_delete@VHRDNode@@@std@@@std@@@2@@std@@@2@@std@@QAE@XZ 100219a0 f i colorer:ParserFactory.cpp.obj
 0001:00020a20       ??1?$unordered_map@VSString@@V?$unique_ptr@V?$vector@V?$unique_ptr@VHRDNode@@U?$default_delete@VHRDNode@@@std@@@std@@V?$allocator@V?$unique_ptr@VHRDNode@@U?$default_delete@VHRDNode@@@std@@@std@@@2@@std@@U?$default_delete@V?$vector@V?$unique_ptr@VHRDNode@@U?$default_delete@VHRDNode@@@std@@@std@@V?$allocator@V?$unique_ptr@VHRDNode@@U?$default_delete@VHRDNode@@@std@@@std@@@2@@std@@@2@@std@@U?$hash@VSString@@@3@U?$equal_to@VSString@@@3@V?$allocator@U?$pair@$$CBVSString@@V?$unique_ptr@V?$vector@V?$unique_ptr@VHRDNode@@U?$default_delete@VHRDNode@@@std@@@std@@V?$allocator@V?$unique_ptr@VHRDNode@@U?$default_delete@VHRDNode@@@std@@@std@@@2@@std@@U?$default_delete@V?$vector@V?$unique_ptr@VHRDNode@@U?$default_delete@VHRDNode@@@std@@@std@@V?$allocator@V?$unique_ptr@VHRDNode@@U?$default_delete@VHRDNode@@@std@@@std@@@2@@std@@@2@@std@@@std@@@3@@std@@QAE@XZ 10021a20 f i colorer:ParserFactory.cpp.obj
 0001:00020a30       ??1CatalogParser@@QAE@XZ   10021a30 f i colorer:ParserFactory.cpp.obj
 0001:00020a50       ??1_Clear_guard@?$_Hash@V?$_Umap_traits@VSString@@V?$unique_ptr@V?$vector@V?$unique_ptr@VHRDNode@@U?$default_delete@VHRDNode@@@std@@@std@@V?$allocator@V?$unique_ptr@VHRDNode@@U?$default_delete@VHRDNode@@@std@@@std@@@2@@std@@U?$default_delete@V?$vector@V?$unique_ptr@VHRDNode@@U?$default_delete@VHRDNode@@@std@@@std@@V?$allocator@V?$unique_ptr@VHRDNode@@U?$default_delete@VHRDNode@@@std@@@std@@@2@@std@@@2@@std@@V?$_Uhash_compare@VSString@@U?$hash@VSString@@@std@@U?$equal_to@VSString@@@3@@3@V?$allocator@U?$pair@$$CBVSString@@V?$unique_ptr@V?$vector@V?$unique_ptr@VHRDNode@@U?$default_delete@VHRDNode@@@std@@@std@@V?$allocator@V?$unique_ptr@VHRDNode@@U?$default_delete@VHRDNode@@@std@@@std@@@2@@std@@U?$default_delete@V?$vector@V?$unique_ptr@VHRDNode@@U?$default_delete@VHRDNode@@@std@@@std@@V?$allocator@V?$unique_ptr@VHRDNode@@U?$default_delete@VHRDNode@@@std@@@std@@@2@@std@@@2@@std@@@std@@@3@$0A@@std@@@std@@QAE@XZ 10021a50 f i colorer:ParserFactory.cpp.obj
 0001:00020a60       ??4SString@@QAEAAV0@$$QAV0@@Z 10021a60 f i colorer:ParserFactory.cpp.obj
 0001:00020ad0       ??_GParserFactory@@UAEPAXI@Z 10021ad0 f i colorer:ParserFactory.cpp.obj
 0001:00020ad0       ??_EParserFactory@@UAEPAXI@Z 10021ad0 f i colorer:ParserFactory.cpp.obj
 0001:00020b30       ?_Forced_rehash@?$_Hash@V?$_Umap_traits@VSString@@V?$unique_ptr@V?$vector@V?$unique_ptr@VHRDNode@@U?$default_delete@VHRDNode@@@std@@@std@@V?$allocator@V?$unique_ptr@VHRDNode@@U?$default_delete@VHRDNode@@@std@@@std@@@2@@std@@U?$default_delete@V?$vector@V?$unique_ptr@VHRDNode@@U?$default_delete@VHRDNode@@@std@@@std@@V?$allocator@V?$unique_ptr@VHRDNode@@U?$default_delete@VHRDNode@@@std@@@std@@@2@@std@@@2@@std@@V?$_Uhash_compare@VSString@@U?$hash@VSString@@@std@@U?$equal_to@VSString@@@3@@3@V?$allocator@U?$pair@$$CBVSString@@V?$unique_ptr@V?$vector@V?$unique_ptr@VHRDNode@@U?$default_delete@VHRDNode@@@std@@@std@@V?$allocator@V?$unique_ptr@VHRDNode@@U?$default_delete@VHRDNode@@@std@@@std@@@2@@std@@U?$default_delete@V?$vector@V?$unique_ptr@VHRDNode@@U?$default_delete@VHRDNode@@@std@@@std@@V?$allocator@V?$unique_ptr@VHRDNode@@U?$default_delete@VHRDNode@@@std@@@std@@@2@@std@@@2@@std@@@std@@@3@$0A@@std@@@std@@IAEXI@Z 10021b30 f i colorer:ParserFactory.cpp.obj
 0001:00020ce0       ?_Reallocate_exactly@?$vector@PBVRegion@@V?$allocator@PBVRegion@@@std@@@std@@AAEXI@Z 10021ce0 f i colorer:HRCParserImpl.cpp.obj
 0001:00020ce0       ?_Reallocate_exactly@?$vector@PAVSString@@V?$allocator@PAVSString@@@std@@@std@@AAEXI@Z 10021ce0 f i colorer:TextLinesStore.cpp.obj
 0001:00020ce0       ?_Reallocate_exactly@?$vector@PAVFileTypeImpl@@V?$allocator@PAVFileTypeImpl@@@std@@@std@@AAEXI@Z 10021ce0 f i colorer:HRCParserImpl.cpp.obj
 0001:00020ce0       ?_Reallocate_exactly@?$vector@PBVHRDNode@@V?$allocator@PBVHRDNode@@@std@@@std@@AAEXI@Z 10021ce0 f i colorer:ParserFactory.cpp.obj
 0001:00020d60       ?addHrd@ParserFactory@@QAEXV?$unique_ptr@VHRDNode@@U?$default_delete@VHRDNode@@@std@@@std@@@Z 10021d60 f   colorer:ParserFactory.cpp.obj
 0001:00020ed0       ?clear@?$_Hash@V?$_Umap_traits@VSString@@V?$unique_ptr@V?$vector@V?$unique_ptr@VHRDNode@@U?$default_delete@VHRDNode@@@std@@@std@@V?$allocator@V?$unique_ptr@VHRDNode@@U?$default_delete@VHRDNode@@@std@@@std@@@2@@std@@U?$default_delete@V?$vector@V?$unique_ptr@VHRDNode@@U?$default_delete@VHRDNode@@@std@@@std@@V?$allocator@V?$unique_ptr@VHRDNode@@U?$default_delete@VHRDNode@@@std@@@std@@@2@@std@@@2@@std@@V?$_Uhash_compare@VSString@@U?$hash@VSString@@@std@@U?$equal_to@VSString@@@3@@3@V?$allocator@U?$pair@$$CBVSString@@V?$unique_ptr@V?$vector@V?$unique_ptr@VHRDNode@@U?$default_delete@VHRDNode@@@std@@@std@@V?$allocator@V?$unique_ptr@VHRDNode@@U?$default_delete@VHRDNode@@@std@@@std@@@2@@std@@U?$default_delete@V?$vector@V?$unique_ptr@VHRDNode@@U?$default_delete@VHRDNode@@@std@@@std@@V?$allocator@V?$unique_ptr@VHRDNode@@U?$default_delete@VHRDNode@@@std@@@std@@@2@@std@@@2@@std@@@std@@@3@$0A@@std@@@std@@QAEXXZ 10021ed0 f i colorer:ParserFactory.cpp.obj
 0001:00020f20       ?createStyledMapper@ParserFactory@@QAEPAVStyledHRDMapper@@PBVString@@0@Z 10021f20 f   colorer:ParserFactory.cpp.obj
 0001:00021170       ?createTextParser@ParserFactory@@QAEPAVTextParser@@XZ 10022170 f   colorer:ParserFactory.cpp.obj
 0001:000211e0       ?enumHRDInstances@ParserFactory@@QAE?AV?$vector@PBVHRDNode@@V?$allocator@PBVHRDNode@@@std@@@std@@ABVString@@@Z 100221e0 f   colorer:ParserFactory.cpp.obj
 0001:00021300       ?GetId@VirtualProcessorRoot@details@Concurrency@@UBEIXZ 10022300 f   libconcrt:VirtualProcessorRoot.obj
 0001:00021300       ?getElements@DOMDocumentTypeImpl@xercesc_3_2@@UBEPAVDOMNamedNodeMap@2@XZ 10022300 f   xerces-c_3:DOMDocumentTypeImpl.cpp.obj
 0001:00021300       ?getMaxInclusive@AbstractNumericFacetValidator@xercesc_3_2@@QBEPAVXMLNumber@2@XZ 10022300 f   xerces-c_3:AbstractNumericFacetValidator.cpp.obj
 0001:00021300       ?getMemoryManager@AbstractDOMParser@xercesc_3_2@@IBEPAVMemoryManager@2@XZ 10022300 f   xerces-c_3:XercesDOMParser.cpp.obj
 0001:00021300       ?getHRCParser@ParserFactory@@QBEPAVHRCParser@@XZ 10022300 f   colorer:ParserFactory.cpp.obj
 0001:00021300       ?getFirstLine@LineRegionsSupport@@QAEIXZ 10022300 f   colorer:LineRegionsSupport.cpp.obj
 0001:00021300       ?getMinLength@AbstractStringValidator@xercesc_3_2@@QBEIXZ 10022300 f   xerces-c_3:ListDatatypeValidator.cpp.obj
 0001:00021300       ?getNamespaceURI@DOMElementNSImpl@xercesc_3_2@@UBEPB_WXZ 10022300 f   xerces-c_3:DOMElementNSImpl.cpp.obj
 0001:00021300       ?getXmlEncoding@DOMEntityImpl@xercesc_3_2@@UBEPB_WXZ 10022300 f   xerces-c_3:DOMEntityImpl.cpp.obj
 0001:00021310       ?getHRDNode@ParserFactory@@QAEPBVHRDNode@@ABVString@@0@Z 10022310 f   colorer:ParserFactory.cpp.obj
 0001:00021460       ?getPossibleCatalogPaths@ParserFactory@@ABEXAAV?$vector@VSString@@V?$allocator@VSString@@@std@@@std@@@Z 10022460 f   colorer:ParserFactory.cpp.obj
 0001:00021750       ?loadCatalog@ParserFactory@@QAEXPBVString@@@Z 10022750 f   colorer:ParserFactory.cpp.obj
 0001:00021b50       ?loadHrc@ParserFactory@@ABEXPBVString@@0@Z 10022b50 f   colorer:ParserFactory.cpp.obj
 0001:00021c70       ?parseCatalog@ParserFactory@@AAEXABVSString@@@Z 10022c70 f   colorer:ParserFactory.cpp.obj
 0001:00021ea0       ?searchCatalog@ParserFactory@@ABE?AVSString@@XZ 10022ea0 f   colorer:ParserFactory.cpp.obj
 0001:00022270       ?getCategory@Character@@SA?AW4ECharCategory@@_W@Z 10023270 f   colorer:Character.cpp.obj
 0001:000222a0       ?isDigit@Character@@SA_N_W@Z 100232a0 f   colorer:Character.cpp.obj
 0001:000222d0       ?isLetter@Character@@SA_N_W@Z 100232d0 f   colorer:Character.cpp.obj
 0001:00022300       ?isLetterOrDigit@Character@@SA_N_W@Z 10023300 f   colorer:Character.cpp.obj
 0001:00022330       ?isLowerCase@Character@@SA_N_W@Z 10023330 f   colorer:Character.cpp.obj
 0001:00022360       ?isUpperCase@Character@@SA_N_W@Z 10023360 f   colorer:Character.cpp.obj
 0001:00022390       ?isWhitespace@Character@@SA_N_W@Z 10023390 f   colorer:Character.cpp.obj
 0001:000223e0       ?toLowerCase@Character@@SA_W_W@Z 100233e0 f   colorer:Character.cpp.obj
 0001:00022430       ?toTitleCase@Character@@SA_W_W@Z 10023430 f   colorer:Character.cpp.obj
 0001:00022490       ?toUpperCase@Character@@SA_W_W@Z 10023490 f   colorer:Character.cpp.obj
 0001:000224e0       ??$_Emplace_reallocate@ABH@?$vector@HV?$allocator@H@std@@@std@@QAEPAHQAHABH@Z 100234e0 f i colorer:Outliner.cpp.obj
 0001:000224e0       ??$_Emplace_reallocate@ABQAVEditorListener@@@?$vector@PAVEditorListener@@V?$allocator@PAVEditorListener@@@std@@@std@@QAEPAPAVEditorListener@@QAPAV2@ABQAV2@@Z 100234e0 f i colorer:BaseEditor.cpp.obj
 0001:000224e0       ??$_Emplace_reallocate@ABQAVRegionHandler@@@?$vector@PAVRegionHandler@@V?$allocator@PAVRegionHandler@@@std@@@std@@QAEPAPAVRegionHandler@@QAPAV2@ABQAV2@@Z 100234e0 f i colorer:BaseEditor.cpp.obj
 0001:000224e0       ??$_Emplace_reallocate@ABQAVFileTypeChooser@@@?$vector@PAVFileTypeChooser@@V?$allocator@PAVFileTypeChooser@@@std@@@std@@QAEPAPAVFileTypeChooser@@QAPAV2@ABQAV2@@Z 100234e0 f i colorer:HRCParserImpl.cpp.obj
 0001:000224e0       ??$_Emplace_reallocate@PAVVirtualEntry@@@?$vector@PAVVirtualEntry@@V?$allocator@PAVVirtualEntry@@@std@@@std@@QAEPAPAVVirtualEntry@@QAPAV2@$$QAPAV2@@Z 100234e0 f i colorer:HRCParserImpl.cpp.obj
 0001:000224e0       ??$_Emplace_reallocate@ABQAVSchemeNode@@@?$vector@PAVSchemeNode@@V?$allocator@PAVSchemeNode@@@std@@@std@@QAEPAPAVSchemeNode@@QAPAV2@ABQAV2@@Z 100234e0 f i colorer:HRCParserImpl.cpp.obj
 0001:00022640       ??$_Resize_reallocate@U_Value_init_tag@std@@@?$vector@PAVOutlineItem@@V?$allocator@PAVOutlineItem@@@std@@@std@@AAEXIABU_Value_init_tag@1@@Z 10023640 f i colorer:Outliner.cpp.obj
 0001:00022640       ??$_Resize_reallocate@U_Value_init_tag@std@@@?$vector@PBVRegionDefine@@V?$allocator@PBVRegionDefine@@@std@@@std@@AAEXIABU_Value_init_tag@1@@Z 10023640 f i colorer:RegionMapperImpl.cpp.obj
 0001:00022640       ??$_Resize_reallocate@U_Value_init_tag@std@@@?$vector@PAVLineRegion@@V?$allocator@PAVLineRegion@@@std@@@std@@AAEXIABU_Value_init_tag@1@@Z 10023640 f i colorer:LineRegionsSupport.cpp.obj
 0001:000226d0       ??0Outliner@@QAE@PAVBaseEditor@@PBVRegion@@@Z 100236d0 f   colorer:Outliner.cpp.obj
 0001:00022770       ??1RegionHandler@@MAE@XZ   10023770 f i colorer:Outliner.cpp.obj
 0001:00022780       ??_GOutliner@@UAEPAXI@Z    10023780 f i colorer:Outliner.cpp.obj
 0001:00022780       ??_EOutliner@@UAEPAXI@Z    10023780 f i colorer:Outliner.cpp.obj
 0001:00022890       ??_ERegionHandler@@MAEPAXI@Z 10023890 f i colorer:Outliner.cpp.obj
 0001:00022890       ??_GRegionHandler@@MAEPAXI@Z 10023890 f i colorer:Outliner.cpp.obj
 0001:000228c0       ?addRegion@Outliner@@UAEXIPAVString@@HHPBVRegion@@@Z 100238c0 f   colorer:Outliner.cpp.obj
 0001:00022a50       ?clearLine@Outliner@@UAEXIPAVString@@@Z 10023a50 f   colorer:Outliner.cpp.obj
 0001:00022a60       ?endParsing@Outliner@@UAEXI@Z 10023a60 f   colorer:Outliner.cpp.obj
 0001:00022a80       ?enterScheme@Outliner@@UAEXIPAVString@@HHPBVRegion@@PBVScheme@@@Z 10023a80 f   colorer:Outliner.cpp.obj
 0001:00022a90       ?getItem@Outliner@@QAEPAVOutlineItem@@I@Z 10023a90 f   colorer:Outliner.cpp.obj
 0001:00022ab0       ?itemCount@Outliner@@QAEIXZ 10023ab0 f   colorer:Outliner.cpp.obj
 0001:00022ac0       ?leaveScheme@Outliner@@UAEXIPAVString@@HHPBVRegion@@PBVScheme@@@Z 10023ac0 f   colorer:Outliner.cpp.obj
 0001:00022ad0       ?manageTree@Outliner@@SAHAAV?$vector@HV?$allocator@H@std@@@std@@H@Z 10023ad0 f   colorer:Outliner.cpp.obj
 0001:00022b60       ?modifyEvent@Outliner@@UAEXI@Z 10023b60 f   colorer:Outliner.cpp.obj
 0001:00022c20       ?startParsing@Outliner@@UAEXI@Z 10023c20 f   colorer:Outliner.cpp.obj
 0001:00022c30       ??$log@H@logger@spdlog@@QAEXUsource_loc@1@W4level_enum@level@1@V?$basic_string_view@D@v6@fmt@@ABH@Z 10023c30 f i colorer:BaseEditor.cpp.obj
 0001:00022e80       ??$log@HH@logger@spdlog@@QAEXUsource_loc@1@W4level_enum@level@1@V?$basic_string_view@D@v6@fmt@@ABH3@Z 10023e80 f i colorer:BaseEditor.cpp.obj
 0001:000230d0       ??$log@HHPBD@logger@spdlog@@QAEXUsource_loc@1@W4level_enum@level@1@V?$basic_string_view@D@v6@fmt@@ABH3ABQBD@Z 100240d0 f i colorer:BaseEditor.cpp.obj
 0001:00023330       ??$log@IHH@logger@spdlog@@QAEXUsource_loc@1@W4level_enum@level@1@V?$basic_string_view@D@v6@fmt@@ABIABH4@Z 10024330 f i colorer:BaseEditor.cpp.obj
 0001:00023590       ??0BaseEditor@@QAE@PAVParserFactory@@PAVLineSource@@@Z 10024590 f   colorer:BaseEditor.cpp.obj
 0001:00023910       ??1BaseEditor@@UAE@XZ      10024910 f   colorer:BaseEditor.cpp.obj
 0001:00023a30       ??_GBaseEditor@@UAEPAXI@Z  10024a30 f i colorer:BaseEditor.cpp.obj
 0001:00023a30       ??_EBaseEditor@@UAEPAXI@Z  10024a30 f i colorer:BaseEditor.cpp.obj
 0001:00023b70       ??_GPairMatch@@UAEPAXI@Z   10024b70 f i colorer:BaseEditor.cpp.obj
 0001:00023b70       ??_EPairMatch@@UAEPAXI@Z   10024b70 f i colorer:BaseEditor.cpp.obj
 0001:00023be0       ?addEditorListener@BaseEditor@@QAEXPAVEditorListener@@@Z 10024be0 f   colorer:BaseEditor.cpp.obj
 0001:00023c10       ?addRegion@BaseEditor@@UAEXIPAVString@@HHPBVRegion@@@Z 10024c10 f   colorer:BaseEditor.cpp.obj
 0001:00023c70       ?addRegionHandler@BaseEditor@@QAEXPAVRegionHandler@@@Z 10024c70 f   colorer:BaseEditor.cpp.obj
 0001:00023ca0       ?chooseFileType@BaseEditor@@QAEPAVFileType@@PBVString@@@Z 10024ca0 f   colorer:BaseEditor.cpp.obj
 0001:00023dd0       ?chooseFileTypeCh@BaseEditor@@AAEPAVFileType@@PBVString@@HH@Z 10024dd0 f   colorer:BaseEditor.cpp.obj
 0001:00023f30       ?clearLine@BaseEditor@@UAEXIPAVString@@@Z 10024f30 f   colorer:BaseEditor.cpp.obj
 0001:00023f70       ?endParsing@BaseEditor@@UAEXI@Z 10024f70 f   colorer:BaseEditor.cpp.obj
 0001:00023fb0       ?enterScheme@BaseEditor@@UAEXIPAVString@@HHPBVRegion@@PBVScheme@@@Z 10024fb0 f   colorer:BaseEditor.cpp.obj
 0001:00024010       ?getAttributes@DOMElementImpl@xercesc_3_2@@UBEPAVDOMNamedNodeMap@2@XZ 10025010 f   xerces-c_3:DOMElementImpl.cpp.obj
 0001:00024010       ?getLocalName@DOMAttrNSImpl@xercesc_3_2@@UBEPB_WXZ 10025010 f   xerces-c_3:DOMAttrNSImpl.cpp.obj
 0001:00024010       ?getNodeName@DOMDocumentTypeImpl@xercesc_3_2@@UBEPB_WXZ 10025010 f   xerces-c_3:DOMDocumentTypeImpl.cpp.obj
 0001:00024010       ?getNotationName@DOMEntityImpl@xercesc_3_2@@UBEPB_WXZ 10025010 f   xerces-c_3:DOMEntityImpl.cpp.obj
 0001:00024010       ?getFileType@BaseEditor@@QAEPAVFileType@@XZ 10025010 f   colorer:BaseEditor.cpp.obj
 0001:00024010       ?getNodeName@DOMEntityReferenceImpl@xercesc_3_2@@UBEPB_WXZ 10025010 f   xerces-c_3:DOMEntityReferenceImpl.cpp.obj
 0001:00024010       ?getName@DOMDocumentTypeImpl@xercesc_3_2@@UBEPB_WXZ 10025010 f   xerces-c_3:DOMDocumentTypeImpl.cpp.obj
 0001:00024020       ?getInvalidLine@BaseEditor@@QBEHXZ 10025020 f   colorer:BaseEditor.cpp.obj
 0001:00024030       ?getLineRegions@BaseEditor@@QAEPAVLineRegion@@H@Z 10025030 f   colorer:BaseEditor.cpp.obj
 0001:00024070       ?getPairMatch@BaseEditor@@AAEPAVPairMatch@@HH@Z 10025070 f   colorer:BaseEditor.cpp.obj
 0001:00024290       ?haveInvalidLine@BaseEditor@@QAE_NXZ 10025290 f   colorer:BaseEditor.cpp.obj
 0001:000242a0       ?idleJob@BaseEditor@@QAEXH@Z 100252a0 f   colorer:BaseEditor.cpp.obj
 0001:000242e0       ?leaveScheme@BaseEditor@@UAEXIPAVString@@HHPBVRegion@@PBVScheme@@@Z 100252e0 f   colorer:BaseEditor.cpp.obj
 0001:00024340       ?lineCountEvent@BaseEditor@@QAEXH@Z 10025340 f   colorer:BaseEditor.cpp.obj
 0001:00024390       ?modifyEvent@BaseEditor@@QAEXH@Z 10025390 f   colorer:BaseEditor.cpp.obj
 0001:00024400       ?releasePairMatch@BaseEditor@@QAEXPAVPairMatch@@@Z 10025400 f   colorer:BaseEditor.cpp.obj
 0001:00024420       ?remapLRS@BaseEditor@@AAEX_N@Z 10025420 f   colorer:BaseEditor.cpp.obj
 0001:000245c0       ?removeEditorListener@BaseEditor@@QAEXPAVEditorListener@@@Z 100255c0 f   colorer:BaseEditor.cpp.obj
 0001:00024600       ?removeRegionHandler@BaseEditor@@QAEXPAVRegionHandler@@@Z 10025600 f   colorer:BaseEditor.cpp.obj
 0001:00024640       ?searchGlobalPair@BaseEditor@@QAEPAVPairMatch@@HH@Z 10025640 f   colorer:BaseEditor.cpp.obj
 0001:000247d0       ?searchLocalPair@BaseEditor@@QAEPAVPairMatch@@HH@Z 100257d0 f   colorer:BaseEditor.cpp.obj
 0001:00024970       ?setBackParse@BaseEditor@@QAEXH@Z 10025970 f   colorer:BaseEditor.cpp.obj
 0001:00024980       ?setEnd@PairMatch@@QAEXPAVLineRegion@@@Z 10025980 f i colorer:BaseEditor.cpp.obj
 0001:00024a40       ?setFileType@BaseEditor@@QAEXPAVFileType@@@Z 10025a40 f   colorer:BaseEditor.cpp.obj
 0001:00024ab0       ?setMaxBlockSize@BaseEditor@@QAEXH@Z 10025ab0 f   colorer:BaseEditor.cpp.obj
 0001:00024ac0       ?setRegionMapper@BaseEditor@@QAEXPAVRegionMapper@@@Z 10025ac0 f   colorer:BaseEditor.cpp.obj
 0001:00024af0       ?startParsing@BaseEditor@@UAEXI@Z 10025af0 f   colorer:BaseEditor.cpp.obj
 0001:00024b30       ?validate@BaseEditor@@QAEXH_N@Z 10025b30 f   colorer:BaseEditor.cpp.obj
 0001:00024e10       ?visibleTextEvent@BaseEditor@@QAEXHH@Z 10025e10 f   colorer:BaseEditor.cpp.obj
 0001:00024e60       ??$log@PBDPBDPBD@logger@spdlog@@QAEXUsource_loc@1@W4level_enum@level@1@V?$basic_string_view@D@v6@fmt@@ABQBD33@Z 10025e60 f i colorer:CatalogParser.cpp.obj
 0001:000250c0       ??$warn@$$BY0DB@D@spdlog@@YAXAAY0DB@$$CBD@Z 100260c0 f i colorer:CatalogParser.cpp.obj
 0001:00025180       ??$warn@PBDPBD@spdlog@@YAXV?$basic_string_view@D@v6@fmt@@ABQBD1@Z 10026180 f i colorer:CatalogParser.cpp.obj
 0001:000251c0       ??0CatalogParserException@@QAE@ABV0@@Z 100261c0 f i colorer:CatalogParser.cpp.obj
 0001:000251e0       ??0CatalogParserException@@QAE@ABVString@@@Z 100261e0 f i colorer:CatalogParser.cpp.obj
 0001:00025240       ??1?$_Alloc_construct_ptr@V?$allocator@U?$_List_node@V?$unique_ptr@VHRDNode@@U?$default_delete@VHRDNode@@@std@@@std@@PAX@std@@@std@@@std@@QAE@XZ 10026240 f i colorer:CatalogParser.cpp.obj
 0001:00025260       ??1BaseEntityResolver@@UAE@XZ 10026260 f i colorer:CatalogParser.cpp.obj
 0001:00025270       ??_GBaseEntityResolver@@UAEPAXI@Z 10026270 f i colorer:CatalogParser.cpp.obj
 0001:00025270       ??_EXMLEntityResolver@xercesc_3_2@@UAEPAXI@Z 10026270 f i colorer:CatalogParser.cpp.obj
 0001:00025270       ??_EBaseEntityResolver@@UAEPAXI@Z 10026270 f i colorer:CatalogParser.cpp.obj
 0001:00025270       ??_GXMLEntityResolver@xercesc_3_2@@UAEPAXI@Z 10026270 f i colorer:CatalogParser.cpp.obj
 0001:000252a0       ?addHrcSetsLocation@CatalogParser@@AAEXPBVDOMElement@xercesc_3_2@@@Z 100262a0 f   colorer:CatalogParser.cpp.obj
 0001:00025400       ?parse@CatalogParser@@QAEXPBVString@@@Z 10026400 f   colorer:CatalogParser.cpp.obj
 0001:00025760       ?parseCatalogBlock@CatalogParser@@AAEXPBVDOMElement@xercesc_3_2@@@Z 10026760 f   colorer:CatalogParser.cpp.obj
 0001:00025850       ?parseHRDSetsChild@CatalogParser@@SA?AV?$unique_ptr@VHRDNode@@U?$default_delete@VHRDNode@@@std@@@std@@PBVDOMElement@xercesc_3_2@@@Z 10026850 f   colorer:CatalogParser.cpp.obj
 0001:00025c60       ?parseHrdSetsBlock@CatalogParser@@AAEXPBVDOMElement@xercesc_3_2@@@Z 10026c60 f   colorer:CatalogParser.cpp.obj
 0001:00025e10       ??0TextConsoleViewer@@QAE@PAVBaseEditor@@PAVTextLinesStore@@HH@Z 10026e10 f   colorer:TextConsoleViewer.cpp.obj
 0001:00025e40       ?view@TextConsoleViewer@@QAEXXZ 10026e40 f   colorer:TextConsoleViewer.cpp.obj
 0001:00026530       ??0TextLinesStore@@QAE@XZ  10027530 f   colorer:TextLinesStore.cpp.obj
 0001:00026560       ??1TextLinesStore@@UAE@XZ  10027560 f   colorer:TextLinesStore.cpp.obj
 0001:000265d0       ??_ETextLinesStore@@UAEPAXI@Z 100275d0 f i colorer:TextLinesStore.cpp.obj
 0001:000265d0       ??_GTextLinesStore@@UAEPAXI@Z 100275d0 f i colorer:TextLinesStore.cpp.obj
 0001:00026650       ?freeFile@TextLinesStore@@IAEXXZ 10027650 f   colorer:TextLinesStore.cpp.obj
 0001:000266a0       ?getLine@TextLinesStore@@UAEPAVSString@@I@Z 100276a0 f   colorer:TextLinesStore.cpp.obj
 0001:000266c0       ?getLineCount@TextLinesStore@@QAEIXZ 100276c0 f   colorer:TextLinesStore.cpp.obj
 0001:000266d0       ?loadFile@TextLinesStore@@QAEXPBVString@@0_N@Z 100276d0 f   colorer:TextLinesStore.cpp.obj
 0001:00026a50       ?replaceTabs@TextLinesStore@@AAEXI@Z 10027a50 f   colorer:TextLinesStore.cpp.obj
 0001:00026b40       ??$log@V?$basic_string@DU?$char_traits@D@std@@V?$allocator@D@2@@std@@_K_KV12@@logger@spdlog@@QAEXUsource_loc@1@W4level_enum@level@1@V?$basic_string_view@D@v6@fmt@@ABV?$basic_string@DU?$char_traits@D@std@@V?$allocator@D@2@@std@@AB_K43@Z 10027b40 f i colorer:XmlParserErrorHandler.cpp.obj
 0001:00026dd0       ?error@XmlParserErrorHandler@@UAEXABVSAXParseException@xercesc_3_2@@@Z 10027dd0 f   colorer:XmlParserErrorHandler.cpp.obj
 0001:00026ec0       ?fatalError@XmlParserErrorHandler@@UAEXABVSAXParseException@xercesc_3_2@@@Z 10027ec0 f   colorer:XmlParserErrorHandler.cpp.obj
 0001:00026fb0       ?warning@XmlParserErrorHandler@@UAEXABVSAXParseException@xercesc_3_2@@@Z 10027fb0 f   colorer:XmlParserErrorHandler.cpp.obj
 0001:000270a0       ??0InputSourceException@@QAE@ABV0@@Z 100280a0 f i colorer:XmlInputSource.cpp.obj
 0001:000270c0       ?ExpandEnvironment@XmlInputSource@@SAPA_WPB_W@Z 100280c0 f   colorer:XmlInputSource.cpp.obj
 0001:00027100       ?getAbsolutePath@XmlInputSource@@SA?AV?$unique_ptr@VString@@U?$default_delete@VString@@@std@@@std@@PBVString@@0@Z 10028100 f   colorer:XmlInputSource.cpp.obj
 0001:000271d0       ?getClearPath@XmlInputSource@@SA?AV?$unique_ptr@VString@@U?$default_delete@VString@@@std@@@std@@PBVString@@0@Z 100281d0 f   colorer:XmlInputSource.cpp.obj
 0001:00027500       ?getFileFromDir@XmlInputSource@@SAXPBVString@@AAV?$vector@VSString@@V?$allocator@VSString@@@std@@@std@@@Z 10028500 f   colorer:XmlInputSource.cpp.obj
 0001:00027650       ?isDirectory@XmlInputSource@@SA_NPBVString@@@Z 10028650 f   colorer:XmlInputSource.cpp.obj
 0001:000276e0       ?newInstance@XmlInputSource@@SA?AV?$unique_ptr@VXmlInputSource@@U?$default_delete@VXmlInputSource@@@std@@@std@@PB_W0@Z 100286e0 f   colorer:XmlInputSource.cpp.obj
 0001:00027800       ?newInstance@XmlInputSource@@SA?AV?$unique_ptr@VXmlInputSource@@U?$default_delete@VXmlInputSource@@@std@@@std@@PB_WPAV1@@Z 10028800 f   colorer:XmlInputSource.cpp.obj
 0001:000278f0       ?startsWith@XMLString@xercesc_3_2@@SA_NQB_W0@Z 100288f0 f i colorer:XmlInputSource.cpp.obj
 0001:00027940       ?stringLen@XMLString@xercesc_3_2@@SAIQB_W@Z 10028940 f i colorer:XmlInputSource.cpp.obj
 0001:00027970       ??0Colorer@@QAE@XZ         10028970 f   colorer:Colorer.cpp.obj
 0001:00027990       ??1Colorer@@QAE@XZ         10028990 f   colorer:Colorer.cpp.obj
 0001:000279d0       ??0UnsupportedEncodingException@@QAE@ABVString@@@Z 100289d0 f   colorer:Encodings.cpp.obj
 0001:00027a30       ?getNodeType@DOMCDATASectionImpl@xercesc_3_2@@UBE?AW4NodeType@DOMNode@2@XZ 10028a30 f   xerces-c_3:DOMCDATASectionImpl.cpp.obj
 0001:00027a30       ?getDefaultEncodingIndex@Encodings@@SAHXZ 10028a30 f   colorer:Encodings.cpp.obj
 0001:00027a40       ?getEncodingIndex@Encodings@@SAHPBD@Z 10028a40 f   colorer:Encodings.cpp.obj
 0001:00027a90       ?getEncodingNamesNum@Encodings@@SAHXZ 10028a90 f   colorer:Encodings.cpp.obj
 0001:00027a90       ?getNodeType@DOMCommentImpl@xercesc_3_2@@UBE?AW4NodeType@DOMNode@2@XZ 10028a90 f   xerces-c_3:DOMCommentImpl.cpp.obj
 0001:00027aa0       ?toBytes@Encodings@@SAIH_WPAE@Z 10028aa0 f   colorer:Encodings.cpp.obj
 0001:00027c40       ?toChar@Encodings@@SADH_W@Z 10028c40 f   colorer:Encodings.cpp.obj
 0001:00027c70       ?toWChar@Encodings@@SA_WHD@Z 10028c70 f   colorer:Encodings.cpp.obj
 0001:00027c90       ??0CRegExp@@QAE@PBVString@@@Z 10028c90 f   colorer:cregexp.cpp.obj
 0001:00027ce0       ??0CRegExp@@QAE@XZ         10028ce0 f   colorer:cregexp.cpp.obj
 0001:00027d20       ??0SRegInfo@@QAE@XZ        10028d20 f   colorer:cregexp.cpp.obj
 0001:00027d60       ??1CRegExp@@QAE@XZ         10028d60 f   colorer:cregexp.cpp.obj
 0001:00027da0       ??_GSRegInfo@@QAEPAXI@Z    10028da0 f i colorer:cregexp.cpp.obj
 0001:00027e20       ?checkMetaSymbol@CRegExp@@AAE_NW4EMetaSymbols@@AAH@Z 10028e20 f   colorer:cregexp.cpp.obj
 0001:00028360       ?getBackTrace@CRegExp@@QAE_NPAPBVString@@PAPAUSMatches@@@Z 10029360 f   colorer:cregexp.cpp.obj
 0001:00028380       ?getBracketName@CRegExp@@QAEPAVString@@H@Z 10029380 f   colorer:cregexp.cpp.obj
 0001:000283a0       ?insert_stack@CRegExp@@AAEXPAPAVSRegInfo@@0PAHPA_NHH00H@Z 100293a0 f   colorer:cregexp.cpp.obj
 0001:000284b0       ?isOk@CRegExp@@QAE_NXZ     100294b0 f   colorer:cregexp.cpp.obj
 0001:000284c0       ?isWordBoundary@CRegExp@@AAE_NAAH@Z 100294c0 f   colorer:cregexp.cpp.obj
 0001:00028550       ?lowParse@CRegExp@@AAE_NPAVSRegInfo@@0H@Z 10029550 f   colorer:cregexp.cpp.obj
 0001:000291f0       ?parse@CRegExp@@QAE_NPBVString@@HHPAUSMatches@@HH@Z 1002a1f0 f   colorer:cregexp.cpp.obj
 0001:00029240       ?parse@CRegExp@@QAE_NPBVString@@PAUSMatches@@@Z 1002a240 f   colorer:cregexp.cpp.obj
 0001:00029280       ?parseRE@CRegExp@@AAE_NH@Z 1002a280 f i colorer:cregexp.cpp.obj
 0001:000293a0       ?setBackRE@CRegExp@@QAE_NPAV1@@Z 1002a3a0 f   colorer:cregexp.cpp.obj
 0001:000293b0       ?setBackTrace@CRegExp@@QAE_NPBVString@@PAUSMatches@@@Z 1002a3b0 f   colorer:cregexp.cpp.obj
 0001:000293d0       ?setPositionMoves@CRegExp@@QAE_N_N@Z 1002a3d0 f   colorer:cregexp.cpp.obj
 0001:000293e0       ?setRE@CRegExp@@QAE_NPBVString@@@Z 1002a3e0 f   colorer:cregexp.cpp.obj
 0001:00029400       ?setRELow@CRegExp@@AAE?AW4EError@@ABVString@@@Z 1002a400 f   colorer:cregexp.cpp.obj
 0001:000297b0       ?setStructs@CRegExp@@AAE?AW4EError@@AAPAVSRegInfo@@ABVString@@AAH@Z 1002a7b0 f   colorer:cregexp.cpp.obj
 0001:0002a720       ??$_Emplace_reallocate@PAVSString@@@?$vector@V?$unique_ptr@VString@@U?$default_delete@VString@@@std@@@std@@V?$allocator@V?$unique_ptr@VString@@U?$default_delete@VString@@@std@@@std@@@2@@std@@QAEPAV?$unique_ptr@VString@@U?$default_delete@VString@@@std@@@1@QAV21@$$QAPAVSString@@@Z 1002b720 f i colorer:HRCParserImpl.cpp.obj
 0001:0002a8d0       ??$emplace@AAU?$pair@VSString@@PAVString@@@std@@@?$_Hash@V?$_Umap_traits@VSString@@PAVString@@V?$_Uhash_compare@VSString@@U?$hash@VSString@@@std@@U?$equal_to@VSString@@@3@@std@@V?$allocator@U?$pair@$$CBVSString@@PAVString@@@std@@@4@$0A@@std@@@std@@QAE?AU?$pair@V?$_List_iterator@V?$_List_val@U?$_List_simple_types@U?$pair@$$CBVSString@@PAVString@@@std@@@std@@@std@@@std@@_N@1@AAU?$pair@VSString@@PAVString@@@1@@Z 1002b8d0 f i colorer:HRCParserImpl.cpp.obj
 0001:0002a8d0       ??$emplace@AAU?$pair@VSString@@PAVSharedInputSource@@@std@@@?$_Hash@V?$_Umap_traits@VSString@@PAVSharedInputSource@@V?$_Uhash_compare@VSString@@U?$hash@VSString@@@std@@U?$equal_to@VSString@@@3@@std@@V?$allocator@U?$pair@$$CBVSString@@PAVSharedInputSource@@@std@@@4@$0A@@std@@@std@@QAE?AU?$pair@V?$_List_iterator@V?$_List_val@U?$_List_simple_types@U?$pair@$$CBVSString@@PAVSharedInputSource@@@std@@@std@@@std@@@std@@_N@1@AAU?$pair@VSString@@PAVSharedInputSource@@@1@@Z 1002b8d0 f i colorer:SharedInputSource.cpp.obj
 0001:0002a8d0       ??$emplace@AAU?$pair@VSString@@PBVRegion@@@std@@@?$_Hash@V?$_Umap_traits@VSString@@PBVRegion@@V?$_Uhash_compare@VSString@@U?$hash@VSString@@@std@@U?$equal_to@VSString@@@3@@std@@V?$allocator@U?$pair@$$CBVSString@@PBVRegion@@@std@@@4@$0A@@std@@@std@@QAE?AU?$pair@V?$_List_iterator@V?$_List_val@U?$_List_simple_types@U?$pair@$$CBVSString@@PBVRegion@@@std@@@std@@@std@@@std@@_N@1@AAU?$pair@VSString@@PBVRegion@@@1@@Z 1002b8d0 f i colorer:HRCParserImpl.cpp.obj
 0001:0002a8d0       ??$emplace@AAU?$pair@VSString@@PAVFileTypeImpl@@@std@@@?$_Hash@V?$_Umap_traits@VSString@@PAVFileTypeImpl@@V?$_Uhash_compare@VSString@@U?$hash@VSString@@@std@@U?$equal_to@VSString@@@3@@std@@V?$allocator@U?$pair@$$CBVSString@@PAVFileTypeImpl@@@std@@@4@$0A@@std@@@std@@QAE?AU?$pair@V?$_List_iterator@V?$_List_val@U?$_List_simple_types@U?$pair@$$CBVSString@@PAVFileTypeImpl@@@std@@@std@@@std@@@std@@_N@1@AAU?$pair@VSString@@PAVFileTypeImpl@@@1@@Z 1002b8d0 f i colorer:HRCParserImpl.cpp.obj
 0001:0002a8d0       ??$emplace@AAU?$pair@VSString@@PAVSchemeImpl@@@std@@@?$_Hash@V?$_Umap_traits@VSString@@PAVSchemeImpl@@V?$_Uhash_compare@VSString@@U?$hash@VSString@@@std@@U?$equal_to@VSString@@@3@@std@@V?$allocator@U?$pair@$$CBVSString@@PAVSchemeImpl@@@std@@@4@$0A@@std@@@std@@QAE?AU?$pair@V?$_List_iterator@V?$_List_val@U?$_List_simple_types@U?$pair@$$CBVSString@@PAVSchemeImpl@@@std@@@std@@@std@@@std@@_N@1@AAU?$pair@VSString@@PAVSchemeImpl@@@1@@Z 1002b8d0 f i colorer:HRCParserImpl.cpp.obj
 0001:0002aab0       ??$error@PBDPBD@spdlog@@YAXV?$basic_string_view@D@v6@fmt@@ABQBD1@Z 1002bab0 f i colorer:HRCParserImpl.cpp.obj
 0001:0002aaf0       ??$find@X@?$_Hash@V?$_Umap_traits@VSString@@PAVSchemeImpl@@V?$_Uhash_compare@VSString@@U?$hash@VSString@@@std@@U?$equal_to@VSString@@@3@@std@@V?$allocator@U?$pair@$$CBVSString@@PAVSchemeImpl@@@std@@@4@$0A@@std@@@std@@QAE?AV?$_List_iterator@V?$_List_val@U?$_List_simple_types@U?$pair@$$CBVSString@@PAVSchemeImpl@@@std@@@std@@@std@@@1@ABVSString@@@Z 1002baf0 f i colorer:HRCParserImpl.cpp.obj
 0001:0002ab30       ??$log@V?$basic_string@DU?$char_traits@D@std@@V?$allocator@D@2@@std@@@logger@spdlog@@QAEXUsource_loc@1@W4level_enum@level@1@V?$basic_string_view@D@v6@fmt@@ABV?$basic_string@DU?$char_traits@D@std@@V?$allocator@D@2@@std@@@Z 1002bb30 f i colorer:HRCParserImpl.cpp.obj
 0001:0002ad90       ??$log@V?$basic_string@DU?$char_traits@D@std@@V?$allocator@D@2@@std@@V12@@logger@spdlog@@QAEXUsource_loc@1@W4level_enum@level@1@V?$basic_string_view@D@v6@fmt@@ABV?$basic_string@DU?$char_traits@D@std@@V?$allocator@D@2@@std@@3@Z 1002bd90 f i colorer:HRCParserImpl.cpp.obj
 0001:0002b000       ??$warn@PBD@spdlog@@YAXV?$basic_string_view@D@v6@fmt@@ABQBD@Z 1002c000 f i colorer:HRCParserImpl.cpp.obj
 0001:0002b040       ??0HRCParserException@@QAE@ABV0@@Z 1002c040 f i colorer:HRCParserImpl.cpp.obj
 0001:0002b060       ??0HRCParserException@@QAE@ABVString@@@Z 1002c060 f i colorer:HRCParserImpl.cpp.obj
 0001:0002b0c0       ??0HRCParserImpl@@QAE@XZ   1002c0c0 f   colorer:HRCParserImpl.cpp.obj
 0001:0002b600       ??0KeywordInfo@@QAE@XZ     1002c600 f i colorer:HRCParserImpl.cpp.obj
 0001:0002b610       ??1?$unique_ptr@VKeywordList@@U?$default_delete@VKeywordList@@@std@@@std@@QAE@XZ 1002c610 f i colorer:HRCParserImpl.cpp.obj
 0001:0002b630       ??1?$unordered_map@VSString@@PAVString@@U?$hash@VSString@@@std@@U?$equal_to@VSString@@@4@V?$allocator@U?$pair@$$CBVSString@@PAVString@@@std@@@4@@std@@QAE@XZ 1002c630 f i colorer:HRCParserImpl.cpp.obj
 0001:0002b630       ??1?$unordered_map@VSString@@PAVFileTypeImpl@@U?$hash@VSString@@@std@@U?$equal_to@VSString@@@4@V?$allocator@U?$pair@$$CBVSString@@PAVFileTypeImpl@@@std@@@4@@std@@QAE@XZ 1002c630 f i colorer:HRCParserImpl.cpp.obj
 0001:0002b630       ??1?$unordered_map@VSString@@HU?$hash@VSString@@@std@@U?$equal_to@VSString@@@3@V?$allocator@U?$pair@$$CBVSString@@H@std@@@3@@std@@QAE@XZ 1002c630 f i colorer:HRCParserImpl.cpp.obj
 0001:0002b630       ??1?$unordered_map@VSString@@PAVSchemeImpl@@U?$hash@VSString@@@std@@U?$equal_to@VSString@@@4@V?$allocator@U?$pair@$$CBVSString@@PAVSchemeImpl@@@std@@@4@@std@@QAE@XZ 1002c630 f i colorer:HRCParserImpl.cpp.obj
 0001:0002b630       ??1?$unordered_map@VSString@@PBVRegion@@U?$hash@VSString@@@std@@U?$equal_to@VSString@@@4@V?$allocator@U?$pair@$$CBVSString@@PBVRegion@@@std@@@4@@std@@QAE@XZ 1002c630 f i colorer:HRCParserImpl.cpp.obj
 0001:0002b640       ??1HRCParser@@UAE@XZ       1002c640 f i colorer:HRCParserImpl.cpp.obj
 0001:0002b650       ??1HRCParserImpl@@UAE@XZ   1002c650 f   colorer:HRCParserImpl.cpp.obj
 0001:0002b7c0       ??1Scheme@@MAE@XZ          1002c7c0 f i colorer:HRCParserImpl.cpp.obj
 0001:0002b7d0       ??1_Clear_guard@?$_Hash@V?$_Umap_traits@VSString@@PAVString@@V?$_Uhash_compare@VSString@@U?$hash@VSString@@@std@@U?$equal_to@VSString@@@3@@std@@V?$allocator@U?$pair@$$CBVSString@@PAVString@@@std@@@4@$0A@@std@@@std@@QAE@XZ 1002c7d0 f i colorer:HRCParserImpl.cpp.obj
 0001:0002b7d0       ??1_Clear_guard@?$_Hash@V?$_Umap_traits@VSString@@PAVSharedInputSource@@V?$_Uhash_compare@VSString@@U?$hash@VSString@@@std@@U?$equal_to@VSString@@@3@@std@@V?$allocator@U?$pair@$$CBVSString@@PAVSharedInputSource@@@std@@@4@$0A@@std@@@std@@QAE@XZ 1002c7d0 f i colorer:SharedInputSource.cpp.obj
 0001:0002b7d0       ??1_Clear_guard@?$_Hash@V?$_Umap_traits@VSString@@PBVRegion@@V?$_Uhash_compare@VSString@@U?$hash@VSString@@@std@@U?$equal_to@VSString@@@3@@std@@V?$allocator@U?$pair@$$CBVSString@@PBVRegion@@@std@@@4@$0A@@std@@@std@@QAE@XZ 1002c7d0 f i colorer:HRCParserImpl.cpp.obj
 0001:0002b7d0       ??1_Clear_guard@?$_Hash@V?$_Umap_traits@VSString@@PAVSchemeImpl@@V?$_Uhash_compare@VSString@@U?$hash@VSString@@@std@@U?$equal_to@VSString@@@3@@std@@V?$allocator@U?$pair@$$CBVSString@@PAVSchemeImpl@@@std@@@4@$0A@@std@@@std@@QAE@XZ 1002c7d0 f i colorer:HRCParserImpl.cpp.obj
 0001:0002b7d0       ??1_Clear_guard@?$_Hash@V?$_Umap_traits@VSString@@PAVSharedXmlInputSource@@V?$_Uhash_compare@VSString@@U?$hash@VSString@@@std@@U?$equal_to@VSString@@@3@@std@@V?$allocator@U?$pair@$$CBVSString@@PAVSharedXmlInputSource@@@std@@@4@$0A@@std@@@std@@QAE@XZ 1002c7d0 f i colorer:SharedXmlInputSource.cpp.obj
 0001:0002b7d0       ??1_Clear_guard@?$_Hash@V?$_Umap_traits@VSString@@PAVFileTypeImpl@@V?$_Uhash_compare@VSString@@U?$hash@VSString@@@std@@U?$equal_to@VSString@@@3@@std@@V?$allocator@U?$pair@$$CBVSString@@PAVFileTypeImpl@@@std@@@4@$0A@@std@@@std@@QAE@XZ 1002c7d0 f i colorer:HRCParserImpl.cpp.obj
 0001:0002b840       ??_EHRCParser@@UAEPAXI@Z   1002c840 f i colorer:HRCParserImpl.cpp.obj
 0001:0002b840       ??_GHRCParser@@UAEPAXI@Z   1002c840 f i colorer:HRCParserImpl.cpp.obj
 0001:0002b870       ??_GHRCParserImpl@@UAEPAXI@Z 1002c870 f i colorer:HRCParserImpl.cpp.obj
 0001:0002b870       ??_EHRCParserImpl@@UAEPAXI@Z 1002c870 f i colorer:HRCParserImpl.cpp.obj
 0001:0002b8a0       ??_ERegion@@UAEPAXI@Z      1002c8a0 f i colorer:HRCParserImpl.cpp.obj
 0001:0002b8a0       ??_GRegion@@UAEPAXI@Z      1002c8a0 f i colorer:HRCParserImpl.cpp.obj
 0001:0002b8e0       ??_EScheme@@MAEPAXI@Z      1002c8e0 f i colorer:HRCParserImpl.cpp.obj
 0001:0002b8e0       ??_GScheme@@MAEPAXI@Z      1002c8e0 f i colorer:HRCParserImpl.cpp.obj
 0001:0002b910       ??_GSchemeImpl@@MAEPAXI@Z  1002c910 f i colorer:HRCParserImpl.cpp.obj
 0001:0002b910       ??_ESchemeImpl@@MAEPAXI@Z  1002c910 f i colorer:HRCParserImpl.cpp.obj
 0001:0002b9d0       ?_Forced_rehash@?$_Hash@V?$_Umap_traits@VSString@@PAVSchemeImpl@@V?$_Uhash_compare@VSString@@U?$hash@VSString@@@std@@U?$equal_to@VSString@@@3@@std@@V?$allocator@U?$pair@$$CBVSString@@PAVSchemeImpl@@@std@@@4@$0A@@std@@@std@@IAEXI@Z 1002c9d0 f i colorer:HRCParserImpl.cpp.obj
 0001:0002b9d0       ?_Forced_rehash@?$_Hash@V?$_Umap_traits@VSString@@PAVString@@V?$_Uhash_compare@VSString@@U?$hash@VSString@@@std@@U?$equal_to@VSString@@@3@@std@@V?$allocator@U?$pair@$$CBVSString@@PAVString@@@std@@@4@$0A@@std@@@std@@IAEXI@Z 1002c9d0 f i colorer:HRCParserImpl.cpp.obj
 0001:0002b9d0       ?_Forced_rehash@?$_Hash@V?$_Umap_traits@VSString@@PAVSharedInputSource@@V?$_Uhash_compare@VSString@@U?$hash@VSString@@@std@@U?$equal_to@VSString@@@3@@std@@V?$allocator@U?$pair@$$CBVSString@@PAVSharedInputSource@@@std@@@4@$0A@@std@@@std@@IAEXI@Z 1002c9d0 f i colorer:SharedInputSource.cpp.obj
 0001:0002b9d0       ?_Forced_rehash@?$_Hash@V?$_Umap_traits@VSString@@PAVFileTypeImpl@@V?$_Uhash_compare@VSString@@U?$hash@VSString@@@std@@U?$equal_to@VSString@@@3@@std@@V?$allocator@U?$pair@$$CBVSString@@PAVFileTypeImpl@@@std@@@4@$0A@@std@@@std@@IAEXI@Z 1002c9d0 f i colorer:HRCParserImpl.cpp.obj
 0001:0002b9d0       ?_Forced_rehash@?$_Hash@V?$_Umap_traits@VSString@@PBVRegion@@V?$_Uhash_compare@VSString@@U?$hash@VSString@@@std@@U?$equal_to@VSString@@@3@@std@@V?$allocator@U?$pair@$$CBVSString@@PBVRegion@@@std@@@4@$0A@@std@@@std@@IAEXI@Z 1002c9d0 f i colorer:HRCParserImpl.cpp.obj
 0001:0002b9d0       ?_Forced_rehash@?$_Hash@V?$_Umap_traits@VSString@@PAVSharedXmlInputSource@@V?$_Uhash_compare@VSString@@U?$hash@VSString@@@std@@U?$equal_to@VSString@@@3@@std@@V?$allocator@U?$pair@$$CBVSString@@PAVSharedXmlInputSource@@@std@@@4@$0A@@std@@@std@@IAEXI@Z 1002c9d0 f i colorer:SharedXmlInputSource.cpp.obj
 0001:0002bb80       ?addKeyword@HRCParserImpl@@IAEXPAVSchemeNode@@PBVRegion@@PBVDOMElement@xercesc_3_2@@@Z 1002cb80 f   colorer:HRCParserImpl.cpp.obj
 0001:0002be10       ?addPrototype@HRCParserImpl@@IAEXPBVDOMElement@xercesc_3_2@@@Z 1002ce10 f   colorer:HRCParserImpl.cpp.obj
 0001:0002c1d0       ?addPrototypeDetectParam@HRCParserImpl@@IAEXPBVDOMElement@xercesc_3_2@@@Z 1002d1d0 f   colorer:HRCParserImpl.cpp.obj
 0001:0002c480       ?addPrototypeParameters@HRCParserImpl@@IAEXPBVDOMElement@xercesc_3_2@@@Z 1002d480 f   colorer:HRCParserImpl.cpp.obj
 0001:0002c6f0       ?addScheme@HRCParserImpl@@IAEXPBVDOMElement@xercesc_3_2@@@Z 1002d6f0 f   colorer:HRCParserImpl.cpp.obj
 0001:0002cb40       ?addSchemeBlock@HRCParserImpl@@IAEXPAVSchemeImpl@@PBVDOMElement@xercesc_3_2@@@Z 1002db40 f   colorer:HRCParserImpl.cpp.obj
 0001:0002d220       ?addSchemeInherit@HRCParserImpl@@IAEXPAVSchemeImpl@@PBVDOMElement@xercesc_3_2@@@Z 1002e220 f   colorer:HRCParserImpl.cpp.obj
 0001:0002d630       ?addSchemeKeywords@HRCParserImpl@@IAEXPAVSchemeImpl@@PBVDOMElement@xercesc_3_2@@@Z 1002e630 f   colorer:HRCParserImpl.cpp.obj
 0001:0002da40       ?addSchemeRegexp@HRCParserImpl@@IAEXPAVSchemeImpl@@PBVDOMElement@xercesc_3_2@@@Z 1002ea40 f   colorer:HRCParserImpl.cpp.obj
 0001:0002dd50       ?addType@HRCParserImpl@@IAEXPBVDOMElement@xercesc_3_2@@@Z 1002ed50 f   colorer:HRCParserImpl.cpp.obj
 0001:0002e030       ?addTypeEntity@HRCParserImpl@@IAEXPBVDOMElement@xercesc_3_2@@@Z 1002f030 f   colorer:HRCParserImpl.cpp.obj
 0001:0002e200       ?addTypeImport@HRCParserImpl@@IAEXPBVDOMElement@xercesc_3_2@@@Z 1002f200 f   colorer:HRCParserImpl.cpp.obj
 0001:0002e3b0       ?addTypeRegion@HRCParserImpl@@IAEXPBVDOMElement@xercesc_3_2@@@Z 1002f3b0 f   colorer:HRCParserImpl.cpp.obj
 0001:0002e740       ?checkNameExist@HRCParserImpl@@IAE_NPBVString@@PAVFileTypeImpl@@W4QualifyNameType@1@_N@Z 1002f740 f   colorer:HRCParserImpl.cpp.obj
 0001:0002e9e0       ?chooseFileType@HRCParserImpl@@UAEPAVFileType@@PBVString@@0H@Z 1002f9e0 f   colorer:HRCParserImpl.cpp.obj
 0001:0002ea70       ?enumerateFileTypes@HRCParserImpl@@UAEPAVFileType@@H@Z 1002fa70 f   colorer:HRCParserImpl.cpp.obj
 0001:0002ea90       ?getEncoding@DOMLSOutputImpl@xercesc_3_2@@UBEPB_WXZ 1002fa90 f i xerces-c_3:DOMLSOutputImpl.cpp.obj
 0001:0002ea90       ?getElement@ContentSpecNode@xercesc_3_2@@QBEPBVQName@2@XZ 1002fa90 f i xerces-c_3:ContentSpecNode.cpp.obj
 0001:0002ea90       ?getSystemId@XMLDTDDescriptionImpl@xercesc_3_2@@UBEPB_WXZ 1002fa90 f i xerces-c_3:XMLDTDDescriptionImpl.cpp.obj
 0001:0002ea90       ?getByteStream@DOMLSInputImpl@xercesc_3_2@@UBEPAVInputSource@2@XZ 1002fa90 f i xerces-c_3:DOMLSInputImpl.cpp.obj
 0001:0002ea90       ?getDescription@Region@@UBEPBVString@@XZ 1002fa90 f i colorer:HRCParserImpl.cpp.obj
 0001:0002ea90       ?getLength@PSVIAttributeList@xercesc_3_2@@QBEIXZ 1002fa90 f i xerces-c_3:PSVIAttributeList.cpp.obj
 0001:0002ea90       ?getIdRefList@ValidationContextImpl@xercesc_3_2@@UBEPAV?$RefHashTableOf@VXMLRefInfo@xercesc_3_2@@UStringHasher@2@@2@XZ 1002fa90 f i xerces-c_3:ValidationContextImpl.cpp.obj
 0001:0002ea90       ?getErrorHandler@DOMConfigurationImpl@xercesc_3_2@@QBEPAVDOMErrorHandler@2@XZ 1002fa90 f i xerces-c_3:DOMConfigurationImpl.cpp.obj
 0001:0002ea90       ?getTotalDigit@XMLBigDecimal@xercesc_3_2@@QBEIXZ 1002fa90 f i xerces-c_3:DecimalDatatypeValidator.cpp.obj
 0001:0002ea90       ?getFilter@DOMTreeWalkerImpl@xercesc_3_2@@UAEPAVDOMNodeFilter@2@XZ 1002fa90 f i xerces-c_3:DOMTreeWalkerImpl.cpp.obj
 0001:0002ea90       ?getSeverity@DOMErrorImpl@xercesc_3_2@@UBE?AW4ErrorSeverity@DOMError@2@XZ 1002fa90 f i xerces-c_3:DOMErrorImpl.cpp.obj
 0001:0002ea90       ?getEncodingName@XMLTranscoder@xercesc_3_2@@QBEPB_WXZ 1002fa90 f i xerces-c_3:Win32TransService.cpp.obj
 0001:0002ea90       ?getOwnerDocument@DOMParentNode@xercesc_3_2@@QBEPAVDOMDocument@2@XZ 1002fa90 f i xerces-c_3:DOMParentNode.cpp.obj
 0001:0002ea90       ?GetId@ContextBase@details@Concurrency@@UBEIXZ 1002fa90 f i libconcrt:ContextBase.obj
 0001:0002ea90       ?getContextType@XMLSchemaDescriptionImpl@xercesc_3_2@@UBE?AW4ContextType@XMLSchemaDescription@2@XZ 1002fa90 f i xerces-c_3:XMLSchemaDescriptionImpl.cpp.obj
 0001:0002ea90       ?getEncoding@InputSource@xercesc_3_2@@UBEPB_WXZ 1002fa90 f i colorer:LocalFileXmlInputSource.cpp.obj
 0001:0002eaa0       ?getFileType@HRCParserImpl@@UAEPAVFileType@@PBVString@@@Z 1002faa0 f   colorer:HRCParserImpl.cpp.obj
 0001:0002eb50       ?getFileTypesCount@HRCParserImpl@@UAEIXZ 1002fb50 f   colorer:HRCParserImpl.cpp.obj
 0001:0002eb60       ?getNCRegion@HRCParserImpl@@IAEPBVRegion@@PBVDOMElement@xercesc_3_2@@ABVString@@@Z 1002fb60 f   colorer:HRCParserImpl.cpp.obj
 0001:0002ec00       ?getNCRegion@HRCParserImpl@@IAEPBVRegion@@PBVString@@_N@Z 1002fc00 f   colorer:HRCParserImpl.cpp.obj
 0001:0002ed30       ?getWhatToShow@DOMTreeWalkerImpl@xercesc_3_2@@UAEKXZ 1002fd30 f i xerces-c_3:DOMTreeWalkerImpl.cpp.obj
 0001:0002ed30       ?getMemoryManager@RegxParser@xercesc_3_2@@IBEPAVMemoryManager@2@XZ 1002fd30 f i xerces-c_3:RegxParser.cpp.obj
 0001:0002ed30       ?getStringData@DOMLSInputImpl@xercesc_3_2@@UBEPB_WXZ 1002fd30 f i xerces-c_3:DOMLSInputImpl.cpp.obj
 0001:0002ed30       ?getResultType@DOMXPathResultImpl@xercesc_3_2@@UBE?AW4ResultType@DOMXPathResult@2@XZ 1002fd30 f i xerces-c_3:DOMXPathResultImpl.cpp.obj
 0001:0002ed30       ?getByteStream@DOMLSOutputImpl@xercesc_3_2@@UBEPAVXMLFormatTarget@2@XZ 1002fd30 f i xerces-c_3:DOMLSOutputImpl.cpp.obj
 0001:0002ed30       ?getSign@XMLBigDecimal@xercesc_3_2@@UBEHXZ 1002fd30 f i xerces-c_3:XMLBigDecimal.cpp.obj
 0001:0002ed30       ?GetExecutionResourceTls@?$ThreadProxyFactory@VFreeThreadProxy@details@Concurrency@@@details@Concurrency@@UAEKXZ 1002fd30 f i libconcrt:ThreadProxyFactoryManager.obj
 0001:0002ed30       ?size@?$ValueVectorOf@PAX@xercesc_3_2@@QBEIXZ 1002fd30 f i xerces-c_3:XSerializeEngine.cpp.obj
 0001:0002ed30       ?getMessage@SAXException@xercesc_3_2@@UBEPB_WXZ 1002fd30 f i xerces-c_3:XercesDOMParser.cpp.obj
 0001:0002ed30       ?getMemoryManager@XMLGrammarPool@xercesc_3_2@@QAEPAVMemoryManager@2@XZ 1002fd30 f i xerces-c_3:XMLScanner.cpp.obj
 0001:0002ed30       ?getMemoryManager@XMLAttDefList@xercesc_3_2@@QBEPAVMemoryManager@2@XZ 1002fd30 f i xerces-c_3:ComplexTypeInfo.cpp.obj
 0001:0002ed30       ?getMemoryManager@XMLElementDecl@xercesc_3_2@@QBEPAVMemoryManager@2@XZ 1002fd30 f i xerces-c_3:DTDElementDecl.cpp.obj
 0001:0002ed30       ?getLocation@JARInputSource@@UBEPBVString@@XZ 1002fd30 f i colorer:JARInputSource.cpp.obj
 0001:0002ed30       ?getNextSibling@DOMChildNode@xercesc_3_2@@QBEPAVDOMNode@2@XZ 1002fd30 f i xerces-c_3:DOMChildNode.cpp.obj
 0001:0002ed30       ?getName@SchemeImpl@@UBEPBVString@@XZ 1002fd30 f i colorer:HRCParserImpl.cpp.obj
 0001:0002ed30       ?getName@Region@@UBEPBVString@@XZ 1002fd30 f i colorer:HRCParserImpl.cpp.obj
 0001:0002ed30       ?getLocation@FileInputSource@@UBEPBVString@@XZ 1002fd30 f i colorer:FileInputSource.cpp.obj
 0001:0002ed30       ?getMemoryManager@InputSource@xercesc_3_2@@QBEPAVMemoryManager@2@XZ 1002fd30 f i xerces-c_3:LocalFileInputSource.cpp.obj
 0001:0002ed30       ?getRoot@DOMNodeIteratorImpl@xercesc_3_2@@UAEPAVDOMNode@2@XZ 1002fd30 f i xerces-c_3:DOMNodeIteratorImpl.cpp.obj
 0001:0002ed30       ?getTargetNamespace@SchemaGrammar@xercesc_3_2@@UBEPB_WXZ 1002fd30 f i xerces-c_3:SchemaGrammar.cpp.obj
 0001:0002ed40       ?getRegion@HRCParserImpl@@UAEPBVRegion@@H@Z 1002fd40 f   colorer:HRCParserImpl.cpp.obj
 0001:0002ed70       ?getRegion@HRCParserImpl@@UAEPBVRegion@@PBVString@@@Z 1002fd70 f   colorer:HRCParserImpl.cpp.obj
 0001:0002ed90       ?getRegionCount@HRCParserImpl@@UAEIXZ 1002fd90 f   colorer:HRCParserImpl.cpp.obj
 0001:0002eda0       ?getSchemeKeywordsCount@HRCParserImpl@@IAEHPBVDOMElement@xercesc_3_2@@@Z 1002fda0 f   colorer:HRCParserImpl.cpp.obj
 0001:0002ee80       ?getVersion@HRCParserImpl@@UAEPBVString@@XZ 1002fe80 f   colorer:HRCParserImpl.cpp.obj
 0001:0002ee80       ?changes@DOMDocumentImpl@xercesc_3_2@@UBEHXZ 1002fe80 f   xerces-c_3:DOMDocumentImpl.cpp.obj
 0001:0002ee90       ?loadBlockRegions@HRCParserImpl@@IAEXPAVSchemeNode@@PBVDOMElement@xercesc_3_2@@@Z 1002fe90 f   colorer:HRCParserImpl.cpp.obj
 0001:0002f040       ?loadFileType@HRCParserImpl@@IAEXPAVFileType@@@Z 10030040 f   colorer:HRCParserImpl.cpp.obj
 0001:0002f280       ?loadRegions@HRCParserImpl@@IAEXPAVSchemeNode@@PBVDOMElement@xercesc_3_2@@_N@Z 10030280 f   colorer:HRCParserImpl.cpp.obj
 0001:0002f3e0       ?loadSource@HRCParserImpl@@UAEXPAVXmlInputSource@@@Z 100303e0 f   colorer:HRCParserImpl.cpp.obj
 0001:0002f4a0       ?parseHRC@HRCParserImpl@@IAEXPAVXmlInputSource@@@Z 100304a0 f   colorer:HRCParserImpl.cpp.obj
 0001:0002f7e0       ?parseHrcBlock@HRCParserImpl@@IAEXPBVDOMElement@xercesc_3_2@@@Z 100307e0 f   colorer:HRCParserImpl.cpp.obj
 0001:0002fa70       ?parseHrcBlockElements@HRCParserImpl@@IAEXPBVDOMElement@xercesc_3_2@@@Z 10030a70 f   colorer:HRCParserImpl.cpp.obj
 0001:0002fc90       ?parsePrototypeBlock@HRCParserImpl@@IAEXPBVDOMElement@xercesc_3_2@@@Z 10030c90 f   colorer:HRCParserImpl.cpp.obj
 0001:0002fec0       ?parseSchemeBlock@HRCParserImpl@@IAEXPAVSchemeImpl@@PBVDOMElement@xercesc_3_2@@@Z 10030ec0 f   colorer:HRCParserImpl.cpp.obj
 0001:000300b0       ?parseTypeBlock@HRCParserImpl@@IAEXPBVDOMElement@xercesc_3_2@@@Z 100310b0 f   colorer:HRCParserImpl.cpp.obj
 0001:00030280       ?qualifyForeignName@HRCParserImpl@@IAEPAVString@@PBV2@W4QualifyNameType@1@_N@Z 10031280 f   colorer:HRCParserImpl.cpp.obj
 0001:000305d0       ?qualifyOwnName@HRCParserImpl@@IAEPAVString@@PBV2@@Z 100315d0 f   colorer:HRCParserImpl.cpp.obj
 0001:00030790       ?unloadFileType@HRCParserImpl@@IAEXPAVFileTypeImpl@@@Z 10031790 f   colorer:HRCParserImpl.cpp.obj
 0001:00030930       ?updateLinks@HRCParserImpl@@IAEXXZ 10031930 f   colorer:HRCParserImpl.cpp.obj
 0001:00030d40       ?useEntities@HRCParserImpl@@IAEPAVString@@PBV2@@Z 10031d40 f   colorer:HRCParserImpl.cpp.obj
 0001:00030f70       ?getCurlyContent@UnicodeTools@@SAPAVCString@@ABVString@@H@Z 10031f70 f   colorer:UnicodeTools.cpp.obj
 0001:00031080       ?getEscapedChar@UnicodeTools@@SA_WABVString@@HAAH@Z 10032080 f   colorer:UnicodeTools.cpp.obj
 0001:000312f0       ?getHex@UnicodeTools@@SAH_W@Z 100322f0 f   colorer:UnicodeTools.cpp.obj
 0001:00031320       ?getHexNumber@UnicodeTools@@SAHPBVString@@@Z 10032320 f   colorer:UnicodeTools.cpp.obj
 0001:000313a0       ?getNumber@UnicodeTools@@SAHPBVString@@@Z 100323a0 f   colorer:UnicodeTools.cpp.obj
 0001:00031410       ?getNumber@UnicodeTools@@SA_NPBVString@@PAH@Z 10032410 f   colorer:UnicodeTools.cpp.obj
 0001:00031450       ?getNumber@UnicodeTools@@SA_NPBVString@@PAN@Z 10032450 f   colorer:UnicodeTools.cpp.obj
 0001:000317c0       ??$find@X@?$_Hash@V?$_Umap_traits@VSString@@PAVRegionDefine@@V?$_Uhash_compare@VSString@@U?$hash@VSString@@@std@@U?$equal_to@VSString@@@3@@std@@V?$allocator@U?$pair@$$CBVSString@@PAVRegionDefine@@@std@@@4@$0A@@std@@@std@@QBE?AV?$_List_const_iterator@V?$_List_val@U?$_List_simple_types@U?$pair@$$CBVSString@@PAVRegionDefine@@@std@@@std@@@std@@@1@ABVSString@@@Z 100327c0 f i colorer:RegionMapperImpl.cpp.obj
 0001:00031830       ?at@?$vector@PBVRegionDefine@@V?$allocator@PBVRegionDefine@@@std@@@std@@QAEAAPBVRegionDefine@@I@Z 10032830 f i colorer:RegionMapperImpl.cpp.obj
 0001:00031850       ?getRegionDefine@RegionMapperImpl@@UBEPBVRegionDefine@@ABVString@@@Z 10032850 f   colorer:RegionMapperImpl.cpp.obj
 0001:000318e0       ?getRegionDefine@RegionMapperImpl@@UBEPBVRegionDefine@@PBVRegion@@@Z 100328e0 f   colorer:RegionMapperImpl.cpp.obj
 0001:00031ac0       ??0DString@@QAE@ABVSString@@II@Z 10032ac0 f i colorer:TextParserImpl.cpp.obj
 0001:00031b90       ??0TextParserImpl@@QAE@XZ  10032b90 f   colorer:TextParserImpl.cpp.obj
 0001:00031c50       ??1DString@@UAE@XZ         10032c50 f i colorer:TextParserImpl.cpp.obj
 0001:00031c60       ??1TextParser@@UAE@XZ      10032c60 f i colorer:TextParserImpl.cpp.obj
 0001:00031c70       ??ADString@@UBE_WI@Z       10032c70 f i colorer:TextParserImpl.cpp.obj
 0001:00031c90       ??_EDString@@UAEPAXI@Z     10032c90 f i colorer:TextParserImpl.cpp.obj
 0001:00031c90       ??_GDString@@UAEPAXI@Z     10032c90 f i colorer:TextParserImpl.cpp.obj
 0001:00031cc0       ??_ETextParser@@UAEPAXI@Z  10032cc0 f i colorer:TextParserImpl.cpp.obj
 0001:00031cc0       ??_GTextParser@@UAEPAXI@Z  10032cc0 f i colorer:TextParserImpl.cpp.obj
 0001:00031cf0       ??_ETextParserImpl@@UAEPAXI@Z 10032cf0 f i colorer:TextParserImpl.cpp.obj
 0001:00031cf0       ??_GTextParserImpl@@UAEPAXI@Z 10032cf0 f i colorer:TextParserImpl.cpp.obj
 0001:00031d40       ?breakParse@TextParserImpl@@UAEXXZ 10032d40 f   colorer:TextParserImpl.cpp.obj
 0001:00031d50       ?clearCache@TextParserImpl@@UAEXXZ 10032d50 f   colorer:TextParserImpl.cpp.obj
 0001:00031e20       ?colorize@TextParserImpl@@AAE_NPAVCRegExp@@_N@Z 10032e20 f   colorer:TextParserImpl.cpp.obj
 0001:00032100       ?fillInvisibleSchemes@TextParserImpl@@AAEXPAVParseCache@@@Z 10033100 f   colorer:TextParserImpl.cpp.obj
 0001:00032140       ?leaveScheme@TextParserImpl@@AAEXHPAUSMatches@@PBVSchemeNode@@@Z 10033140 f   colorer:TextParserImpl.cpp.obj
 0001:00032260       ?getOwnerDocument@DOMDocumentFragmentImpl@xercesc_3_2@@UBEPAVDOMDocument@2@XZ 10033260 f i xerces-c_3:DOMDocumentFragmentImpl.cpp.obj
 0001:00032260       ?getMemoryManager@QName@xercesc_3_2@@QBEPAVMemoryManager@2@XZ 10033260 f i xerces-c_3:XercesXPath.cpp.obj
 0001:00032260       ?getOwnerDocument@DOMEntityImpl@xercesc_3_2@@UBEPAVDOMDocument@2@XZ 10033260 f i xerces-c_3:DOMEntityImpl.cpp.obj
 0001:00032260       ?length@DString@@UBEIXZ    10033260 f i colorer:TextParserImpl.cpp.obj
 0001:00032260       ?getBaseURI@DOMNotationImpl@xercesc_3_2@@UBEPB_WXZ 10033260 f i xerces-c_3:DOMNotationImpl.cpp.obj
 0001:00032260       ?getOwnerDocument@DOMAttrImpl@xercesc_3_2@@UBEPAVDOMDocument@2@XZ 10033260 f i xerces-c_3:DOMAttrImpl.cpp.obj
 0001:00032270       ?parse@TextParserImpl@@UAEHHHW4TextParseMode@@@Z 10033270 f   colorer:TextParserImpl.cpp.obj
 0001:00032530       ?searchKW@TextParserImpl@@AAEHPBVSchemeNode@@HHH@Z 10033530 f   colorer:TextParserImpl.cpp.obj
 0001:00032830       ?searchRE@TextParserImpl@@AAEHPAVSchemeImpl@@HHH@Z 10033830 f   colorer:TextParserImpl.cpp.obj
 0001:00032ec0       ?setFileType@TextParserImpl@@UAEXPAVFileType@@@Z 10033ec0 f   colorer:TextParserImpl.cpp.obj
 0001:00032ef0       ?setLineSource@TextParserImpl@@UAEXPAVLineSource@@@Z 10033ef0 f   colorer:TextParserImpl.cpp.obj
 0001:00032f00       ?setMaxBlockSize@TextParserImpl@@UAEXH@Z 10033f00 f   colorer:TextParserImpl.cpp.obj
 0001:00032f10       ?setRegionHandler@TextParserImpl@@UAEXPAVRegionHandler@@@Z 10033f10 f   colorer:TextParserImpl.cpp.obj
 0001:00032f20       ??0XStr@@QAE@QB_W@Z        10033f20 f   colorer:XStr.cpp.obj
 0001:000330f0       ??0_System_error@std@@IAE@Verror_code@1@ABV?$basic_string@DU?$char_traits@D@std@@V?$allocator@D@2@@1@@Z 100340f0 f i colorer:XStr.cpp.obj
 0001:000332e0       ??0_System_error@std@@QAE@ABV01@@Z 100342e0 f i colorer:XStr.cpp.obj
 0001:00033320       ??0system_error@std@@QAE@ABV01@@Z 10034320 f i colorer:XStr.cpp.obj
 0001:00033370       ??1?$unique_ptr@DU?$default_delete@D@std@@@std@@QAE@XZ 10034370 f i colorer:XStr.cpp.obj
 0001:00033390       ??1?$unique_ptr@_WU?$default_delete@_W@std@@@std@@QAE@XZ 10034390 f i colorer:XStr.cpp.obj
 0001:000333b0       ??1XStr@@QAE@XZ            100343b0 f   colorer:XStr.cpp.obj
 0001:00033410       ??4?$basic_string@DU?$char_traits@D@std@@V?$allocator@D@2@@std@@QAEAAV01@$$QAV01@@Z 10034410 f i colorer:XStr.cpp.obj
 0001:000334a0       ??_E_Generic_error_category@std@@UAEPAXI@Z 100344a0 f i colorer:XStr.cpp.obj
 0001:000334a0       ??_G_Generic_error_category@std@@UAEPAXI@Z 100344a0 f i colorer:XStr.cpp.obj
 0001:000334c0       ??_G_System_error@std@@UAEPAXI@Z 100344c0 f i colorer:XStr.cpp.obj
 0001:000334c0       ??_E_System_error@std@@UAEPAXI@Z 100344c0 f i colorer:XStr.cpp.obj
 0001:000334c0       ??_Gsystem_error@std@@UAEPAXI@Z 100344c0 f i colorer:XStr.cpp.obj
 0001:000334c0       ??_Esystem_error@std@@UAEPAXI@Z 100344c0 f i colorer:XStr.cpp.obj
 0001:000334f0       ?default_error_condition@error_category@std@@UBE?AVerror_condition@2@H@Z 100344f0 f i colorer:XStr.cpp.obj
 0001:00033500       ?equivalent@error_category@std@@UBE_NABVerror_code@2@H@Z 10034500 f i colorer:XStr.cpp.obj
 0001:00033530       ?equivalent@error_category@std@@UBE_NHABVerror_condition@2@@Z 10034530 f i colorer:XStr.cpp.obj
 0001:00033570       ?get_char@XStr@@QBEPBDXZ   10034570 f   colorer:XStr.cpp.obj
 0001:00033590       ?get_stdstr@XStr@@QBEPBV?$basic_string@DU?$char_traits@D@std@@V?$allocator@D@2@@std@@XZ 10034590 f   colorer:XStr.cpp.obj
 0001:00033590       ?getNodeImpl@DOMNotationImpl@xercesc_3_2@@UAEPAVDOMNodeImpl@2@XZ 10034590 f   xerces-c_3:DOMNotationImpl.cpp.obj
 0001:00033590       ?getNodeImpl@DOMNotationImpl@xercesc_3_2@@UBEPBVDOMNodeImpl@2@XZ 10034590 f   xerces-c_3:DOMNotationImpl.cpp.obj
 0001:00033590       ?_Get@?$_Func_impl_no_alloc@P6AXABV?$basic_string@DU?$char_traits@D@std@@V?$allocator@D@2@@std@@@ZXABV12@@std@@EBEPBXXZ 10034590 f   spdlog:spdlog.cpp.obj
 0001:000335a0       ?message@_Generic_error_category@std@@UBE?AV?$basic_string@DU?$char_traits@D@std@@V?$allocator@D@2@@2@H@Z 100345a0 f i colorer:XStr.cpp.obj
 0001:000335f0       ?name@_Generic_error_category@std@@UBEPBDXZ 100345f0 f i colorer:XStr.cpp.obj
 0001:00033600       ?replicate@XMLString@xercesc_3_2@@SAPA_WQB_WQAVMemoryManager@2@@Z 10034600 f i colorer:XStr.cpp.obj
 0001:00033650       ??$log@I@logger@spdlog@@QAEXUsource_loc@1@W4level_enum@level@1@V?$basic_string_view@D@v6@fmt@@ABI@Z 10034650 f i colorer:LineRegionsSupport.cpp.obj
 0001:000338a0       ??0LineRegionsSupport@@QAE@XZ 100348a0 f   colorer:LineRegionsSupport.cpp.obj
 0001:00033930       ??1LineRegionsSupport@@UAE@XZ 10034930 f   colorer:LineRegionsSupport.cpp.obj
 0001:00033ae0       ??_ELineRegionsSupport@@UAEPAXI@Z 10034ae0 f i colorer:LineRegionsSupport.cpp.obj
 0001:00033ae0       ??_GLineRegionsSupport@@UAEPAXI@Z 10034ae0 f i colorer:LineRegionsSupport.cpp.obj
 0001:00033b00       ?addLineRegion@LineRegionsSupport@@MAEXIPAVLineRegion@@@Z 10034b00 f   colorer:LineRegionsSupport.cpp.obj
 0001:00033b70       ?addRegion@LineRegionsSupport@@UAEXIPAVString@@HHPBVRegion@@@Z 10034b70 f   colorer:LineRegionsSupport.cpp.obj
 0001:00033cb0       ?clear@LineRegionsSupport@@QAEXXZ 10034cb0 f   colorer:LineRegionsSupport.cpp.obj
 0001:00033d30       ?clearLine@LineRegionsSupport@@UAEXIPAVString@@@Z 10034d30 f   colorer:LineRegionsSupport.cpp.obj
 0001:00033eb0       ?enterScheme@LineRegionsSupport@@UAEXIPAVString@@HHPBVRegion@@PBVScheme@@@Z 10034eb0 f   colorer:LineRegionsSupport.cpp.obj
 0001:00034090       ?getLineIndex@LineRegionsSupport@@IBEII@Z 10035090 f   colorer:LineRegionsSupport.cpp.obj
 0001:000340b0       ?getLineRegions@LineRegionsSupport@@QBEPAVLineRegion@@I@Z 100350b0 f   colorer:LineRegionsSupport.cpp.obj
 0001:00034140       ?leaveScheme@LineRegionsSupport@@UAEXIPAVString@@HHPBVRegion@@PBVScheme@@@Z 10035140 f   colorer:LineRegionsSupport.cpp.obj
 0001:00034260       ?resize@LineRegionsSupport@@QAEXI@Z 10035260 f   colorer:LineRegionsSupport.cpp.obj
 0001:00034300       ?setFirstLine@LineRegionsSupport@@QAEXI@Z 10035300 f   colorer:LineRegionsSupport.cpp.obj
 0001:00034310       ?setRegionMapper@LineRegionsSupport@@QAEXPBVRegionMapper@@@Z 10035310 f   colorer:LineRegionsSupport.cpp.obj
 0001:00034310       ?setAttributes@XMLSchemaDescriptionImpl@xercesc_3_2@@UAEXQAVXMLAttDef@2@@Z 10035310 f   xerces-c_3:XMLSchemaDescriptionImpl.cpp.obj
 0001:00034310       ?setScanner@ValidationContextImpl@xercesc_3_2@@UAEXPAVXMLScanner@2@@Z 10035310 f   xerces-c_3:ValidationContextImpl.cpp.obj
 0001:00034320       ?setSpecialRegion@LineRegionsSupport@@QAEXPBVRegion@@@Z 10035320 f   colorer:LineRegionsSupport.cpp.obj
 0001:00034330       ?startParsing@LineRegionsSupport@@UAEXI@Z 10035330 f   colorer:LineRegionsSupport.cpp.obj
 0001:000343c0       ??0LineRegionsCompactSupport@@QAE@XZ 100353c0 f   colorer:LineRegionsCompactSupport.cpp.obj
 0001:000343e0       ??_GLineRegionsCompactSupport@@UAEPAXI@Z 100353e0 f i colorer:LineRegionsCompactSupport.cpp.obj
 0001:000343e0       ??_ELineRegionsCompactSupport@@UAEPAXI@Z 100353e0 f i colorer:LineRegionsCompactSupport.cpp.obj
 0001:00034410       ?addLineRegion@LineRegionsCompactSupport@@MAEXIPAVLineRegion@@@Z 10035410 f   colorer:LineRegionsCompactSupport.cpp.obj
 0001:00034720       ?resolveEntity@BaseEntityResolver@@UAEPAVInputSource@xercesc_3_2@@PAVXMLResourceIdentifier@3@@Z 10035720 f   colorer:BaseEntityResolver.cpp.obj
 0001:000347f0       ?getAbsolutePath@InputSource@colorer@@SAPAVString@@PBV3@0@Z 100357f0 f   colorer:InputSource.cpp.obj
 0001:000348c0       ?isRelative@InputSource@colorer@@SA_NPBVString@@@Z 100358c0 f   colorer:InputSource.cpp.obj
 0001:00034910       ?newInstance@InputSource@colorer@@SAPAV12@PBVString@@@Z 10035910 f   colorer:InputSource.cpp.obj
 0001:00034a30       ?newInstance@InputSource@colorer@@SAPAV12@PBVString@@PAV12@@Z 10035a30 f   colorer:InputSource.cpp.obj
 0001:00034b90       ??0LocalFileXmlInputSource@@QAE@PB_W0@Z 10035b90 f   colorer:LocalFileXmlInputSource.cpp.obj
 0001:00034c80       ??1XmlInputSource@@UAE@XZ  10035c80 f i colorer:LocalFileXmlInputSource.cpp.obj
 0001:00034c90       ?get@?$ArrayJanitor@_W@xercesc_3_2@@QBEPA_WXZ 10035c90 f i xerces-c_3:JanitorExports.cpp.obj
 0001:00034c90       ?getMemoryManager@?$RefHashTableOf@VRangeTokenElemMap@xercesc_3_2@@UStringHasher@2@@xercesc_3_2@@QBEPAVMemoryManager@2@XZ 10035c90 f i xerces-c_3:RangeTokenMap.cpp.obj
 0001:00034c90       ??C?$unique_ptr@VLocalFileInputSource@xercesc_3_2@@U?$default_delete@VLocalFileInputSource@xercesc_3_2@@@std@@@std@@QBEPAVLocalFileInputSource@xercesc_3_2@@XZ 10035c90 f i colorer:LocalFileXmlInputSource.cpp.obj
 0001:00034ca0       ??_ELocalFileXmlInputSource@@UAEPAXI@Z 10035ca0 f i colorer:LocalFileXmlInputSource.cpp.obj
 0001:00034ca0       ??_GLocalFileXmlInputSource@@UAEPAXI@Z 10035ca0 f i colorer:LocalFileXmlInputSource.cpp.obj
 0001:00034cf0       ??_EXmlInputSource@@UAEPAXI@Z 10035cf0 f i colorer:LocalFileXmlInputSource.cpp.obj
 0001:00034cf0       ??_GXmlInputSource@@UAEPAXI@Z 10035cf0 f i colorer:LocalFileXmlInputSource.cpp.obj
 0001:00034d30       ?createRelative@LocalFileXmlInputSource@@UBE?AV?$unique_ptr@VXmlInputSource@@U?$default_delete@VXmlInputSource@@@std@@@std@@PB_W@Z 10035d30 f   colorer:LocalFileXmlInputSource.cpp.obj
 0001:00034e60       ?getAttDefCount@DTDAttDefList@xercesc_3_2@@UBEIXZ 10035e60 f   xerces-c_3:DTDAttDefList.cpp.obj
 0001:00034e60       ?getParameterNames@DOMLSParserImpl@xercesc_3_2@@UBEPBVDOMStringList@2@XZ 10035e60 f   xerces-c_3:DOMLSParserImpl.cpp.obj
 0001:00034e60       ?getGrammar@SchemaValidator@xercesc_3_2@@UBEPAVGrammar@2@XZ 10035e60 f   xerces-c_3:SchemaValidator.cpp.obj
 0001:00034e60       ?getPublicId@DOMNotationImpl@xercesc_3_2@@UBEPB_WXZ 10035e60 f   xerces-c_3:DOMNotationImpl.cpp.obj
 0001:00034e60       ?getBaseURI@DOMLSInputImpl@xercesc_3_2@@UBEPB_WXZ 10035e60 f   xerces-c_3:DOMLSInputImpl.cpp.obj
 0001:00034e60       ?getGrammarDescription@DTDGrammar@xercesc_3_2@@UBEPAVXMLGrammarDescription@2@XZ 10035e60 f   xerces-c_3:DTDGrammar.cpp.obj
 0001:00034e60       ?getInputSource@LocalFileXmlInputSource@@UAEPAVInputSource@xercesc_3_2@@XZ 10035e60 f   colorer:LocalFileXmlInputSource.cpp.obj
 0001:00034e60       ?getType@DatatypeValidator@xercesc_3_2@@QBE?AW4ValidatorType@12@XZ 10035e60 f   xerces-c_3:DatatypeValidatorFactory.cpp.obj
 0001:00034e60       ?getRelatedData@DOMErrorImpl@xercesc_3_2@@UBEPAXXZ 10035e60 f   xerces-c_3:DOMErrorImpl.cpp.obj
 0001:00034e60       ?getLocalPart@QName@xercesc_3_2@@QBEPB_WXZ 10035e60 f   xerces-c_3:QName.cpp.obj
 0001:00034e60       ?getData2@ModifierOp@xercesc_3_2@@UBEHXZ 10035e60 f   xerces-c_3:Op.cpp.obj
 0001:00034e60       ?getMessage@XMLException@xercesc_3_2@@QBEPB_WXZ 10035e60 f   xerces-c_3:XMLScanner.cpp.obj
 0001:00034e60       ?getParameterNames@DOMLSSerializerImpl@xercesc_3_2@@UBEPBVDOMStringList@2@XZ 10035e60 f   xerces-c_3:DOMLSSerializerImpl.cpp.obj
 0001:00034e60       ?getAttDefCount@SchemaAttDefList@xercesc_3_2@@UBEIXZ 10035e60 f   xerces-c_3:SchemaAttDefList.cpp.obj
 0001:00034e60       ?getSystemId@XSDLocator@xercesc_3_2@@UBEPB_WXZ 10035e60 f   xerces-c_3:XSDLocator.cpp.obj
 0001:00034e60       ?getSign@XMLAbstractDoubleFloat@xercesc_3_2@@UBEHXZ 10035e60 f   xerces-c_3:XMLAbstractDoubleFloat.cpp.obj
 0001:00034e60       ?GetAvailableNodeCount@ResourceManager@details@Concurrency@@UBEIXZ 10035e60 f   libconcrt:ResourceManager.obj
 0001:00034e60       ?getEnclosingElementName@XMLSchemaDescriptionImpl@xercesc_3_2@@UBEPBVQName@2@XZ 10035e60 f   xerces-c_3:XMLSchemaDescriptionImpl.cpp.obj
 0001:00034e60       ?GetScheduleGroupSegment@ContextBase@details@Concurrency@@QBEPAVScheduleGroupSegmentBase@23@XZ 10035e60 f   libconcrt:ContextBase.obj
 0001:00034e70       ?getAttributes@DOMNodeImpl@xercesc_3_2@@QBEPAVDOMNamedNodeMap@2@XZ 10035e70 f i xerces-c_3:DOMNodeImpl.cpp.obj
 0001:00034e70       ?getLastChild@DOMNodeImpl@xercesc_3_2@@QBEPAVDOMNode@2@XZ 10035e70 f i xerces-c_3:DOMNodeImpl.cpp.obj
 0001:00034e70       ?getNoParen@Token@xercesc_3_2@@UBEHXZ 10035e70 f i xerces-c_3:RangeToken.cpp.obj
 0001:00034e70       ?getSystemId@XMLDTDDescription@xercesc_3_2@@UBEPB_WXZ 10035e70 f i xerces-c_3:XMLDTDDescription.cpp.obj
 0001:00034e70       ?getLocalName@DOMNodeImpl@xercesc_3_2@@QBEPB_WXZ 10035e70 f i xerces-c_3:DOMNodeImpl.cpp.obj
 0001:00034e70       ?getFirstChild@DOMNodeImpl@xercesc_3_2@@QBEPAVDOMNode@2@XZ 10035e70 f i xerces-c_3:DOMNodeImpl.cpp.obj
 0001:00034e70       ?getOwnerDocument@DOMDocumentImpl@xercesc_3_2@@UBEPAVDOMDocument@2@XZ 10035e70 f i xerces-c_3:DOMDocumentImpl.cpp.obj
 0001:00034e70       ?getContentType@UnZip@@UBEPB_WXZ 10035e70 f i colorer:ZipXmlInputSource.cpp.obj
 0001:00034e70       ?getEntityDeclPool@SGXMLScanner@xercesc_3_2@@UAEPAV?$NameIdPool@VDTDEntityDecl@xercesc_3_2@@@2@XZ 10035e70 f i xerces-c_3:SGXMLScanner.cpp.obj
 0001:00034e70       ?getObjectType@SchemaElementDecl@xercesc_3_2@@UBE?AW4objectType@XMLElementDecl@2@XZ 10035e70 f i xerces-c_3:SchemaElementDecl.cpp.obj
 0001:00034e70       ?getEntityDeclPool@WFXMLScanner@xercesc_3_2@@UAEPAV?$NameIdPool@VDTDEntityDecl@xercesc_3_2@@@2@XZ 10035e70 f i xerces-c_3:WFXMLScanner.cpp.obj
 0001:00034e70       ?createObject@IdentityConstraint@xercesc_3_2@@SAPAVXSerializable@2@PAVMemoryManager@2@@Z 10035e70 f i xerces-c_3:IdentityConstraint.cpp.obj
 0001:00034e70       ?createObject@XMLSchemaDescription@xercesc_3_2@@SAPAVXSerializable@2@PAVMemoryManager@2@@Z 10035e70 f i xerces-c_3:XMLSchemaDescription.cpp.obj
 0001:00034e70       ?createObject@XMLNumber@xercesc_3_2@@SAPAVXSerializable@2@PAVMemoryManager@2@@Z 10035e70 f i xerces-c_3:XMLNumber.cpp.obj
 0001:00034e70       ?createObject@DateTimeValidator@xercesc_3_2@@SAPAVXSerializable@2@PAVMemoryManager@2@@Z 10035e70 f i xerces-c_3:DateTimeValidator.cpp.obj
 0001:00034e70       ?getPrefix@DOMNodeImpl@xercesc_3_2@@QBEPB_WXZ 10035e70 f i xerces-c_3:DOMNodeImpl.cpp.obj
 0001:00034e70       ?ExitCriticalRegion@ContextBase@details@Concurrency@@QAEHXZ 10035e70 f i libconcrt:ContextBase.obj
 0001:00034e70       ?getEnumString@BooleanDatatypeValidator@xercesc_3_2@@UBEPBV?$RefArrayVectorOf@_W@2@XZ 10035e70 f i xerces-c_3:BooleanDatatypeValidator.cpp.obj
 0001:00034e70       ?mem_write_file_func@@YAKPAX0PBXK@Z 10035e70 f i colorer:MemoryFile.cpp.obj
 0001:00034e70       ?getContentType@BinFileInputStream@xercesc_3_2@@UBEPB_WXZ 10035e70 f i xerces-c_3:BinFileInputStream.cpp.obj
 0001:00034e70       ?getType@IC_Unique@xercesc_3_2@@UBEFXZ 10035e70 f i xerces-c_3:IC_Unique.cpp.obj
 0001:00034e70       ?getEnumString@AnySimpleTypeDatatypeValidator@xercesc_3_2@@UBEPBV?$RefArrayVectorOf@_W@2@XZ 10035e70 f i xerces-c_3:AnySimpleTypeDatatypeValidator.cpp.obj
 0001:00034e70       ?getEncoding@BinInputStream@xercesc_3_2@@UBEPB_WXZ 10035e70 f i xerces-c_3:BinInputStream.cpp.obj
 0001:00034e70       ?createObject@XMLEntityDecl@xercesc_3_2@@SAPAVXSerializable@2@PAVMemoryManager@2@@Z 10035e70 f i xerces-c_3:XMLEntityDecl.cpp.obj
 0001:00034e70       ?createObject@AbstractNumericValidator@xercesc_3_2@@SAPAVXSerializable@2@PAVMemoryManager@2@@Z 10035e70 f i xerces-c_3:AbstractNumericValidator.cpp.obj
 0001:00034e70       ?PreRunnableSearch@VirtualProcessor@details@Concurrency@@UAEPAVInternalContextBase@23@XZ 10035e70 f i libconcrt:VirtualProcessor.obj
 0001:00034e70       ?GetDefaultDestination@VirtualProcessor@details@Concurrency@@UAEPAUIExecutionContext@3@XZ 10035e70 f i libconcrt:VirtualProcessor.obj
 0001:00034e70       ?getNextSibling@DOMNodeImpl@xercesc_3_2@@QBEPAVDOMNode@2@XZ 10035e70 f i xerces-c_3:DOMNodeImpl.cpp.obj
 0001:00034e70       ?getContentLeafNameTypeVector@AllContentModel@xercesc_3_2@@UBEPAVContentLeafNameTypeVector@2@XZ 10035e70 f i xerces-c_3:AllContentModel.cpp.obj
 0001:00034e70       ?getRelatedException@DOMErrorImpl@xercesc_3_2@@UBEPAXXZ 10035e70 f i xerces-c_3:DOMErrorImpl.cpp.obj
 0001:00034e70       ?getNamespaceURI@DOMNodeImpl@xercesc_3_2@@QBEPB_WXZ 10035e70 f i xerces-c_3:DOMNodeImpl.cpp.obj
 0001:00034e70       ?getName@XSObject@xercesc_3_2@@UBEPB_WXZ 10035e70 f i xerces-c_3:XSObject.cpp.obj
 0001:00034e70       ?getParentNode@DOMNodeImpl@xercesc_3_2@@QBEPAVDOMNode@2@XZ 10035e70 f i xerces-c_3:DOMNodeImpl.cpp.obj
 0001:00034e70       ?getNamespace@XSObject@xercesc_3_2@@UBEPB_WXZ 10035e70 f i xerces-c_3:XSObject.cpp.obj
 0001:00034e70       ?getInputSource@XmlInputSource@@UAEPAVInputSource@xercesc_3_2@@XZ 10035e70 f i colorer:LocalFileXmlInputSource.cpp.obj
 0001:00034e70       ?getEntityDeclPool@WFXMLScanner@xercesc_3_2@@UBEPBV?$NameIdPool@VDTDEntityDecl@xercesc_3_2@@@2@XZ 10035e70 f i xerces-c_3:WFXMLScanner.cpp.obj
 0001:00034e70       ?getSign@XMLDateTime@xercesc_3_2@@UBEHXZ 10035e70 f i xerces-c_3:XMLDateTime.cpp.obj
 0001:00034e70       ?createObject@XMLGrammarDescription@xercesc_3_2@@SAPAVXSerializable@2@PAVMemoryManager@2@@Z 10035e70 f i xerces-c_3:XMLGrammarDescription.cpp.obj
 0001:00034e70       ?createObject@XMLDTDDescription@xercesc_3_2@@SAPAVXSerializable@2@PAVMemoryManager@2@@Z 10035e70 f i xerces-c_3:XMLDTDDescription.cpp.obj
 0001:00034e70       ?getPreviousSibling@DOMNodeImpl@xercesc_3_2@@QBEPAVDOMNode@2@XZ 10035e70 f i xerces-c_3:DOMNodeImpl.cpp.obj
 0001:00034e70       ?createObject@XMLAttDef@xercesc_3_2@@SAPAVXSerializable@2@PAVMemoryManager@2@@Z 10035e70 f i xerces-c_3:XMLAttDef.cpp.obj
 0001:00034e70       ?getNamespaceItem@XSObject@xercesc_3_2@@UAEPAVXSNamespaceItem@2@XZ 10035e70 f i xerces-c_3:XSObject.cpp.obj
 0001:00034e70       ?createObject@AbstractStringValidator@xercesc_3_2@@SAPAVXSerializable@2@PAVMemoryManager@2@@Z 10035e70 f i xerces-c_3:AbstractStringValidator.cpp.obj
 0001:00034e70       ?createObject@XMLElementDecl@xercesc_3_2@@SAPAVXSerializable@2@PAVMemoryManager@2@@Z 10035e70 f i xerces-c_3:XMLElementDecl.cpp.obj
 0001:00034e70       ?ExitHyperCriticalRegion@ContextBase@details@Concurrency@@QAEHXZ 10035e70 f i libconcrt:ContextBase.obj
 0001:00034e70       ?GetContextKind@ExternalContextBase@details@Concurrency@@EBE?AW4ContextKind@ContextBase@23@XZ 10035e70 f i libconcrt:ExternalContextBase.obj
 0001:00034e70       ?mem_close_file_func@@YAHPAX0@Z 10035e70 f i colorer:MemoryFile.cpp.obj
 0001:00034e70       ?getGrammarType@XMLDTDDescription@xercesc_3_2@@UBE?AW4GrammarType@Grammar@2@XZ 10035e70 f i xerces-c_3:XMLDTDDescriptionImpl.cpp.obj
 0001:00034e70       ?size@Token@xercesc_3_2@@UBEIXZ 10035e70 f i xerces-c_3:RangeToken.cpp.obj
 0001:00034e70       ?getCurrentGrammarType@DGXMLScanner@xercesc_3_2@@UBE?AW4GrammarType@Grammar@2@XZ 10035e70 f i xerces-c_3:DGXMLScanner.cpp.obj
 0001:00034e70       ?getGrammarType@DTDGrammar@xercesc_3_2@@UBE?AW4GrammarType@Grammar@2@XZ 10035e70 f i xerces-c_3:DTDGrammar.cpp.obj
 0001:00034e70       ?getContentType@BinMemInputStream@xercesc_3_2@@UBEPB_WXZ 10035e70 f i xerces-c_3:BinMemInputStream.cpp.obj
 0001:00034e70       ?createObject@AbstractNumericFacetValidator@xercesc_3_2@@SAPAVXSerializable@2@PAVMemoryManager@2@@Z 10035e70 f i xerces-c_3:AbstractNumericFacetValidator.cpp.obj
 0001:00034e70       ?getEntityDeclPool@SGXMLScanner@xercesc_3_2@@UBEPBV?$NameIdPool@VDTDEntityDecl@xercesc_3_2@@@2@XZ 10035e70 f i xerces-c_3:SGXMLScanner.cpp.obj
 0001:00034e70       ?createObject@Grammar@xercesc_3_2@@SAPAVXSerializable@2@PAVMemoryManager@2@@Z 10035e70 f i xerces-c_3:Grammar.cpp.obj
 0001:00034e70       ?getContentLeafNameTypeVector@MixedContentModel@xercesc_3_2@@UBEPAVContentLeafNameTypeVector@2@XZ 10035e70 f i xerces-c_3:MixedContentModel.cpp.obj
 0001:00034e70       ?getNodeValue@DOMNodeImpl@xercesc_3_2@@QBEPB_WXZ 10035e70 f i xerces-c_3:DOMNodeImpl.cpp.obj
 0001:00034e70       ?createObject@XMLAttDefList@xercesc_3_2@@SAPAVXSerializable@2@PAVMemoryManager@2@@Z 10035e70 f i xerces-c_3:XMLAttDefList.cpp.obj
 0001:00034e70       ?getContentLeafNameTypeVector@SimpleContentModel@xercesc_3_2@@UBEPAVContentLeafNameTypeVector@2@XZ 10035e70 f i xerces-c_3:SimpleContentModel.cpp.obj
 0001:00034e70       ?EnterHyperCriticalRegion@ContextBase@details@Concurrency@@QAEHXZ 10035e70 f i libconcrt:ContextBase.obj
 0001:00034e70       ?EnterCriticalRegion@ContextBase@details@Concurrency@@QAEHXZ 10035e70 f i libconcrt:ContextBase.obj
 0001:00034e70       ?createObject@XMLAbstractDoubleFloat@xercesc_3_2@@SAPAVXSerializable@2@PAVMemoryManager@2@@Z 10035e70 f i xerces-c_3:XMLAbstractDoubleFloat.cpp.obj
 0001:00034e70       ?getString@Token@xercesc_3_2@@UBEPB_WXZ 10035e70 f i xerces-c_3:RangeToken.cpp.obj
 0001:00034e70       ?createObject@DatatypeValidator@xercesc_3_2@@SAPAVXSerializable@2@PAVMemoryManager@2@@Z 10035e70 f i xerces-c_3:DatatypeValidator.cpp.obj
 0001:00034e70       ?getReferenceNo@Token@xercesc_3_2@@UBEHXZ 10035e70 f i xerces-c_3:RangeToken.cpp.obj
 0001:00034e80       ?getExpandEntityReferences@DOMTreeWalkerImpl@xercesc_3_2@@UAE_NXZ 10035e80 f i xerces-c_3:DOMTreeWalkerImpl.cpp.obj
 0001:00034e80       ?getIssueFatalErrorIfNotFound@InputSource@xercesc_3_2@@UBE_NXZ 10035e80 f i colorer:LocalFileXmlInputSource.cpp.obj
 0001:00034e80       ?getExpandEntityReferences@DOMNodeIteratorImpl@xercesc_3_2@@UAE_NXZ 10035e80 f i xerces-c_3:DOMNodeIteratorImpl.cpp.obj
 0001:00034e90       ?makeStream@LocalFileXmlInputSource@@UBEPAVBinInputStream@xercesc_3_2@@XZ 10035e90 f   colorer:LocalFileXmlInputSource.cpp.obj
 0001:00034f80       ?setIssueFatalErrorIfNotFound@InputSource@xercesc_3_2@@UAEX_N@Z 10035f80 f i colorer:LocalFileXmlInputSource.cpp.obj
 0001:00034f90       ??0UnZip@@QAE@PBEIPBVString@@@Z 10035f90 f   colorer:ZipXmlInputSource.cpp.obj
 0001:00035290       ??0ZipXmlInputSource@@QAE@PB_W0@Z 10036290 f   colorer:ZipXmlInputSource.cpp.obj
 0001:00035300       ??0ZipXmlInputSource@@QAE@PB_WPAVXmlInputSource@@@Z 10036300 f   colorer:ZipXmlInputSource.cpp.obj
 0001:00035380       ??_EUnZip@@UAEPAXI@Z       10036380 f i colorer:ZipXmlInputSource.cpp.obj
 0001:00035380       ??_GUnZip@@UAEPAXI@Z       10036380 f i colorer:ZipXmlInputSource.cpp.obj
 0001:000353d0       ??_EZipXmlInputSource@@UAEPAXI@Z 100363d0 f i colorer:ZipXmlInputSource.cpp.obj
 0001:000353d0       ??_GZipXmlInputSource@@UAEPAXI@Z 100363d0 f i colorer:ZipXmlInputSource.cpp.obj
 0001:00035470       ?create@ZipXmlInputSource@@AAEXPB_W0@Z 10036470 f   colorer:ZipXmlInputSource.cpp.obj
 0001:000358e0       ?createRelative@ZipXmlInputSource@@UBE?AV?$unique_ptr@VXmlInputSource@@U?$default_delete@VXmlInputSource@@@std@@@std@@PB_W@Z 100368e0 f   colorer:ZipXmlInputSource.cpp.obj
 0001:00035990       ?curPos@UnZip@@UBE_KXZ     10036990 f   colorer:ZipXmlInputSource.cpp.obj
 0001:000359a0       ?makeStream@ZipXmlInputSource@@UBEPAVBinInputStream@xercesc_3_2@@XZ 100369a0 f   colorer:ZipXmlInputSource.cpp.obj
 0001:00035a20       ?readBytes@UnZip@@UAEIQAEI@Z 10036a20 f   colorer:ZipXmlInputSource.cpp.obj
 0001:00035a60       ??0CharacterClass@@QAE@XZ  10036a60 f   colorer:CharacterClass.cpp.obj
 0001:00035a90       ??1CharacterClass@@QAE@XZ  10036a90 f   colorer:CharacterClass.cpp.obj
 0001:00035ab0       ?addCategory@CharacterClass@@QAEXABVString@@@Z 10036ab0 f   colorer:CharacterClass.cpp.obj
 0001:00035be0       ?addCategory@CharacterClass@@QAEXW4ECharCategory@@@Z 10036be0 f   colorer:CharacterClass.cpp.obj
 0001:00035ca0       ?addChar@CharacterClass@@QAEX_W@Z 10036ca0 f   colorer:CharacterClass.cpp.obj
 0001:00035d30       ?addClass@CharacterClass@@QAEXABV1@@Z 10036d30 f   colorer:CharacterClass.cpp.obj
 0001:00035dd0       ?clear@CharacterClass@@QAEXXZ 10036dd0 f   colorer:CharacterClass.cpp.obj
 0001:00035e10       ?clearCategory@CharacterClass@@QAEXPBD@Z 10036e10 f   colorer:CharacterClass.cpp.obj
 0001:00035ee0       ?clearCategory@CharacterClass@@QAEXW4ECharCategory@@@Z 10036ee0 f   colorer:CharacterClass.cpp.obj
 0001:00035fa0       ?createCharClass@CharacterClass@@SAPAV1@ABVString@@HPAH_N@Z 10036fa0 f   colorer:CharacterClass.cpp.obj
 0001:00036db0       ?fill@CharacterClass@@QAEXXZ 10037db0 f   colorer:CharacterClass.cpp.obj
 0001:00036e50       ?inClass@CharacterClass@@QBE_N_W@Z 10037e50 f   colorer:CharacterClass.cpp.obj
 0001:00036e80       ??0KeywordList@@QAE@XZ     10037e80 f   colorer:KeywordList.cpp.obj
 0001:00036f30       ??1?$unique_ptr@VCharacterClass@@U?$default_delete@VCharacterClass@@@std@@@std@@QAE@XZ 10037f30 f i colorer:KeywordList.cpp.obj
 0001:00036f50       ??1KeywordList@@QAE@XZ     10037f50 f   colorer:KeywordList.cpp.obj
 0001:00036fe0       ?kwCompare@@YAHPBX0@Z      10037fe0 f   colorer:KeywordList.cpp.obj
 0001:00037000       ?kwCompareI@@YAHPBX0@Z     10038000 f   colorer:KeywordList.cpp.obj
 0001:00037020       ?sortList@KeywordList@@QAEXXZ 10038020 f   colorer:KeywordList.cpp.obj
 0001:00037060       ?substrIndex@KeywordList@@QAEXXZ 10038060 f   colorer:KeywordList.cpp.obj
 0001:000371e0       ??0SchemeNode@@QAE@XZ      100381e0 f   colorer:SchemeNode.cpp.obj
 0001:00037350       ??1SchemeNode@@QAE@XZ      10038350 f   colorer:SchemeNode.cpp.obj
 0001:00037470       ?_Reallocate_exactly@?$vector@PAVVirtualEntry@@V?$allocator@PAVVirtualEntry@@@std@@@std@@AAEXI@Z 10038470 f i colorer:SchemeNode.cpp.obj
 0001:00037540       ??0ParseCache@@QAE@XZ      10038540 f   colorer:TextParserHelpers.cpp.obj
 0001:00037580       ??0VTList@@QAE@XZ          10038580 f   colorer:TextParserHelpers.cpp.obj
 0001:000375b0       ??1ParseCache@@QAE@XZ      100385b0 f   colorer:TextParserHelpers.cpp.obj
 0001:00037690       ??1VTList@@QAE@XZ          10038690 f   colorer:TextParserHelpers.cpp.obj
 0001:000376e0       ?clear@VTList@@QAEXXZ      100386e0 f   colorer:TextParserHelpers.cpp.obj
 0001:00037770       ?deltree@VTList@@QAEXXZ    10038770 f   colorer:TextParserHelpers.cpp.obj
 0001:000377e0       ?pop@VTList@@QAE_NXZ       100387e0 f   colorer:TextParserHelpers.cpp.obj
 0001:00037860       ?popvirt@VTList@@QAEXXZ    10038860 f   colorer:TextParserHelpers.cpp.obj
 0001:00037880       ?push@VTList@@QAE_NPAVSchemeNode@@@Z 10038880 f   colorer:TextParserHelpers.cpp.obj
 0001:00037920       ?pushvirt@VTList@@QAEPAVSchemeImpl@@PAV2@@Z 10038920 f   colorer:TextParserHelpers.cpp.obj
 0001:000379b0       ?restore@VTList@@QAE_NPAPAV?$vector@PAVVirtualEntry@@V?$allocator@PAVVirtualEntry@@@std@@@std@@@Z 100389b0 f   colorer:TextParserHelpers.cpp.obj
 0001:00037a70       ?searchLine@ParseCache@@QAEPAV1@HPAPAV1@@Z 10038a70 f   colorer:TextParserHelpers.cpp.obj
 0001:00037af0       ?store@VTList@@QAEPAPAV?$vector@PAVVirtualEntry@@V?$allocator@PAVVirtualEntry@@@std@@@std@@XZ 10038af0 f   colorer:TextParserHelpers.cpp.obj
 0001:00037b50       ??0FileInputSource@@QAE@PBVString@@PAV0@@Z 10038b50 f   colorer:FileInputSource.cpp.obj
 0001:00037ea0       ??1InputSource@colorer@@UAE@XZ 10038ea0 f i colorer:FileInputSource.cpp.obj
 0001:00037eb0       ??_EFileInputSource@@UAEPAXI@Z 10038eb0 f i colorer:FileInputSource.cpp.obj
 0001:00037eb0       ??_GFileInputSource@@UAEPAXI@Z 10038eb0 f i colorer:FileInputSource.cpp.obj
 0001:00037ef0       ??_EInputSource@colorer@@UAEPAXI@Z 10038ef0 f i colorer:FileInputSource.cpp.obj
 0001:00037ef0       ??_GInputSource@colorer@@UAEPAXI@Z 10038ef0 f i colorer:FileInputSource.cpp.obj
 0001:00037f20       ?closeStream@FileInputSource@@UAEXXZ 10038f20 f   colorer:FileInputSource.cpp.obj
 0001:00037fa0       ?createRelative@FileInputSource@@MAEPAVInputSource@colorer@@PBVString@@@Z 10038fa0 f   colorer:FileInputSource.cpp.obj
 0001:00038010       ?length@FileInputSource@@UBEHXZ 10039010 f   colorer:FileInputSource.cpp.obj
 0001:00038080       ?openStream@FileInputSource@@UAEPBEXZ 10039080 f   colorer:FileInputSource.cpp.obj
 0001:000381d0       ??0JARInputSource@@QAE@PBVString@@PAVInputSource@colorer@@@Z 100391d0 f   colorer:JARInputSource.cpp.obj
 0001:00038390       ??_EJARInputSource@@UAEPAXI@Z 10039390 f i colorer:JARInputSource.cpp.obj
 0001:00038390       ??_GJARInputSource@@UAEPAXI@Z 10039390 f i colorer:JARInputSource.cpp.obj
 0001:000384e0       ?closeStream@JARInputSource@@UAEXXZ 100394e0 f   colorer:JARInputSource.cpp.obj
 0001:00038570       ?createRelative@JARInputSource@@MAEPAVInputSource@colorer@@PBVString@@@Z 10039570 f   colorer:JARInputSource.cpp.obj
 0001:000386e0       ?length@JARInputSource@@UBEHXZ 100396e0 f   colorer:JARInputSource.cpp.obj
 0001:00038750       ?openStream@JARInputSource@@UAEPBEXZ 10039750 f   colorer:JARInputSource.cpp.obj
 0001:00038a80       ??$emplace@U?$pair@VCString@@PAVSharedXmlInputSource@@@std@@@?$_Hash@V?$_Umap_traits@VSString@@PAVSharedXmlInputSource@@V?$_Uhash_compare@VSString@@U?$hash@VSString@@@std@@U?$equal_to@VSString@@@3@@std@@V?$allocator@U?$pair@$$CBVSString@@PAVSharedXmlInputSource@@@std@@@4@$0A@@std@@@std@@QAE?AU?$pair@V?$_List_iterator@V?$_List_val@U?$_List_simple_types@U?$pair@$$CBVSString@@PAVSharedXmlInputSource@@@std@@@std@@@std@@@std@@_N@1@$$QAU?$pair@VCString@@PAVSharedXmlInputSource@@@1@@Z 10039a80 f i colorer:SharedXmlInputSource.cpp.obj
 0001:00038c80       ??1?$pair@VCString@@PAVSharedXmlInputSource@@@std@@QAE@XZ 10039c80 f i colorer:SharedXmlInputSource.cpp.obj
 0001:00038c90       ??_GSharedXmlInputSource@@AAEPAXI@Z 10039c90 f i colorer:SharedXmlInputSource.cpp.obj
 0001:00038df0       ?delref@SharedXmlInputSource@@QAEHXZ 10039df0 f   colorer:SharedXmlInputSource.cpp.obj
 0001:00038e10       ?getInputSource@SharedXmlInputSource@@QBEPAVInputSource@xercesc_3_2@@XZ 10039e10 f   colorer:SharedXmlInputSource.cpp.obj
 0001:00038e20       ?getSharedInputSource@SharedXmlInputSource@@SAPAV1@PB_W0@Z 10039e20 f   colorer:SharedXmlInputSource.cpp.obj
 0001:000390e0       ?fill_mem_filefunc@@YAXPAUzlib_filefunc_def_s@@PAUMemoryFile@@@Z 1003a0e0 f   colorer:MemoryFile.cpp.obj
 0001:00039120       ?mem_error_file_func@@YAHPAX0@Z 1003a120 f   colorer:MemoryFile.cpp.obj
 0001:00039130       ?mem_open_file_func@@YAPAXPAXPBDH@Z 1003a130 f   colorer:MemoryFile.cpp.obj
 0001:00039150       ?mem_read_file_func@@YAKPAX00K@Z 1003a150 f   colorer:MemoryFile.cpp.obj
 0001:00039190       ?mem_seek_file_func@@YAJPAX0KH@Z 1003a190 f   colorer:MemoryFile.cpp.obj
 0001:000391e0       ?mem_tell_file_func@@YAJPAX0@Z 1003a1e0 f   colorer:MemoryFile.cpp.obj
 0001:000391f0       ??0BitArray@@QAE@H@Z       1003a1f0 f   colorer:BitArray.cpp.obj
 0001:00039250       ??1BitArray@@QAE@XZ        1003a250 f   colorer:BitArray.cpp.obj
 0001:00039270       ?addBitArray@BitArray@@QAEXPADH@Z 1003a270 f   colorer:BitArray.cpp.obj
 0001:000392e0       ?addBitArray@BitArray@@QAEXPAV1@@Z 1003a2e0 f   colorer:BitArray.cpp.obj
 0001:00039360       ?addRange@BitArray@@QAEXHH@Z 1003a360 f   colorer:BitArray.cpp.obj
 0001:00039450       ?clearBit@BitArray@@QAEXH@Z 1003a450 f   colorer:BitArray.cpp.obj
 0001:000394b0       ?clearBitArray@BitArray@@QAEXPADH@Z 1003a4b0 f   colorer:BitArray.cpp.obj
 0001:00039520       ?clearBitArray@BitArray@@QAEXPAV1@@Z 1003a520 f   colorer:BitArray.cpp.obj
 0001:000395c0       ?getBit@BitArray@@QAE_NH@Z 1003a5c0 f   colorer:BitArray.cpp.obj
 0001:00039600       ?intersectBitArray@BitArray@@QAEXPAV1@@Z 1003a600 f   colorer:BitArray.cpp.obj
 0001:00039690       ?setBit@BitArray@@QAEXH@Z  1003a690 f   colorer:BitArray.cpp.obj
 0001:000396f0       ??_GSharedInputSource@@EAEPAXI@Z 1003a6f0 f i colorer:SharedInputSource.cpp.obj
 0001:000396f0       ??_ESharedInputSource@@EAEPAXI@Z 1003a6f0 f i colorer:SharedInputSource.cpp.obj
 0001:00039830       ?closeStream@SharedInputSource@@UAEXXZ 1003a830 f i colorer:SharedInputSource.cpp.obj
 0001:00039840       ?getInputSource@SharedInputSource@@SAPAV1@PBVString@@PAVInputSource@colorer@@@Z 1003a840 f   colorer:SharedInputSource.cpp.obj
 0001:00039a10       ?getLocation@SharedInputSource@@UBEPBVString@@XZ 1003aa10 f i colorer:SharedInputSource.cpp.obj
 0001:00039a20       ?length@SharedInputSource@@UBEHXZ 1003aa20 f i colorer:SharedInputSource.cpp.obj
 0001:00039a30       ?openStream@SharedInputSource@@UAEPBEXZ 1003aa30 f i colorer:SharedInputSource.cpp.obj
 0001:00039a40       ??0RuntimeException@xercesc_3_2@@QAE@ABV01@@Z 1003aa40 f i xerces-c_3:PlatformUtils.cpp.obj
 0001:00039a60       ??0RuntimeException@xercesc_3_2@@QAE@QBD_KW4Codes@XMLExcepts@1@PAVMemoryManager@1@@Z 1003aa60 f i xerces-c_3:PlatformUtils.cpp.obj
 0001:00039ad0       ??0XMLPlatformUtilsException@xercesc_3_2@@QAE@ABV01@@Z 1003aad0 f i xerces-c_3:PlatformUtils.cpp.obj
 0001:00039af0       ??0XMLPlatformUtilsException@xercesc_3_2@@QAE@QBD_KW4Codes@XMLExcepts@1@PAVMemoryManager@1@@Z 1003aaf0 f i xerces-c_3:PlatformUtils.cpp.obj
 0001:00039b60       ??1RuntimeException@xercesc_3_2@@UAE@XZ 1003ab60 f i xerces-c_3:PlatformUtils.cpp.obj
 0001:00039b70       ??1XMLPlatformUtilsException@xercesc_3_2@@UAE@XZ 1003ab70 f i xerces-c_3:PlatformUtils.cpp.obj
 0001:00039b80       ??_EDefaultPanicHandler@xercesc_3_2@@UAEPAXI@Z 1003ab80 f i xerces-c_3:PlatformUtils.cpp.obj
 0001:00039b80       ??_GDefaultPanicHandler@xercesc_3_2@@UAEPAXI@Z 1003ab80 f i xerces-c_3:PlatformUtils.cpp.obj
 0001:00039bc0       ??_GMemoryManagerImpl@xercesc_3_2@@UAEPAXI@Z 1003abc0 f i xerces-c_3:PlatformUtils.cpp.obj
 0001:00039bc0       ??_GMemoryManager@xercesc_3_2@@UAEPAXI@Z 1003abc0 f i xerces-c_3:PlatformUtils.cpp.obj
 0001:00039bc0       ??_EMemoryManagerImpl@xercesc_3_2@@UAEPAXI@Z 1003abc0 f i xerces-c_3:PlatformUtils.cpp.obj
 0001:00039bc0       ??_EMemoryManager@xercesc_3_2@@UAEPAXI@Z 1003abc0 f i xerces-c_3:PlatformUtils.cpp.obj
 0001:00039bf0       ??_GPanicHandler@xercesc_3_2@@UAEPAXI@Z 1003abf0 f i xerces-c_3:PlatformUtils.cpp.obj
 0001:00039bf0       ??_EPanicHandler@xercesc_3_2@@UAEPAXI@Z 1003abf0 f i xerces-c_3:PlatformUtils.cpp.obj
 0001:00039c20       ??_GRuntimeException@xercesc_3_2@@UAEPAXI@Z 1003ac20 f i xerces-c_3:PlatformUtils.cpp.obj
 0001:00039c20       ??_ERuntimeException@xercesc_3_2@@UAEPAXI@Z 1003ac20 f i xerces-c_3:PlatformUtils.cpp.obj
 0001:00039c60       ??_GXMLPlatformUtilsException@xercesc_3_2@@UAEPAXI@Z 1003ac60 f i xerces-c_3:PlatformUtils.cpp.obj
 0001:00039c60       ??_EXMLPlatformUtilsException@xercesc_3_2@@UAEPAXI@Z 1003ac60 f i xerces-c_3:PlatformUtils.cpp.obj
 0001:00039ca0       ?Initialize@XMLPlatformUtils@xercesc_3_2@@SAXQBD0QAVPanicHandler@2@QAVMemoryManager@2@@Z 1003aca0 f   xerces-c_3:PlatformUtils.cpp.obj
 0001:00039f40       ?Terminate@XMLPlatformUtils@xercesc_3_2@@SAXXZ 1003af40 f   xerces-c_3:PlatformUtils.cpp.obj
 0001:0003a090       ?closeFile@XMLPlatformUtils@xercesc_3_2@@SAXPAXQAVMemoryManager@2@@Z 1003b090 f   xerces-c_3:PlatformUtils.cpp.obj
 0001:0003a0e0       ?closeMutex@XMLPlatformUtils@xercesc_3_2@@SAXQAXQAVMemoryManager@2@@Z 1003b0e0 f   xerces-c_3:PlatformUtils.cpp.obj
 0001:0003a120       ?curFilePos@XMLPlatformUtils@xercesc_3_2@@SA_KPAXQAVMemoryManager@2@@Z 1003b120 f   xerces-c_3:PlatformUtils.cpp.obj
 0001:0003a170       ?duplicate@RuntimeException@xercesc_3_2@@UBEPAVXMLException@2@XZ 1003b170 f i xerces-c_3:PlatformUtils.cpp.obj
 0001:0003a1f0       ?duplicate@XMLPlatformUtilsException@xercesc_3_2@@UBEPAVXMLException@2@XZ 1003b1f0 f i xerces-c_3:PlatformUtils.cpp.obj
 0001:0003a270       ?fileSize@XMLPlatformUtils@xercesc_3_2@@SA_KPAXQAVMemoryManager@2@@Z 1003b270 f   xerces-c_3:PlatformUtils.cpp.obj
 0001:0003a2c0       ?getCurrentDirectory@XMLPlatformUtils@xercesc_3_2@@SAPA_WQAVMemoryManager@2@@Z 1003b2c0 f   xerces-c_3:PlatformUtils.cpp.obj
 0001:0003a310       ?getType@RuntimeException@xercesc_3_2@@UBEPB_WXZ 1003b310 f i xerces-c_3:PlatformUtils.cpp.obj
 0001:0003a320       ?getType@XMLPlatformUtilsException@xercesc_3_2@@UBEPB_WXZ 1003b320 f i xerces-c_3:PlatformUtils.cpp.obj
 0001:0003a330       ?isRelative@XMLPlatformUtils@xercesc_3_2@@SA_NQB_WQAVMemoryManager@2@@Z 1003b330 f   xerces-c_3:PlatformUtils.cpp.obj
 0001:0003a380       ?loadAMsgSet@XMLPlatformUtils@xercesc_3_2@@CAPAVXMLMsgLoader@2@QB_W@Z 1003b380 f   xerces-c_3:PlatformUtils.cpp.obj
 0001:0003a430       ?loadMsgSet@XMLPlatformUtils@xercesc_3_2@@SAPAVXMLMsgLoader@2@QB_W@Z 1003b430 f   xerces-c_3:PlatformUtils.cpp.obj
 0001:0003a440       ?lockMutex@XMLPlatformUtils@xercesc_3_2@@SAXQAX@Z 1003b440 f   xerces-c_3:PlatformUtils.cpp.obj
 0001:0003a480       ?makeMutex@XMLPlatformUtils@xercesc_3_2@@SAPAXQAVMemoryManager@2@@Z 1003b480 f   xerces-c_3:PlatformUtils.cpp.obj
 0001:0003a4c0       ?openFile@XMLPlatformUtils@xercesc_3_2@@SAPAXQB_WQAVMemoryManager@2@@Z 1003b4c0 f   xerces-c_3:PlatformUtils.cpp.obj
 0001:0003a510       ?openFileToWrite@XMLPlatformUtils@xercesc_3_2@@SAPAXQB_WQAVMemoryManager@2@@Z 1003b510 f   xerces-c_3:PlatformUtils.cpp.obj
 0001:0003a560       ?panic@XMLPlatformUtils@xercesc_3_2@@SAXW4PanicReasons@PanicHandler@2@@Z 1003b560 f   xerces-c_3:PlatformUtils.cpp.obj
 0001:0003a580       ?readFileBuffer@XMLPlatformUtils@xercesc_3_2@@SAIPAXIQAEQAVMemoryManager@2@@Z 1003b580 f   xerces-c_3:PlatformUtils.cpp.obj
 0001:0003a5d0       ?removeDotDotSlash@XMLPlatformUtils@xercesc_3_2@@SAXQA_WQAVMemoryManager@2@@Z 1003b5d0 f   xerces-c_3:PlatformUtils.cpp.obj
 0001:0003a7b0       ?removeDotSlash@XMLPlatformUtils@xercesc_3_2@@SAXQA_WQAVMemoryManager@2@@Z 1003b7b0 f   xerces-c_3:PlatformUtils.cpp.obj
 0001:0003a8e0       ?unlockMutex@XMLPlatformUtils@xercesc_3_2@@SAXQAX@Z 1003b8e0 f   xerces-c_3:PlatformUtils.cpp.obj
 0001:0003a920       ?weavePaths@XMLPlatformUtils@xercesc_3_2@@SAPA_WQB_W0QAVMemoryManager@2@@Z 1003b920 f   xerces-c_3:PlatformUtils.cpp.obj
 0001:0003ab50       ?writeBufferToFile@XMLPlatformUtils@xercesc_3_2@@SAXQAXIQBEQAVMemoryManager@2@@Z 1003bb50 f   xerces-c_3:PlatformUtils.cpp.obj
 0001:0003aba0       ??0IOException@xercesc_3_2@@QAE@ABV01@@Z 1003bba0 f i xerces-c_3:XercesDOMParser.cpp.obj
 0001:0003abc0       ??0IOException@xercesc_3_2@@QAE@QBD_KW4Codes@XMLExcepts@1@PAVMemoryManager@1@@Z 1003bbc0 f i xerces-c_3:XercesDOMParser.cpp.obj
 0001:0003ac30       ??0SAXException@xercesc_3_2@@QAE@ABV01@@Z 1003bc30 f i xerces-c_3:XercesDOMParser.cpp.obj
 0001:0003aca0       ??0XercesDOMParser@xercesc_3_2@@QAE@QAVXMLValidator@1@QAVMemoryManager@1@QAVXMLGrammarPool@1@@Z 1003bca0 f   xerces-c_3:XercesDOMParser.cpp.obj
 0001:0003ad00       ??1IOException@xercesc_3_2@@UAE@XZ 1003bd00 f i xerces-c_3:XercesDOMParser.cpp.obj
 0001:0003ad10       ??1SAXException@xercesc_3_2@@UAE@XZ 1003bd10 f i xerces-c_3:XercesDOMParser.cpp.obj
 0001:0003ad60       ??1XercesDOMParser@xercesc_3_2@@UAE@XZ 1003bd60 f   xerces-c_3:XercesDOMParser.cpp.obj
 0001:0003ad87       ??_EXercesDOMParser@xercesc_3_2@@W3AEPAXI@Z 1003bd87 f i xerces-c_3:XercesDOMParser.cpp.obj
 0001:0003ad8f       ??_EXercesDOMParser@xercesc_3_2@@W7AEPAXI@Z 1003bd8f f i xerces-c_3:XercesDOMParser.cpp.obj
 0001:0003ad97       ??_EXercesDOMParser@xercesc_3_2@@WBA@AEPAXI@Z 1003bd97 f i xerces-c_3:XercesDOMParser.cpp.obj
 0001:0003ad9f       ??_EXercesDOMParser@xercesc_3_2@@WM@AEPAXI@Z 1003bd9f f i xerces-c_3:XercesDOMParser.cpp.obj
 0001:0003adb0       ??_EIOException@xercesc_3_2@@UAEPAXI@Z 1003bdb0 f i xerces-c_3:XercesDOMParser.cpp.obj
 0001:0003adb0       ??_GIOException@xercesc_3_2@@UAEPAXI@Z 1003bdb0 f i xerces-c_3:XercesDOMParser.cpp.obj
 0001:0003adf0       ??_ESAXException@xercesc_3_2@@UAEPAXI@Z 1003bdf0 f i xerces-c_3:XercesDOMParser.cpp.obj
 0001:0003adf0       ??_GSAXException@xercesc_3_2@@UAEPAXI@Z 1003bdf0 f i xerces-c_3:XercesDOMParser.cpp.obj
 0001:0003ae80       ??_EXercesDOMParser@xercesc_3_2@@UAEPAXI@Z 1003be80 f i xerces-c_3:XercesDOMParser.cpp.obj
 0001:0003ae80       ??_GXercesDOMParser@xercesc_3_2@@UAEPAXI@Z 1003be80 f i xerces-c_3:XercesDOMParser.cpp.obj
 0001:0003aee0       ?duplicate@IOException@xercesc_3_2@@UBEPAVXMLException@2@XZ 1003bee0 f i xerces-c_3:XercesDOMParser.cpp.obj
 0001:0003af60       ?error@XercesDOMParser@xercesc_3_2@@UAEXIQB_WW4ErrTypes@XMLErrorReporter@2@000_K2@Z 1003bf60 f   xerces-c_3:XercesDOMParser.cpp.obj
 0001:0003b020       ?expandSystemId@DOMLSParserImpl@xercesc_3_2@@UAE_NQB_WAAVXMLBuffer@2@@Z 1003c020 f i xerces-c_3:DOMLSParserImpl.cpp.obj
 0001:0003b020       ?expandSystemId@XercesDOMParser@xercesc_3_2@@UAE_NQB_WAAVXMLBuffer@2@@Z 1003c020 f i xerces-c_3:XercesDOMParser.cpp.obj
 0001:0003b020       ?customNodeSerialize@DOMLSSerializerImpl@xercesc_3_2@@MAE_NQBVDOMNode@2@H@Z 1003c020 f i xerces-c_3:DOMLSSerializerImpl.cpp.obj
 0001:0003b030       ?getType@IOException@xercesc_3_2@@UBEPB_WXZ 1003c030 f i xerces-c_3:XercesDOMParser.cpp.obj
 0001:0003b040       ?getURIText@XercesDOMParser@xercesc_3_2@@QBEPB_WI@Z 1003c040 f   xerces-c_3:XercesDOMParser.cpp.obj
 0001:0003b050       ?resolveEntity@XercesDOMParser@xercesc_3_2@@UAEPAVInputSource@2@PAVXMLResourceIdentifier@2@@Z 1003c050 f   xerces-c_3:XercesDOMParser.cpp.obj
 0001:0003b080       ?setErrorHandler@XercesDOMParser@xercesc_3_2@@QAEXQAVErrorHandler@2@@Z 1003c080 f   xerces-c_3:XercesDOMParser.cpp.obj
 0001:0003b0b0       ?setXMLEntityResolver@XercesDOMParser@xercesc_3_2@@QAEXQAVXMLEntityResolver@2@@Z 1003c0b0 f   xerces-c_3:XercesDOMParser.cpp.obj
 0001:0003b0f0       ??0AbstractDOMParser@xercesc_3_2@@IAE@QAVXMLValidator@1@QAVMemoryManager@1@QAVXMLGrammarPool@1@@Z 1003c0f0 f   xerces-c_3:AbstractDOMParser.cpp.obj
 0001:0003b440       ??0ArrayIndexOutOfBoundsException@xercesc_3_2@@QAE@ABV01@@Z 1003c440 f i xerces-c_3:AbstractDOMParser.cpp.obj
 0001:0003b460       ??0ArrayIndexOutOfBoundsException@xercesc_3_2@@QAE@QBD_KW4Codes@XMLExcepts@1@PAVMemoryManager@1@@Z 1003c460 f i xerces-c_3:AbstractDOMParser.cpp.obj
 0001:0003b4d0       ??1?$JanitorMemFunCall@VXMLAttDef@xercesc_3_2@@@xercesc_3_2@@QAE@XZ 1003c4d0 f i xerces-c_3:XMLAttDef.cpp.obj
 0001:0003b4d0       ??1?$JanitorMemFunCall@VSchemaGrammar@xercesc_3_2@@@xercesc_3_2@@QAE@XZ 1003c4d0 f i xerces-c_3:SchemaGrammar.cpp.obj
 0001:0003b4d0       ??1?$JanitorMemFunCall@VDOMXPathResultImpl@xercesc_3_2@@@xercesc_3_2@@QAE@XZ 1003c4d0 f i xerces-c_3:DOMXPathExpressionImpl.cpp.obj
 0001:0003b4d0       ??1?$JanitorMemFunCall@VDGXMLScanner@xercesc_3_2@@@xercesc_3_2@@QAE@XZ 1003c4d0 f i xerces-c_3:DGXMLScanner.cpp.obj
 0001:0003b4d0       ??1?$JanitorMemFunCall@VXMLGrammarPoolImpl@xercesc_3_2@@@xercesc_3_2@@QAE@XZ 1003c4d0 f i xerces-c_3:XMLGrammarPoolImpl.cpp.obj
 0001:0003b4d0       ??1?$JanitorMemFunCall@VXMLScanner@xercesc_3_2@@@xercesc_3_2@@QAE@XZ 1003c4d0 f i xerces-c_3:XMLScanner.cpp.obj
 0001:0003b4d0       ??1?$JanitorMemFunCall@VQName@xercesc_3_2@@@xercesc_3_2@@QAE@XZ 1003c4d0 f i xerces-c_3:QName.cpp.obj
 0001:0003b4d0       ??1?$JanitorMemFunCall@VWFXMLScanner@xercesc_3_2@@@xercesc_3_2@@QAE@XZ 1003c4d0 f i xerces-c_3:WFXMLScanner.cpp.obj
 0001:0003b4d0       ??1?$JanitorMemFunCall@VXMLNotationDecl@xercesc_3_2@@@xercesc_3_2@@QAE@XZ 1003c4d0 f i xerces-c_3:XMLNotationDecl.cpp.obj
 0001:0003b4d0       ??1?$JanitorMemFunCall@VReaderMgr@xercesc_3_2@@@xercesc_3_2@@QAE@XZ 1003c4d0 f i xerces-c_3:XMLScanner.cpp.obj
 0001:0003b4d0       ??1?$JanitorMemFunCall@VXPathMatcher@xercesc_3_2@@@xercesc_3_2@@QAE@XZ 1003c4d0 f i xerces-c_3:XPathMatcher.cpp.obj
 0001:0003b4d0       ??1?$JanitorMemFunCall@VXMLUri@xercesc_3_2@@@xercesc_3_2@@QAE@XZ 1003c4d0 f i xerces-c_3:XMLUri.cpp.obj
 0001:0003b4d0       ??1?$JanitorMemFunCall@VXMLBigDecimal@xercesc_3_2@@@xercesc_3_2@@QAE@XZ 1003c4d0 f i xerces-c_3:XMLBigDecimal.cpp.obj
 0001:0003b4d0       ??1?$JanitorMemFunCall@VRegularExpression@xercesc_3_2@@@xercesc_3_2@@QAE@XZ 1003c4d0 f i xerces-c_3:RegularExpression.cpp.obj
 0001:0003b4d0       ??1?$JanitorMemFunCall@VXMLURL@xercesc_3_2@@@xercesc_3_2@@QAE@XZ 1003c4d0 f i xerces-c_3:XMLURL.cpp.obj
 0001:0003b4d0       ??1?$JanitorMemFunCall@VIdentityConstraintHandler@xercesc_3_2@@@xercesc_3_2@@QAE@XZ 1003c4d0 f i xerces-c_3:IdentityConstraintHandler.cpp.obj
 0001:0003b4d0       ??1?$JanitorMemFunCall@VUnionDatatypeValidator@xercesc_3_2@@@xercesc_3_2@@QAE@XZ 1003c4d0 f i xerces-c_3:UnionDatatypeValidator.cpp.obj
 0001:0003b4d0       ??1?$JanitorMemFunCall@VIGXMLScanner@xercesc_3_2@@@xercesc_3_2@@QAE@XZ 1003c4d0 f i xerces-c_3:IGXMLScanner.cpp.obj
 0001:0003b4d0       ??1?$JanitorMemFunCall@VAbstractDOMParser@xercesc_3_2@@@xercesc_3_2@@QAE@XZ 1003c4d0 f i xerces-c_3:AbstractDOMParser.cpp.obj
 0001:0003b4d0       ??1?$JanitorMemFunCall@VIdentityConstraint@xercesc_3_2@@@xercesc_3_2@@QAE@XZ 1003c4d0 f i xerces-c_3:IdentityConstraint.cpp.obj
 0001:0003b4d0       ??1?$JanitorMemFunCall@VDOMLSParserImpl@xercesc_3_2@@@xercesc_3_2@@QAE@XZ 1003c4d0 f i xerces-c_3:DOMLSParserImpl.cpp.obj
 0001:0003b4d0       ??1?$JanitorMemFunCall@VXercesXPath@xercesc_3_2@@@xercesc_3_2@@QAE@XZ 1003c4d0 f i xerces-c_3:XercesXPath.cpp.obj
 0001:0003b4d0       ??1?$JanitorMemFunCall@VDOMXPathExpressionImpl@xercesc_3_2@@@xercesc_3_2@@QAE@XZ 1003c4d0 f i xerces-c_3:DOMXPathExpressionImpl.cpp.obj
 0001:0003b4d0       ??1?$JanitorMemFunCall@VSGXMLScanner@xercesc_3_2@@@xercesc_3_2@@QAE@XZ 1003c4d0 f i xerces-c_3:SGXMLScanner.cpp.obj
 0001:0003b4d0       ??1?$JanitorMemFunCall@VXMLEntityDecl@xercesc_3_2@@@xercesc_3_2@@QAE@XZ 1003c4d0 f i xerces-c_3:XMLEntityDecl.cpp.obj
 0001:0003b520       ??1AbstractDOMParser@xercesc_3_2@@UAE@XZ 1003c520 f   xerces-c_3:AbstractDOMParser.cpp.obj
 0001:0003b5b0       ??1ArrayIndexOutOfBoundsException@xercesc_3_2@@UAE@XZ 1003c5b0 f i xerces-c_3:AbstractDOMParser.cpp.obj
 0001:0003b5c0       ??1DocTypeHandler@xercesc_3_2@@UAE@XZ 1003c5c0 f i xerces-c_3:AbstractDOMParser.cpp.obj
 0001:0003b5d0       ??1PSVIHandler@xercesc_3_2@@UAE@XZ 1003c5d0 f i xerces-c_3:AbstractDOMParser.cpp.obj
 0001:0003b5e0       ??1XMLBufBid@xercesc_3_2@@QAE@XZ 1003c5e0 f i xerces-c_3:AbstractDOMParser.cpp.obj
 0001:0003b620       ??1XMLDocumentHandler@xercesc_3_2@@UAE@XZ 1003c620 f i xerces-c_3:AbstractDOMParser.cpp.obj
 0001:0003b630       ??1XMLEntityHandler@xercesc_3_2@@UAE@XZ 1003c630 f i xerces-c_3:AbstractDOMParser.cpp.obj
 0001:0003b640       ??1XMLErrorReporter@xercesc_3_2@@UAE@XZ 1003c640 f i xerces-c_3:AbstractDOMParser.cpp.obj
 0001:0003b640       ??1AnnotationErrorReporter@xercesc_3_2@@UAE@XZ 1003c640 f i xerces-c_3:TraverseSchema.cpp.obj
 0001:0003b650       ??2@YAPAXIPAVDOMDocument@xercesc_3_2@@@Z 1003c650 f i xerces-c_3:AbstractDOMParser.cpp.obj
 0001:0003b679       ??_EAbstractDOMParser@xercesc_3_2@@W3AEPAXI@Z 1003c679 f i xerces-c_3:AbstractDOMParser.cpp.obj
 0001:0003b681       ??_EAbstractDOMParser@xercesc_3_2@@W7AEPAXI@Z 1003c681 f i xerces-c_3:AbstractDOMParser.cpp.obj
 0001:0003b689       ??_EAbstractDOMParser@xercesc_3_2@@WBA@AEPAXI@Z 1003c689 f i xerces-c_3:AbstractDOMParser.cpp.obj
 0001:0003b691       ??_EAbstractDOMParser@xercesc_3_2@@WM@AEPAXI@Z 1003c691 f i xerces-c_3:AbstractDOMParser.cpp.obj
 0001:0003b6a0       ??_E?$BaseRefVectorOf@VDOMDocumentImpl@xercesc_3_2@@@xercesc_3_2@@UAEPAXI@Z 1003c6a0 f i xerces-c_3:AbstractDOMParser.cpp.obj
 0001:0003b6a0       ??_G?$BaseRefVectorOf@VDOMDocumentImpl@xercesc_3_2@@@xercesc_3_2@@UAEPAXI@Z 1003c6a0 f i xerces-c_3:AbstractDOMParser.cpp.obj
 0001:0003b6e0       ??_G?$RefVectorOf@VDOMDocumentImpl@xercesc_3_2@@@xercesc_3_2@@UAEPAXI@Z 1003c6e0 f i xerces-c_3:AbstractDOMParser.cpp.obj
 0001:0003b6e0       ??_E?$RefVectorOf@VDOMDocumentImpl@xercesc_3_2@@@xercesc_3_2@@UAEPAXI@Z 1003c6e0 f i xerces-c_3:AbstractDOMParser.cpp.obj
 0001:0003b780       ??_GAbstractDOMParser@xercesc_3_2@@UAEPAXI@Z 1003c780 f i xerces-c_3:AbstractDOMParser.cpp.obj
 0001:0003b780       ??_EAbstractDOMParser@xercesc_3_2@@UAEPAXI@Z 1003c780 f i xerces-c_3:AbstractDOMParser.cpp.obj
 0001:0003b850       ??_EArrayIndexOutOfBoundsException@xercesc_3_2@@UAEPAXI@Z 1003c850 f i xerces-c_3:AbstractDOMParser.cpp.obj
 0001:0003b850       ??_GArrayIndexOutOfBoundsException@xercesc_3_2@@UAEPAXI@Z 1003c850 f i xerces-c_3:AbstractDOMParser.cpp.obj
 0001:0003b890       ??_GDocTypeHandler@xercesc_3_2@@UAEPAXI@Z 1003c890 f i xerces-c_3:AbstractDOMParser.cpp.obj
 0001:0003b890       ??_EDocTypeHandler@xercesc_3_2@@UAEPAXI@Z 1003c890 f i xerces-c_3:AbstractDOMParser.cpp.obj
 0001:0003b8c0       ??_EPSVIHandler@xercesc_3_2@@UAEPAXI@Z 1003c8c0 f i xerces-c_3:AbstractDOMParser.cpp.obj
 0001:0003b8c0       ??_GPSVIHandler@xercesc_3_2@@UAEPAXI@Z 1003c8c0 f i xerces-c_3:AbstractDOMParser.cpp.obj
 0001:0003b8f0       ??_EXMLDocumentHandler@xercesc_3_2@@UAEPAXI@Z 1003c8f0 f i xerces-c_3:AbstractDOMParser.cpp.obj
 0001:0003b8f0       ??_GXMLDocumentHandler@xercesc_3_2@@UAEPAXI@Z 1003c8f0 f i xerces-c_3:AbstractDOMParser.cpp.obj
 0001:0003b920       ??_GXMLEntityHandler@xercesc_3_2@@UAEPAXI@Z 1003c920 f i xerces-c_3:AbstractDOMParser.cpp.obj
 0001:0003b920       ??_EXMLEntityHandler@xercesc_3_2@@UAEPAXI@Z 1003c920 f i xerces-c_3:AbstractDOMParser.cpp.obj
 0001:0003b950       ??_EXMLErrorReporter@xercesc_3_2@@UAEPAXI@Z 1003c950 f i xerces-c_3:AbstractDOMParser.cpp.obj
 0001:0003b950       ??_GXMLErrorReporter@xercesc_3_2@@UAEPAXI@Z 1003c950 f i xerces-c_3:AbstractDOMParser.cpp.obj
 0001:0003b980       ?TextDecl@AbstractDOMParser@xercesc_3_2@@UAEXQB_W0@Z 1003c980 f   xerces-c_3:AbstractDOMParser.cpp.obj
 0001:0003b9b0       ?XMLDecl@AbstractDOMParser@xercesc_3_2@@UAEXQB_W000@Z 1003c9b0 f   xerces-c_3:AbstractDOMParser.cpp.obj
 0001:0003ba50       ?adoptDocument@AbstractDOMParser@xercesc_3_2@@QAEPAVDOMDocument@2@XZ 1003ca50 f   xerces-c_3:AbstractDOMParser.cpp.obj
 0001:0003ba70       ?append@XMLBuffer@xercesc_3_2@@QAEXQB_W@Z 1003ca70 f i xerces-c_3:AbstractDOMParser.cpp.obj
 0001:0003bac0       ?append@XMLBuffer@xercesc_3_2@@QAEXQB_WI@Z 1003cac0 f i xerces-c_3:AbstractDOMParser.cpp.obj
 0001:0003bb50       ?append@XMLBuffer@xercesc_3_2@@QAEX_W@Z 1003cb50 f i xerces-c_3:AbstractDOMParser.cpp.obj
 0001:0003bb80       ?attDef@AbstractDOMParser@xercesc_3_2@@UAEXABVDTDElementDecl@2@ABVDTDAttDef@2@_N@Z 1003cb80 f   xerces-c_3:AbstractDOMParser.cpp.obj
 0001:0003bf60       ?cleanUp@AbstractDOMParser@xercesc_3_2@@AAEXXZ 1003cf60 f   xerces-c_3:AbstractDOMParser.cpp.obj
 0001:0003bfd0       ?cleanup@?$BaseRefVectorOf@VDatatypeValidator@xercesc_3_2@@@xercesc_3_2@@UAEXXZ 1003cfd0 f i xerces-c_3:XTemplateSerializer.cpp.obj
 0001:0003bfd0       ?cleanup@?$BaseRefVectorOf@VDOMNodeIteratorImpl@xercesc_3_2@@@xercesc_3_2@@UAEXXZ 1003cfd0 f i xerces-c_3:DOMDocumentImpl.cpp.obj
 0001:0003bfd0       ?cleanup@?$BaseRefVectorOf@VToken@xercesc_3_2@@@xercesc_3_2@@UAEXXZ 1003cfd0 f i xerces-c_3:TokenFactory.cpp.obj
 0001:0003bfd0       ?cleanup@?$BaseRefVectorOf@VXSObject@xercesc_3_2@@@xercesc_3_2@@UAEXXZ 1003cfd0 f i xerces-c_3:XSModel.cpp.obj
 0001:0003bfd0       ?cleanup@?$BaseRefVectorOf@VDOMImplementationSource@xercesc_3_2@@@xercesc_3_2@@UAEXXZ 1003cfd0 f i xerces-c_3:DOMImplementationRegistry.cpp.obj
 0001:0003bfd0       ?cleanup@?$BaseRefVectorOf@VXMLEntityDecl@xercesc_3_2@@@xercesc_3_2@@UAEXXZ 1003cfd0 f i xerces-c_3:ReaderMgr.cpp.obj
 0001:0003bfd0       ?cleanup@?$BaseRefVectorOf@VENameMap@xercesc_3_2@@@xercesc_3_2@@UAEXXZ 1003cfd0 f i xerces-c_3:TransService.cpp.obj
 0001:0003bfd0       ?cleanup@?$BaseRefVectorOf@VOp@xercesc_3_2@@@xercesc_3_2@@UAEXXZ 1003cfd0 f i xerces-c_3:Op.cpp.obj
 0001:0003bfd0       ?cleanup@?$BaseRefVectorOf@VXSSimpleTypeDefinition@xercesc_3_2@@@xercesc_3_2@@UAEXXZ 1003cfd0 f i xerces-c_3:XSObjectFactory.cpp.obj
 0001:0003bfd0       ?cleanup@?$BaseRefVectorOf@VXMLElementDecl@xercesc_3_2@@@xercesc_3_2@@UAEXXZ 1003cfd0 f i xerces-c_3:WFXMLScanner.cpp.obj
 0001:0003bfd0       ?cleanup@?$BaseRefVectorOf@VDOMRangeImpl@xercesc_3_2@@@xercesc_3_2@@UAEXXZ 1003cfd0 f i xerces-c_3:DOMDocumentImpl.cpp.obj
 0001:0003bfd0       ?cleanup@?$BaseRefVectorOf@VKVStringPair@xercesc_3_2@@@xercesc_3_2@@UAEXXZ 1003cfd0 f i xerces-c_3:SGXMLScanner.cpp.obj
 0001:0003bfd0       ?cleanup@?$BaseRefVectorOf@VDOMDocumentImpl@xercesc_3_2@@@xercesc_3_2@@UAEXXZ 1003cfd0 f i xerces-c_3:AbstractDOMParser.cpp.obj
 0001:0003bfd0       ?cleanup@?$BaseRefVectorOf@VXSAnnotation@xercesc_3_2@@@xercesc_3_2@@UAEXXZ 1003cfd0 f i xerces-c_3:XSModel.cpp.obj
 0001:0003bfd0       ?cleanup@?$BaseRefVectorOf@VXSFacet@xercesc_3_2@@@xercesc_3_2@@UAEXXZ 1003cfd0 f i xerces-c_3:XSObjectFactory.cpp.obj
 0001:0003bfd0       ?cleanup@?$BaseRefVectorOf@VXSAttributeUse@xercesc_3_2@@@xercesc_3_2@@UAEXXZ 1003cfd0 f i xerces-c_3:XSObjectFactory.cpp.obj
 0001:0003bfd0       ?cleanup@?$BaseRefVectorOf@VXSIDCDefinition@xercesc_3_2@@@xercesc_3_2@@UAEXXZ 1003cfd0 f i xerces-c_3:XSObjectFactory.cpp.obj
 0001:0003bfd0       ?cleanup@?$BaseRefVectorOf@VIC_Field@xercesc_3_2@@@xercesc_3_2@@UAEXXZ 1003cfd0 f i xerces-c_3:XTemplateSerializer.cpp.obj
 0001:0003bfd0       ?cleanup@?$BaseRefVectorOf@VDOMImplementation@xercesc_3_2@@@xercesc_3_2@@UAEXXZ 1003cfd0 f i xerces-c_3:DOMImplementationListImpl.cpp.obj
 0001:0003bfd0       ?cleanup@?$BaseRefVectorOf@VXercesLocationPath@xercesc_3_2@@@xercesc_3_2@@UAEXXZ 1003cfd0 f i xerces-c_3:XTemplateSerializer.cpp.obj
 0001:0003bfd0       ?cleanup@?$BaseRefVectorOf@VSchemaAttDef@xercesc_3_2@@@xercesc_3_2@@UAEXXZ 1003cfd0 f i xerces-c_3:XTemplateSerializer.cpp.obj
 0001:0003bfd0       ?cleanup@?$BaseRefVectorOf@VXMLNumber@xercesc_3_2@@@xercesc_3_2@@UAEXXZ 1003cfd0 f i xerces-c_3:XTemplateSerializer.cpp.obj
 0001:0003bfd0       ?cleanup@?$BaseRefVectorOf@VXercesStep@xercesc_3_2@@@xercesc_3_2@@UAEXXZ 1003cfd0 f i xerces-c_3:XTemplateSerializer.cpp.obj
 0001:0003bfd0       ?cleanup@?$BaseRefVectorOf@VDOMNode@xercesc_3_2@@@xercesc_3_2@@UAEXXZ 1003cfd0 f i xerces-c_3:DOMDocumentImpl.cpp.obj
 0001:0003bfd0       ?cleanup@?$BaseRefVectorOf@VSchemaElementDecl@xercesc_3_2@@@xercesc_3_2@@UAEXXZ 1003cfd0 f i xerces-c_3:XTemplateSerializer.cpp.obj
 0001:0003bfd0       ?cleanup@?$BaseRefVectorOf@VXPathMatcher@xercesc_3_2@@@xercesc_3_2@@UAEXXZ 1003cfd0 f i xerces-c_3:XPathMatcherStack.cpp.obj
 0001:0003bfd0       ?cleanup@?$BaseRefVectorOf@VXSMultiValueFacet@xercesc_3_2@@@xercesc_3_2@@UAEXXZ 1003cfd0 f i xerces-c_3:XSObjectFactory.cpp.obj
 0001:0003bfd0       ?cleanup@?$BaseRefVectorOf@VXSParticle@xercesc_3_2@@@xercesc_3_2@@UAEXXZ 1003cfd0 f i xerces-c_3:XSObjectFactory.cpp.obj
 0001:0003bfd0       ?cleanup@?$BaseRefVectorOf@VIdentityConstraint@xercesc_3_2@@@xercesc_3_2@@UAEXXZ 1003cfd0 f i xerces-c_3:XTemplateSerializer.cpp.obj
 0001:0003c010       ?createAttr@AbstractDOMParser@xercesc_3_2@@MAEPAVDOMAttr@2@PB_W@Z 1003d010 f   xerces-c_3:AbstractDOMParser.cpp.obj
 0001:0003c0a0       ?createAttrNS@AbstractDOMParser@xercesc_3_2@@MAEPAVDOMAttr@2@PB_W000@Z 1003d0a0 f   xerces-c_3:AbstractDOMParser.cpp.obj
 0001:0003c130       ?createCDATASection@AbstractDOMParser@xercesc_3_2@@MAEPAVDOMCDATASection@2@PB_WI@Z 1003d130 f   xerces-c_3:AbstractDOMParser.cpp.obj
 0001:0003c1c0       ?createElement@AbstractDOMParser@xercesc_3_2@@MAEPAVDOMElement@2@PB_W@Z 1003d1c0 f   xerces-c_3:AbstractDOMParser.cpp.obj
 0001:0003c250       ?createElementNS@AbstractDOMParser@xercesc_3_2@@MAEPAVDOMElement@2@PB_W000@Z 1003d250 f   xerces-c_3:AbstractDOMParser.cpp.obj
 0001:0003c2e0       ?createText@AbstractDOMParser@xercesc_3_2@@MAEPAVDOMText@2@PB_WI@Z 1003d2e0 f   xerces-c_3:AbstractDOMParser.cpp.obj
 0001:0003c370       ?docCharacters@AbstractDOMParser@xercesc_3_2@@UAEXQB_WI_N@Z 1003d370 f   xerces-c_3:AbstractDOMParser.cpp.obj
 0001:0003c3e0       ?docComment@AbstractDOMParser@xercesc_3_2@@UAEXQB_W@Z 1003d3e0 f   xerces-c_3:AbstractDOMParser.cpp.obj
 0001:0003c420       ?docPI@AbstractDOMParser@xercesc_3_2@@UAEXQB_W0@Z 1003d420 f   xerces-c_3:AbstractDOMParser.cpp.obj
 0001:0003c460       ?doctypeComment@AbstractDOMParser@xercesc_3_2@@UAEXQB_W@Z 1003d460 f   xerces-c_3:AbstractDOMParser.cpp.obj
 0001:0003c5c0       ?doctypeDecl@AbstractDOMParser@xercesc_3_2@@UAEXABVDTDElementDecl@2@QB_W1_N2@Z 1003d5c0 f   xerces-c_3:AbstractDOMParser.cpp.obj
 0001:0003c600       ?doctypePI@AbstractDOMParser@xercesc_3_2@@UAEXQB_W0@Z 1003d600 f   xerces-c_3:AbstractDOMParser.cpp.obj
 0001:0003c760       ?doctypeWhitespace@AbstractDOMParser@xercesc_3_2@@UAEXQB_WI@Z 1003d760 f   xerces-c_3:AbstractDOMParser.cpp.obj
 0001:0003c790       ?duplicate@ArrayIndexOutOfBoundsException@xercesc_3_2@@UBEPAVXMLException@2@XZ 1003d790 f i xerces-c_3:AbstractDOMParser.cpp.obj
 0001:0003c810       ?elementDecl@AbstractDOMParser@xercesc_3_2@@UAEXABVDTDElementDecl@2@_N@Z 1003d810 f   xerces-c_3:AbstractDOMParser.cpp.obj
 0001:0003c9d0       ?endAttList@AbstractDOMParser@xercesc_3_2@@UAEXABVDTDElementDecl@2@@Z 1003d9d0 f   xerces-c_3:AbstractDOMParser.cpp.obj
 0001:0003cde0       ?endDocument@AbstractDOMParser@xercesc_3_2@@UAEXXZ 1003dde0 f   xerces-c_3:AbstractDOMParser.cpp.obj
 0001:0003ce10       ?endElement@AbstractDOMParser@xercesc_3_2@@UAEXABVXMLElementDecl@2@I_NQB_W@Z 1003de10 f   xerces-c_3:AbstractDOMParser.cpp.obj
 0001:0003cf60       ?endEntityReference@AbstractDOMParser@xercesc_3_2@@UAEXABVXMLEntityDecl@2@@Z 1003df60 f   xerces-c_3:AbstractDOMParser.cpp.obj
 0001:0003cfc0       ?endIntSubset@AbstractDOMParser@xercesc_3_2@@UAEXXZ 1003dfc0 f   xerces-c_3:AbstractDOMParser.cpp.obj
 0001:0003cff0       ?entityDecl@AbstractDOMParser@xercesc_3_2@@UAEXABVDTDEntityDecl@2@_N1@Z 1003dff0 f   xerces-c_3:AbstractDOMParser.cpp.obj
 0001:0003d5b0       ?getDoNamespaces@AbstractDOMParser@xercesc_3_2@@QBE_NXZ 1003e5b0 f   xerces-c_3:AbstractDOMParser.cpp.obj
 0001:0003d5c0       ?getDoSchema@AbstractDOMParser@xercesc_3_2@@QBE_NXZ 1003e5c0 f   xerces-c_3:AbstractDOMParser.cpp.obj
 0001:0003d5d0       ?getDocument@AbstractDOMParser@xercesc_3_2@@QAEPAVDOMDocument@2@XZ 1003e5d0 f   xerces-c_3:AbstractDOMParser.cpp.obj
 0001:0003d5e0       ?getErrorCount@AbstractDOMParser@xercesc_3_2@@QBEIXZ 1003e5e0 f   xerces-c_3:AbstractDOMParser.cpp.obj
 0001:0003d5f0       ?getExitOnFirstFatalError@AbstractDOMParser@xercesc_3_2@@QBE_NXZ 1003e5f0 f   xerces-c_3:AbstractDOMParser.cpp.obj
 0001:0003d600       ?getExternalNoNamespaceSchemaLocation@AbstractDOMParser@xercesc_3_2@@QBEPA_WXZ 1003e600 f   xerces-c_3:AbstractDOMParser.cpp.obj
 0001:0003d610       ?getExternalSchemaLocation@AbstractDOMParser@xercesc_3_2@@QBEPA_WXZ 1003e610 f   xerces-c_3:AbstractDOMParser.cpp.obj
 0001:0003d620       ?getIdentityConstraintChecking@AbstractDOMParser@xercesc_3_2@@QBE_NXZ 1003e620 f   xerces-c_3:AbstractDOMParser.cpp.obj
 0001:0003d630       ?getLoadExternalDTD@AbstractDOMParser@xercesc_3_2@@QBE_NXZ 1003e630 f   xerces-c_3:AbstractDOMParser.cpp.obj
 0001:0003d640       ?getLoadSchema@AbstractDOMParser@xercesc_3_2@@QBE_NXZ 1003e640 f   xerces-c_3:AbstractDOMParser.cpp.obj
 0001:0003d650       ?getLowWaterMark@AbstractDOMParser@xercesc_3_2@@QBEABIXZ 1003e650 f   xerces-c_3:AbstractDOMParser.cpp.obj
 0001:0003d660       ?getPooledString@DOMDocumentImpl@xercesc_3_2@@QAEPB_WPB_W@Z 1003e660 f i xerces-c_3:AbstractDOMParser.cpp.obj
 0001:0003d790       ?getSecurityManager@AbstractDOMParser@xercesc_3_2@@QBEPAVSecurityManager@2@XZ 1003e790 f   xerces-c_3:AbstractDOMParser.cpp.obj
 0001:0003d7a0       ?getType@ArrayIndexOutOfBoundsException@xercesc_3_2@@UBEPB_WXZ 1003e7a0 f i xerces-c_3:AbstractDOMParser.cpp.obj
 0001:0003d7b0       ?getValidationConstraintFatal@AbstractDOMParser@xercesc_3_2@@QBE_NXZ 1003e7b0 f   xerces-c_3:AbstractDOMParser.cpp.obj
 0001:0003d7c0       ?getValidationSchemaFullChecking@AbstractDOMParser@xercesc_3_2@@QBE_NXZ 1003e7c0 f   xerces-c_3:AbstractDOMParser.cpp.obj
 0001:0003d7d0       ?getValidationScheme@AbstractDOMParser@xercesc_3_2@@QBE?AW4ValSchemes@12@XZ 1003e7d0 f   xerces-c_3:AbstractDOMParser.cpp.obj
 0001:0003d7f0       ?handleAttributesPSVI@AbstractDOMParser@xercesc_3_2@@UAEXQB_W0PAVPSVIAttributeList@2@@Z 1003e7f0 f   xerces-c_3:AbstractDOMParser.cpp.obj
 0001:0003dcd0       ?handleElementPSVI@AbstractDOMParser@xercesc_3_2@@UAEXQB_W0PAVPSVIElement@2@@Z 1003ecd0 f   xerces-c_3:AbstractDOMParser.cpp.obj
 0001:0003df40       ?handlePartialElementPSVI@AbstractDOMParser@xercesc_3_2@@UAEXQB_W0PAVPSVIElement@2@@Z 1003ef40 f   xerces-c_3:AbstractDOMParser.cpp.obj
 0001:0003df50       ?handlePartialElementPSVI@PSVIHandler@xercesc_3_2@@UAEXQB_W0PAVPSVIElement@2@@Z 1003ef50 f i xerces-c_3:AbstractDOMParser.cpp.obj
 0001:0003df50       ?matched@XPathMatcher@xercesc_3_2@@MAEXQB_WQAVDatatypeValidator@2@_N@Z 1003ef50 f i xerces-c_3:XPathMatcher.cpp.obj
 0001:0003df50       ?validate@AnySimpleTypeDatatypeValidator@xercesc_3_2@@UAEXQB_WQAVValidationContext@2@QAVMemoryManager@2@@Z 1003ef50 f i xerces-c_3:AnySimpleTypeDatatypeValidator.cpp.obj
 0001:0003df60       ?hash@XMLString@xercesc_3_2@@SAIQB_WI@Z 1003ef60 f i xerces-c_3:AbstractDOMParser.cpp.obj
 0001:0003dfb0       ?ignorableWhitespace@AbstractDOMParser@xercesc_3_2@@UAEXQB_WI_N@Z 1003efb0 f   xerces-c_3:AbstractDOMParser.cpp.obj
 0001:0003e020       ?notationDecl@AbstractDOMParser@xercesc_3_2@@UAEXABVXMLNotationDecl@2@_N@Z 1003f020 f   xerces-c_3:AbstractDOMParser.cpp.obj
 0001:0003e440       ?parse@AbstractDOMParser@xercesc_3_2@@QAEXABVInputSource@2@@Z 1003f440 f   xerces-c_3:AbstractDOMParser.cpp.obj
 0001:0003e530       ?parse@AbstractDOMParser@xercesc_3_2@@QAEXQBD@Z 1003f530 f   xerces-c_3:AbstractDOMParser.cpp.obj
 0001:0003e620       ?parse@AbstractDOMParser@xercesc_3_2@@QAEXQB_W@Z 1003f620 f   xerces-c_3:AbstractDOMParser.cpp.obj
 0001:0003e710       ?release@?$JanitorMemFunCall@VReaderMgr@xercesc_3_2@@@xercesc_3_2@@QAEPAVReaderMgr@2@XZ 1003f710 f i xerces-c_3:XMLScanner.cpp.obj
 0001:0003e710       ?release@?$JanitorMemFunCall@VDOMLSParserImpl@xercesc_3_2@@@xercesc_3_2@@QAEPAVDOMLSParserImpl@2@XZ 1003f710 f i xerces-c_3:DOMLSParserImpl.cpp.obj
 0001:0003e710       ?release@?$JanitorMemFunCall@VSGXMLScanner@xercesc_3_2@@@xercesc_3_2@@QAEPAVSGXMLScanner@2@XZ 1003f710 f i xerces-c_3:SGXMLScanner.cpp.obj
 0001:0003e710       ?release@?$JanitorMemFunCall@VXMLStringTokenizer@xercesc_3_2@@@xercesc_3_2@@QAEPAVXMLStringTokenizer@2@XZ 1003f710 f i xerces-c_3:XMLStringTokenizer.cpp.obj
 0001:0003e710       ?release@?$JanitorMemFunCall@VIdentityConstraintHandler@xercesc_3_2@@@xercesc_3_2@@QAEPAVIdentityConstraintHandler@2@XZ 1003f710 f i xerces-c_3:IdentityConstraintHandler.cpp.obj
 0001:0003e710       ?release@?$JanitorMemFunCall@VIGXMLScanner@xercesc_3_2@@@xercesc_3_2@@QAEPAVIGXMLScanner@2@XZ 1003f710 f i xerces-c_3:IGXMLScanner.cpp.obj
 0001:0003e710       ?release@?$JanitorMemFunCall@VXMLURL@xercesc_3_2@@@xercesc_3_2@@QAEPAVXMLURL@2@XZ 1003f710 f i xerces-c_3:XMLURL.cpp.obj
 0001:0003e710       ?release@?$JanitorMemFunCall@VUnionDatatypeValidator@xercesc_3_2@@@xercesc_3_2@@QAEPAVUnionDatatypeValidator@2@XZ 1003f710 f i xerces-c_3:UnionDatatypeValidator.cpp.obj
 0001:0003e710       ?release@?$JanitorMemFunCall@VFieldValueMap@xercesc_3_2@@@xercesc_3_2@@QAEPAVFieldValueMap@2@XZ 1003f710 f i xerces-c_3:FieldValueMap.cpp.obj
 0001:0003e710       ?release@?$JanitorMemFunCall@VXMLNotationDecl@xercesc_3_2@@@xercesc_3_2@@QAEPAVXMLNotationDecl@2@XZ 1003f710 f i xerces-c_3:XMLNotationDecl.cpp.obj
 0001:0003e710       ?release@?$JanitorMemFunCall@VIdentityConstraint@xercesc_3_2@@@xercesc_3_2@@QAEPAVIdentityConstraint@2@XZ 1003f710 f i xerces-c_3:IdentityConstraint.cpp.obj
 0001:0003e710       ?release@?$JanitorMemFunCall@VXMLAttr@xercesc_3_2@@@xercesc_3_2@@QAEPAVXMLAttr@2@XZ 1003f710 f i xerces-c_3:XMLAttr.cpp.obj
 0001:0003e710       ?release@?$JanitorMemFunCall@VRegularExpression@xercesc_3_2@@@xercesc_3_2@@QAEPAVRegularExpression@2@XZ 1003f710 f i xerces-c_3:RegularExpression.cpp.obj
 0001:0003e710       ?release@?$JanitorMemFunCall@VXMLUri@xercesc_3_2@@@xercesc_3_2@@QAEPAVXMLUri@2@XZ 1003f710 f i xerces-c_3:XMLUri.cpp.obj
 0001:0003e710       ?release@?$Janitor@VXMLDateTime@xercesc_3_2@@@xercesc_3_2@@QAEPAVXMLDateTime@2@XZ 1003f710 f i xerces-c_3:DateTimeDatatypeValidator.cpp.obj
 0001:0003e710       ?release@?$JanitorMemFunCall@VValueStoreCache@xercesc_3_2@@@xercesc_3_2@@QAEPAVValueStoreCache@2@XZ 1003f710 f i xerces-c_3:ValueStoreCache.cpp.obj
 0001:0003e710       ?release@?$JanitorMemFunCall@VBMPattern@xercesc_3_2@@@xercesc_3_2@@QAEPAVBMPattern@2@XZ 1003f710 f i xerces-c_3:BMPattern.cpp.obj
 0001:0003e710       ?release@?$JanitorMemFunCall@VTraverseSchema@xercesc_3_2@@@xercesc_3_2@@QAEPAVTraverseSchema@2@XZ 1003f710 f i xerces-c_3:TraverseSchema.cpp.obj
 0001:0003e710       ?release@?$Janitor@V?$BaseRefVectorOf@_W@xercesc_3_2@@@xercesc_3_2@@QAEPAV?$BaseRefVectorOf@_W@2@XZ 1003f710 f i xerces-c_3:ListDatatypeValidator.cpp.obj
 0001:0003e710       ?release@?$ArrayJanitor@_W@xercesc_3_2@@QAEPA_WXZ 1003f710 f i xerces-c_3:JanitorExports.cpp.obj
 0001:0003e710       ?release@?$JanitorMemFunCall@VXMLGrammarPoolImpl@xercesc_3_2@@@xercesc_3_2@@QAEPAVXMLGrammarPoolImpl@2@XZ 1003f710 f i xerces-c_3:XMLGrammarPoolImpl.cpp.obj
 0001:0003e710       ?release@?$JanitorMemFunCall@VXMLEntityDecl@xercesc_3_2@@@xercesc_3_2@@QAEPAVXMLEntityDecl@2@XZ 1003f710 f i xerces-c_3:XMLEntityDecl.cpp.obj
 0001:0003e710       ?release@?$JanitorMemFunCall@VXercesXPath@xercesc_3_2@@@xercesc_3_2@@QAEPAVXercesXPath@2@XZ 1003f710 f i xerces-c_3:XercesXPath.cpp.obj
 0001:0003e710       ?release@?$JanitorMemFunCall@VWFXMLScanner@xercesc_3_2@@@xercesc_3_2@@QAEPAVWFXMLScanner@2@XZ 1003f710 f i xerces-c_3:WFXMLScanner.cpp.obj
 0001:0003e710       ?release@?$JanitorMemFunCall@VAbstractDOMParser@xercesc_3_2@@@xercesc_3_2@@QAEPAVAbstractDOMParser@2@XZ 1003f710 f i xerces-c_3:AbstractDOMParser.cpp.obj
 0001:0003e710       ?release@?$JanitorMemFunCall@VDOMXPathExpressionImpl@xercesc_3_2@@@xercesc_3_2@@QAEPAVDOMXPathExpressionImpl@2@XZ 1003f710 f i xerces-c_3:DOMXPathExpressionImpl.cpp.obj
 0001:0003e710       ?release@?$JanitorMemFunCall@VSchemaGrammar@xercesc_3_2@@@xercesc_3_2@@QAEPAVSchemaGrammar@2@XZ 1003f710 f i xerces-c_3:SchemaGrammar.cpp.obj
 0001:0003e710       ?release@?$JanitorMemFunCall@VXMLBigDecimal@xercesc_3_2@@@xercesc_3_2@@QAEPAVXMLBigDecimal@2@XZ 1003f710 f i xerces-c_3:XMLBigDecimal.cpp.obj
 0001:0003e710       ?release@?$Janitor@VBinInputStream@xercesc_3_2@@@xercesc_3_2@@QAEPAVBinInputStream@2@XZ 1003f710 f i xerces-c_3:ReaderMgr.cpp.obj
 0001:0003e710       ?release@?$JanitorMemFunCall@VXPathMatcher@xercesc_3_2@@@xercesc_3_2@@QAEPAVXPathMatcher@2@XZ 1003f710 f i xerces-c_3:XPathMatcher.cpp.obj
 0001:0003e710       ?release@?$JanitorMemFunCall@VRangeTokenMap@xercesc_3_2@@@xercesc_3_2@@QAEPAVRangeTokenMap@2@XZ 1003f710 f i xerces-c_3:RangeTokenMap.cpp.obj
 0001:0003e710       ?release@?$ArrayJanitor@E@xercesc_3_2@@QAEPAEXZ 1003f710 f i xerces-c_3:JanitorExports.cpp.obj
 0001:0003e710       ?release@?$JanitorMemFunCall@VXMLScanner@xercesc_3_2@@@xercesc_3_2@@QAEPAVXMLScanner@2@XZ 1003f710 f i xerces-c_3:XMLScanner.cpp.obj
 0001:0003e710       ?release@?$JanitorMemFunCall@VXPathMatcherStack@xercesc_3_2@@@xercesc_3_2@@QAEPAVXPathMatcherStack@2@XZ 1003f710 f i xerces-c_3:XPathMatcherStack.cpp.obj
 0001:0003e710       ?release@?$JanitorMemFunCall@VDGXMLScanner@xercesc_3_2@@@xercesc_3_2@@QAEPAVDGXMLScanner@2@XZ 1003f710 f i xerces-c_3:DGXMLScanner.cpp.obj
 0001:0003e710       ?release@?$JanitorMemFunCall@VQName@xercesc_3_2@@@xercesc_3_2@@QAEPAVQName@2@XZ 1003f710 f i xerces-c_3:QName.cpp.obj
 0001:0003e710       ?release@?$JanitorMemFunCall@VXMLAttDef@xercesc_3_2@@@xercesc_3_2@@QAEPAVXMLAttDef@2@XZ 1003f710 f i xerces-c_3:XMLAttDef.cpp.obj
 0001:0003e720       ?removeAllElements@?$BaseRefVectorOf@VXMLNumber@xercesc_3_2@@@xercesc_3_2@@UAEXXZ 1003f720 f i xerces-c_3:XTemplateSerializer.cpp.obj
 0001:0003e720       ?removeAllElements@?$BaseRefVectorOf@VDOMNode@xercesc_3_2@@@xercesc_3_2@@UAEXXZ 1003f720 f i xerces-c_3:DOMDocumentImpl.cpp.obj
 0001:0003e720       ?removeAllElements@?$BaseRefVectorOf@VXMLElementDecl@xercesc_3_2@@@xercesc_3_2@@UAEXXZ 1003f720 f i xerces-c_3:WFXMLScanner.cpp.obj
 0001:0003e720       ?removeAllElements@?$BaseRefVectorOf@VXSSimpleTypeDefinition@xercesc_3_2@@@xercesc_3_2@@UAEXXZ 1003f720 f i xerces-c_3:XSObjectFactory.cpp.obj
 0001:0003e720       ?removeAllElements@?$BaseRefVectorOf@VIdentityConstraint@xercesc_3_2@@@xercesc_3_2@@UAEXXZ 1003f720 f i xerces-c_3:XTemplateSerializer.cpp.obj
 0001:0003e720       ?removeAllElements@?$BaseRefVectorOf@VIC_Field@xercesc_3_2@@@xercesc_3_2@@UAEXXZ 1003f720 f i xerces-c_3:XTemplateSerializer.cpp.obj
 0001:0003e720       ?removeAllElements@?$BaseRefVectorOf@VXSMultiValueFacet@xercesc_3_2@@@xercesc_3_2@@UAEXXZ 1003f720 f i xerces-c_3:XSObjectFactory.cpp.obj
 0001:0003e720       ?removeAllElements@?$BaseRefVectorOf@VDOMNodeIteratorImpl@xercesc_3_2@@@xercesc_3_2@@UAEXXZ 1003f720 f i xerces-c_3:DOMDocumentImpl.cpp.obj
 0001:0003e720       ?removeAllElements@?$BaseRefVectorOf@VXPathMatcher@xercesc_3_2@@@xercesc_3_2@@UAEXXZ 1003f720 f i xerces-c_3:XPathMatcherStack.cpp.obj
 0001:0003e720       ?removeAllElements@?$BaseRefVectorOf@VXSParticle@xercesc_3_2@@@xercesc_3_2@@UAEXXZ 1003f720 f i xerces-c_3:XSObjectFactory.cpp.obj
 0001:0003e720       ?removeAllElements@?$BaseRefVectorOf@VXMLEntityDecl@xercesc_3_2@@@xercesc_3_2@@UAEXXZ 1003f720 f i xerces-c_3:ReaderMgr.cpp.obj
 0001:0003e720       ?removeAllElements@?$BaseRefVectorOf@VENameMap@xercesc_3_2@@@xercesc_3_2@@UAEXXZ 1003f720 f i xerces-c_3:TransService.cpp.obj
 0001:0003e720       ?removeAllElements@?$BaseRefVectorOf@VDOMImplementationSource@xercesc_3_2@@@xercesc_3_2@@UAEXXZ 1003f720 f i xerces-c_3:DOMImplementationRegistry.cpp.obj
 0001:0003e720       ?removeAllElements@?$BaseRefVectorOf@VXSAttributeUse@xercesc_3_2@@@xercesc_3_2@@UAEXXZ 1003f720 f i xerces-c_3:XSObjectFactory.cpp.obj
 0001:0003e720       ?removeAllElements@?$BaseRefVectorOf@VXSObject@xercesc_3_2@@@xercesc_3_2@@UAEXXZ 1003f720 f i xerces-c_3:XSModel.cpp.obj
 0001:0003e720       ?removeAllElements@?$BaseRefVectorOf@VDatatypeValidator@xercesc_3_2@@@xercesc_3_2@@UAEXXZ 1003f720 f i xerces-c_3:XTemplateSerializer.cpp.obj
 0001:0003e720       ?removeAllElements@?$BaseRefVectorOf@VToken@xercesc_3_2@@@xercesc_3_2@@UAEXXZ 1003f720 f i xerces-c_3:TokenFactory.cpp.obj
 0001:0003e720       ?removeAllElements@?$BaseRefVectorOf@VSchemaAttDef@xercesc_3_2@@@xercesc_3_2@@UAEXXZ 1003f720 f i xerces-c_3:XTemplateSerializer.cpp.obj
 0001:0003e720       ?removeAllElements@?$BaseRefVectorOf@VXercesStep@xercesc_3_2@@@xercesc_3_2@@UAEXXZ 1003f720 f i xerces-c_3:XTemplateSerializer.cpp.obj
 0001:0003e720       ?removeAllElements@?$BaseRefVectorOf@VXSIDCDefinition@xercesc_3_2@@@xercesc_3_2@@UAEXXZ 1003f720 f i xerces-c_3:XSObjectFactory.cpp.obj
 0001:0003e720       ?removeAllElements@?$BaseRefVectorOf@VOp@xercesc_3_2@@@xercesc_3_2@@UAEXXZ 1003f720 f i xerces-c_3:Op.cpp.obj
 0001:0003e720       ?removeAllElements@?$BaseRefVectorOf@VXSAnnotation@xercesc_3_2@@@xercesc_3_2@@UAEXXZ 1003f720 f i xerces-c_3:XSModel.cpp.obj
 0001:0003e720       ?removeAllElements@?$BaseRefVectorOf@VXercesLocationPath@xercesc_3_2@@@xercesc_3_2@@UAEXXZ 1003f720 f i xerces-c_3:XTemplateSerializer.cpp.obj
 0001:0003e720       ?removeAllElements@?$BaseRefVectorOf@VXSFacet@xercesc_3_2@@@xercesc_3_2@@UAEXXZ 1003f720 f i xerces-c_3:XSObjectFactory.cpp.obj
 0001:0003e720       ?removeAllElements@?$BaseRefVectorOf@VSchemaElementDecl@xercesc_3_2@@@xercesc_3_2@@UAEXXZ 1003f720 f i xerces-c_3:XTemplateSerializer.cpp.obj
 0001:0003e720       ?removeAllElements@?$BaseRefVectorOf@VDOMImplementation@xercesc_3_2@@@xercesc_3_2@@UAEXXZ 1003f720 f i xerces-c_3:DOMImplementationListImpl.cpp.obj
 0001:0003e720       ?removeAllElements@?$BaseRefVectorOf@VKVStringPair@xercesc_3_2@@@xercesc_3_2@@UAEXXZ 1003f720 f i xerces-c_3:SGXMLScanner.cpp.obj
 0001:0003e720       ?removeAllElements@?$BaseRefVectorOf@VDOMDocumentImpl@xercesc_3_2@@@xercesc_3_2@@UAEXXZ 1003f720 f i xerces-c_3:AbstractDOMParser.cpp.obj
 0001:0003e720       ?removeAllElements@?$BaseRefVectorOf@VDOMRangeImpl@xercesc_3_2@@@xercesc_3_2@@UAEXXZ 1003f720 f i xerces-c_3:DOMDocumentImpl.cpp.obj
 0001:0003e770       ?removeElementAt@?$BaseRefVectorOf@VXSObject@xercesc_3_2@@@xercesc_3_2@@UAEXI@Z 1003f770 f i xerces-c_3:XSModel.cpp.obj
 0001:0003e770       ?removeElementAt@?$BaseRefVectorOf@VXSMultiValueFacet@xercesc_3_2@@@xercesc_3_2@@UAEXI@Z 1003f770 f i xerces-c_3:XSObjectFactory.cpp.obj
 0001:0003e770       ?removeElementAt@?$BaseRefVectorOf@VENameMap@xercesc_3_2@@@xercesc_3_2@@UAEXI@Z 1003f770 f i xerces-c_3:TransService.cpp.obj
 0001:0003e770       ?removeElementAt@?$BaseRefVectorOf@VDOMNodeIteratorImpl@xercesc_3_2@@@xercesc_3_2@@UAEXI@Z 1003f770 f i xerces-c_3:DOMDocumentImpl.cpp.obj
 0001:0003e770       ?removeElementAt@?$BaseRefVectorOf@VXSIDCDefinition@xercesc_3_2@@@xercesc_3_2@@UAEXI@Z 1003f770 f i xerces-c_3:XSObjectFactory.cpp.obj
 0001:0003e770       ?removeElementAt@?$BaseRefVectorOf@VXSSimpleTypeDefinition@xercesc_3_2@@@xercesc_3_2@@UAEXI@Z 1003f770 f i xerces-c_3:XSObjectFactory.cpp.obj
 0001:0003e770       ?removeElementAt@?$BaseRefVectorOf@VXPathMatcher@xercesc_3_2@@@xercesc_3_2@@UAEXI@Z 1003f770 f i xerces-c_3:XPathMatcherStack.cpp.obj
 0001:0003e770       ?removeElementAt@?$BaseRefVectorOf@VXSAnnotation@xercesc_3_2@@@xercesc_3_2@@UAEXI@Z 1003f770 f i xerces-c_3:XSModel.cpp.obj
 0001:0003e770       ?removeElementAt@?$BaseRefVectorOf@VXMLNumber@xercesc_3_2@@@xercesc_3_2@@UAEXI@Z 1003f770 f i xerces-c_3:XTemplateSerializer.cpp.obj
 0001:0003e770       ?removeElementAt@?$BaseRefVectorOf@VXercesLocationPath@xercesc_3_2@@@xercesc_3_2@@UAEXI@Z 1003f770 f i xerces-c_3:XTemplateSerializer.cpp.obj
 0001:0003e770       ?removeElementAt@?$BaseRefVectorOf@VKVStringPair@xercesc_3_2@@@xercesc_3_2@@UAEXI@Z 1003f770 f i xerces-c_3:SGXMLScanner.cpp.obj
 0001:0003e770       ?removeElementAt@?$BaseRefVectorOf@VXercesStep@xercesc_3_2@@@xercesc_3_2@@UAEXI@Z 1003f770 f i xerces-c_3:XTemplateSerializer.cpp.obj
 0001:0003e770       ?removeElementAt@?$BaseRefVectorOf@VSchemaAttDef@xercesc_3_2@@@xercesc_3_2@@UAEXI@Z 1003f770 f i xerces-c_3:XTemplateSerializer.cpp.obj
 0001:0003e770       ?removeElementAt@?$BaseRefVectorOf@VToken@xercesc_3_2@@@xercesc_3_2@@UAEXI@Z 1003f770 f i xerces-c_3:TokenFactory.cpp.obj
 0001:0003e770       ?removeElementAt@?$BaseRefVectorOf@VXMLEntityDecl@xercesc_3_2@@@xercesc_3_2@@UAEXI@Z 1003f770 f i xerces-c_3:ReaderMgr.cpp.obj
 0001:0003e770       ?removeElementAt@?$BaseRefVectorOf@VDatatypeValidator@xercesc_3_2@@@xercesc_3_2@@UAEXI@Z 1003f770 f i xerces-c_3:XTemplateSerializer.cpp.obj
 0001:0003e770       ?removeElementAt@?$BaseRefVectorOf@VSchemaElementDecl@xercesc_3_2@@@xercesc_3_2@@UAEXI@Z 1003f770 f i xerces-c_3:XTemplateSerializer.cpp.obj
 0001:0003e770       ?removeElementAt@?$BaseRefVectorOf@VXSParticle@xercesc_3_2@@@xercesc_3_2@@UAEXI@Z 1003f770 f i xerces-c_3:XSObjectFactory.cpp.obj
 0001:0003e770       ?removeElementAt@?$BaseRefVectorOf@VDOMNode@xercesc_3_2@@@xercesc_3_2@@UAEXI@Z 1003f770 f i xerces-c_3:DOMDocumentImpl.cpp.obj
 0001:0003e770       ?removeElementAt@?$BaseRefVectorOf@VDOMImplementation@xercesc_3_2@@@xercesc_3_2@@UAEXI@Z 1003f770 f i xerces-c_3:DOMImplementationListImpl.cpp.obj
 0001:0003e770       ?removeElementAt@?$BaseRefVectorOf@VIdentityConstraint@xercesc_3_2@@@xercesc_3_2@@UAEXI@Z 1003f770 f i xerces-c_3:XTemplateSerializer.cpp.obj
 0001:0003e770       ?removeElementAt@?$BaseRefVectorOf@VDOMDocumentImpl@xercesc_3_2@@@xercesc_3_2@@UAEXI@Z 1003f770 f i xerces-c_3:AbstractDOMParser.cpp.obj
 0001:0003e770       ?removeElementAt@?$BaseRefVectorOf@VIC_Field@xercesc_3_2@@@xercesc_3_2@@UAEXI@Z 1003f770 f i xerces-c_3:XTemplateSerializer.cpp.obj
 0001:0003e770       ?removeElementAt@?$BaseRefVectorOf@VXSAttributeUse@xercesc_3_2@@@xercesc_3_2@@UAEXI@Z 1003f770 f i xerces-c_3:XSObjectFactory.cpp.obj
 0001:0003e770       ?removeElementAt@?$BaseRefVectorOf@VDOMRangeImpl@xercesc_3_2@@@xercesc_3_2@@UAEXI@Z 1003f770 f i xerces-c_3:DOMDocumentImpl.cpp.obj
 0001:0003e770       ?removeElementAt@?$BaseRefVectorOf@VXMLElementDecl@xercesc_3_2@@@xercesc_3_2@@UAEXI@Z 1003f770 f i xerces-c_3:WFXMLScanner.cpp.obj
 0001:0003e770       ?removeElementAt@?$BaseRefVectorOf@VOp@xercesc_3_2@@@xercesc_3_2@@UAEXI@Z 1003f770 f i xerces-c_3:Op.cpp.obj
 0001:0003e770       ?removeElementAt@?$BaseRefVectorOf@VDOMImplementationSource@xercesc_3_2@@@xercesc_3_2@@UAEXI@Z 1003f770 f i xerces-c_3:DOMImplementationRegistry.cpp.obj
 0001:0003e770       ?removeElementAt@?$BaseRefVectorOf@VXSFacet@xercesc_3_2@@@xercesc_3_2@@UAEXI@Z 1003f770 f i xerces-c_3:XSObjectFactory.cpp.obj
 0001:0003e820       ?removeLastElement@?$BaseRefVectorOf@VIdentityConstraint@xercesc_3_2@@@xercesc_3_2@@UAEXXZ 1003f820 f i xerces-c_3:XTemplateSerializer.cpp.obj
 0001:0003e820       ?removeLastElement@?$BaseRefVectorOf@VDatatypeValidator@xercesc_3_2@@@xercesc_3_2@@UAEXXZ 1003f820 f i xerces-c_3:XTemplateSerializer.cpp.obj
 0001:0003e820       ?removeLastElement@?$BaseRefVectorOf@VXercesLocationPath@xercesc_3_2@@@xercesc_3_2@@UAEXXZ 1003f820 f i xerces-c_3:XTemplateSerializer.cpp.obj
 0001:0003e820       ?removeLastElement@?$BaseRefVectorOf@VDOMDocumentImpl@xercesc_3_2@@@xercesc_3_2@@UAEXXZ 1003f820 f i xerces-c_3:AbstractDOMParser.cpp.obj
 0001:0003e820       ?removeLastElement@?$BaseRefVectorOf@VENameMap@xercesc_3_2@@@xercesc_3_2@@UAEXXZ 1003f820 f i xerces-c_3:TransService.cpp.obj
 0001:0003e820       ?removeLastElement@?$BaseRefVectorOf@VXSFacet@xercesc_3_2@@@xercesc_3_2@@UAEXXZ 1003f820 f i xerces-c_3:XSObjectFactory.cpp.obj
 0001:0003e820       ?removeLastElement@?$BaseRefVectorOf@VDOMNodeIteratorImpl@xercesc_3_2@@@xercesc_3_2@@UAEXXZ 1003f820 f i xerces-c_3:DOMDocumentImpl.cpp.obj
 0001:0003e820       ?removeLastElement@?$BaseRefVectorOf@VXMLNumber@xercesc_3_2@@@xercesc_3_2@@UAEXXZ 1003f820 f i xerces-c_3:XTemplateSerializer.cpp.obj
 0001:0003e820       ?removeLastElement@?$BaseRefVectorOf@VXSSimpleTypeDefinition@xercesc_3_2@@@xercesc_3_2@@UAEXXZ 1003f820 f i xerces-c_3:XSObjectFactory.cpp.obj
 0001:0003e820       ?removeLastElement@?$BaseRefVectorOf@VXercesStep@xercesc_3_2@@@xercesc_3_2@@UAEXXZ 1003f820 f i xerces-c_3:XTemplateSerializer.cpp.obj
 0001:0003e820       ?removeLastElement@?$BaseRefVectorOf@VIC_Field@xercesc_3_2@@@xercesc_3_2@@UAEXXZ 1003f820 f i xerces-c_3:XTemplateSerializer.cpp.obj
 0001:0003e820       ?removeLastElement@?$BaseRefVectorOf@VXSAttributeUse@xercesc_3_2@@@xercesc_3_2@@UAEXXZ 1003f820 f i xerces-c_3:XSObjectFactory.cpp.obj
 0001:0003e820       ?removeLastElement@?$BaseRefVectorOf@VOp@xercesc_3_2@@@xercesc_3_2@@UAEXXZ 1003f820 f i xerces-c_3:Op.cpp.obj
 0001:0003e820       ?removeLastElement@?$BaseRefVectorOf@VSchemaElementDecl@xercesc_3_2@@@xercesc_3_2@@UAEXXZ 1003f820 f i xerces-c_3:XTemplateSerializer.cpp.obj
 0001:0003e820       ?removeLastElement@?$BaseRefVectorOf@VXSMultiValueFacet@xercesc_3_2@@@xercesc_3_2@@UAEXXZ 1003f820 f i xerces-c_3:XSObjectFactory.cpp.obj
 0001:0003e820       ?removeLastElement@?$BaseRefVectorOf@VToken@xercesc_3_2@@@xercesc_3_2@@UAEXXZ 1003f820 f i xerces-c_3:TokenFactory.cpp.obj
 0001:0003e820       ?removeLastElement@?$BaseRefVectorOf@VXMLElementDecl@xercesc_3_2@@@xercesc_3_2@@UAEXXZ 1003f820 f i xerces-c_3:WFXMLScanner.cpp.obj
 0001:0003e820       ?removeLastElement@?$BaseRefVectorOf@VXSParticle@xercesc_3_2@@@xercesc_3_2@@UAEXXZ 1003f820 f i xerces-c_3:XSObjectFactory.cpp.obj
 0001:0003e820       ?removeLastElement@?$BaseRefVectorOf@VDOMNode@xercesc_3_2@@@xercesc_3_2@@UAEXXZ 1003f820 f i xerces-c_3:DOMDocumentImpl.cpp.obj
 0001:0003e820       ?removeLastElement@?$BaseRefVectorOf@VXSAnnotation@xercesc_3_2@@@xercesc_3_2@@UAEXXZ 1003f820 f i xerces-c_3:XSModel.cpp.obj
 0001:0003e820       ?removeLastElement@?$BaseRefVectorOf@VDOMImplementation@xercesc_3_2@@@xercesc_3_2@@UAEXXZ 1003f820 f i xerces-c_3:DOMImplementationListImpl.cpp.obj
 0001:0003e820       ?removeLastElement@?$BaseRefVectorOf@VDOMRangeImpl@xercesc_3_2@@@xercesc_3_2@@UAEXXZ 1003f820 f i xerces-c_3:DOMDocumentImpl.cpp.obj
 0001:0003e820       ?removeLastElement@?$BaseRefVectorOf@VDOMImplementationSource@xercesc_3_2@@@xercesc_3_2@@UAEXXZ 1003f820 f i xerces-c_3:DOMImplementationRegistry.cpp.obj
 0001:0003e820       ?removeLastElement@?$BaseRefVectorOf@VKVStringPair@xercesc_3_2@@@xercesc_3_2@@UAEXXZ 1003f820 f i xerces-c_3:SGXMLScanner.cpp.obj
 0001:0003e820       ?removeLastElement@?$BaseRefVectorOf@VXPathMatcher@xercesc_3_2@@@xercesc_3_2@@UAEXXZ 1003f820 f i xerces-c_3:XPathMatcherStack.cpp.obj
 0001:0003e820       ?removeLastElement@?$BaseRefVectorOf@VXSObject@xercesc_3_2@@@xercesc_3_2@@UAEXXZ 1003f820 f i xerces-c_3:XSModel.cpp.obj
 0001:0003e820       ?removeLastElement@?$BaseRefVectorOf@VSchemaAttDef@xercesc_3_2@@@xercesc_3_2@@UAEXXZ 1003f820 f i xerces-c_3:XTemplateSerializer.cpp.obj
 0001:0003e820       ?removeLastElement@?$BaseRefVectorOf@VXSIDCDefinition@xercesc_3_2@@@xercesc_3_2@@UAEXXZ 1003f820 f i xerces-c_3:XSObjectFactory.cpp.obj
 0001:0003e820       ?removeLastElement@?$BaseRefVectorOf@VXMLEntityDecl@xercesc_3_2@@@xercesc_3_2@@UAEXXZ 1003f820 f i xerces-c_3:ReaderMgr.cpp.obj
 0001:0003e850       ?reset@AbstractDOMParser@xercesc_3_2@@QAEXXZ 1003f850 f   xerces-c_3:AbstractDOMParser.cpp.obj
 0001:0003ea40       ?resetDocType@AbstractDOMParser@xercesc_3_2@@UAEXXZ 1003fa40 f   xerces-c_3:AbstractDOMParser.cpp.obj
 0001:0003ea50       ?resetDocument@AbstractDOMParser@xercesc_3_2@@UAEXXZ 1003fa50 f   xerces-c_3:AbstractDOMParser.cpp.obj
 0001:0003ea60       ?resetInProgress@AbstractDOMParser@xercesc_3_2@@AAEXXZ 1003fa60 f   xerces-c_3:AbstractDOMParser.cpp.obj
 0001:0003ea70       ?resetPool@AbstractDOMParser@xercesc_3_2@@IAEXXZ 1003fa70 f   xerces-c_3:AbstractDOMParser.cpp.obj
 0001:0003eae0       ?set@XMLBuffer@xercesc_3_2@@QAEXQB_WI@Z 1003fae0 f i xerces-c_3:AbstractDOMParser.cpp.obj
 0001:0003eaf0       ?setCreateSchemaInfo@AbstractDOMParser@xercesc_3_2@@QAEX_N@Z 1003faf0 f   xerces-c_3:AbstractDOMParser.cpp.obj
 0001:0003eb20       ?setDoNamespaces@AbstractDOMParser@xercesc_3_2@@QAEX_N@Z 1003fb20 f   xerces-c_3:AbstractDOMParser.cpp.obj
 0001:0003eb30       ?setDoSchema@AbstractDOMParser@xercesc_3_2@@QAEX_N@Z 1003fb30 f   xerces-c_3:AbstractDOMParser.cpp.obj
 0001:0003eb40       ?setElementAt@?$BaseRefVectorOf@VXPathMatcher@xercesc_3_2@@@xercesc_3_2@@UAEXQAVXPathMatcher@2@I@Z 1003fb40 f i xerces-c_3:XPathMatcherStack.cpp.obj
 0001:0003eb40       ?setElementAt@?$BaseRefVectorOf@VXSIDCDefinition@xercesc_3_2@@@xercesc_3_2@@UAEXQAVXSIDCDefinition@2@I@Z 1003fb40 f i xerces-c_3:XSObjectFactory.cpp.obj
 0001:0003eb40       ?setElementAt@?$BaseRefVectorOf@VXercesLocationPath@xercesc_3_2@@@xercesc_3_2@@UAEXQAVXercesLocationPath@2@I@Z 1003fb40 f i xerces-c_3:XTemplateSerializer.cpp.obj
 0001:0003eb40       ?setElementAt@?$BaseRefVectorOf@VToken@xercesc_3_2@@@xercesc_3_2@@UAEXQAVToken@2@I@Z 1003fb40 f i xerces-c_3:TokenFactory.cpp.obj
 0001:0003eb40       ?setElementAt@?$BaseRefVectorOf@VXSAnnotation@xercesc_3_2@@@xercesc_3_2@@UAEXQAVXSAnnotation@2@I@Z 1003fb40 f i xerces-c_3:XSModel.cpp.obj
 0001:0003eb40       ?setElementAt@?$BaseRefVectorOf@VXSMultiValueFacet@xercesc_3_2@@@xercesc_3_2@@UAEXQAVXSMultiValueFacet@2@I@Z 1003fb40 f i xerces-c_3:XSObjectFactory.cpp.obj
 0001:0003eb40       ?setElementAt@?$BaseRefVectorOf@VOp@xercesc_3_2@@@xercesc_3_2@@UAEXQAVOp@2@I@Z 1003fb40 f i xerces-c_3:Op.cpp.obj
 0001:0003eb40       ?setElementAt@?$BaseRefVectorOf@VDatatypeValidator@xercesc_3_2@@@xercesc_3_2@@UAEXQAVDatatypeValidator@2@I@Z 1003fb40 f i xerces-c_3:XTemplateSerializer.cpp.obj
 0001:0003eb40       ?setElementAt@?$BaseRefVectorOf@VXSAttributeUse@xercesc_3_2@@@xercesc_3_2@@UAEXQAVXSAttributeUse@2@I@Z 1003fb40 f i xerces-c_3:XSObjectFactory.cpp.obj
 0001:0003eb40       ?setElementAt@?$BaseRefVectorOf@VXSParticle@xercesc_3_2@@@xercesc_3_2@@UAEXQAVXSParticle@2@I@Z 1003fb40 f i xerces-c_3:XSObjectFactory.cpp.obj
 0001:0003eb40       ?setElementAt@?$BaseRefVectorOf@VDOMNodeIteratorImpl@xercesc_3_2@@@xercesc_3_2@@UAEXQAVDOMNodeIteratorImpl@2@I@Z 1003fb40 f i xerces-c_3:DOMDocumentImpl.cpp.obj
 0001:0003eb40       ?setElementAt@?$BaseRefVectorOf@VDOMImplementationSource@xercesc_3_2@@@xercesc_3_2@@UAEXQAVDOMImplementationSource@2@I@Z 1003fb40 f i xerces-c_3:DOMImplementationRegistry.cpp.obj
 0001:0003eb40       ?setElementAt@?$BaseRefVectorOf@VDOMDocumentImpl@xercesc_3_2@@@xercesc_3_2@@UAEXQAVDOMDocumentImpl@2@I@Z 1003fb40 f i xerces-c_3:AbstractDOMParser.cpp.obj
 0001:0003eb40       ?setElementAt@?$BaseRefVectorOf@VXSFacet@xercesc_3_2@@@xercesc_3_2@@UAEXQAVXSFacet@2@I@Z 1003fb40 f i xerces-c_3:XSObjectFactory.cpp.obj
 0001:0003eb40       ?setElementAt@?$BaseRefVectorOf@VIdentityConstraint@xercesc_3_2@@@xercesc_3_2@@UAEXQAVIdentityConstraint@2@I@Z 1003fb40 f i xerces-c_3:XTemplateSerializer.cpp.obj
 0001:0003eb40       ?setElementAt@?$BaseRefVectorOf@VDOMNode@xercesc_3_2@@@xercesc_3_2@@UAEXQAVDOMNode@2@I@Z 1003fb40 f i xerces-c_3:DOMDocumentImpl.cpp.obj
 0001:0003eb40       ?setElementAt@?$BaseRefVectorOf@VIC_Field@xercesc_3_2@@@xercesc_3_2@@UAEXQAVIC_Field@2@I@Z 1003fb40 f i xerces-c_3:XTemplateSerializer.cpp.obj
 0001:0003eb40       ?setElementAt@?$BaseRefVectorOf@VDOMImplementation@xercesc_3_2@@@xercesc_3_2@@UAEXQAVDOMImplementation@2@I@Z 1003fb40 f i xerces-c_3:DOMImplementationListImpl.cpp.obj
 0001:0003eb40       ?setElementAt@?$BaseRefVectorOf@VXSSimpleTypeDefinition@xercesc_3_2@@@xercesc_3_2@@UAEXQAVXSSimpleTypeDefinition@2@I@Z 1003fb40 f i xerces-c_3:XSObjectFactory.cpp.obj
 0001:0003eb40       ?setElementAt@?$BaseRefVectorOf@VXercesStep@xercesc_3_2@@@xercesc_3_2@@UAEXQAVXercesStep@2@I@Z 1003fb40 f i xerces-c_3:XTemplateSerializer.cpp.obj
 0001:0003eb40       ?setElementAt@?$BaseRefVectorOf@VXSObject@xercesc_3_2@@@xercesc_3_2@@UAEXQAVXSObject@2@I@Z 1003fb40 f i xerces-c_3:XSModel.cpp.obj
 0001:0003eb40       ?setElementAt@?$BaseRefVectorOf@VXMLNumber@xercesc_3_2@@@xercesc_3_2@@UAEXQAVXMLNumber@2@I@Z 1003fb40 f i xerces-c_3:XTemplateSerializer.cpp.obj
 0001:0003eb40       ?setElementAt@?$BaseRefVectorOf@VKVStringPair@xercesc_3_2@@@xercesc_3_2@@UAEXQAVKVStringPair@2@I@Z 1003fb40 f i xerces-c_3:SGXMLScanner.cpp.obj
 0001:0003eb40       ?setElementAt@?$BaseRefVectorOf@VXMLElementDecl@xercesc_3_2@@@xercesc_3_2@@UAEXQAVXMLElementDecl@2@I@Z 1003fb40 f i xerces-c_3:WFXMLScanner.cpp.obj
 0001:0003eb40       ?setElementAt@?$BaseRefVectorOf@VSchemaElementDecl@xercesc_3_2@@@xercesc_3_2@@UAEXQAVSchemaElementDecl@2@I@Z 1003fb40 f i xerces-c_3:XTemplateSerializer.cpp.obj
 0001:0003eb40       ?setElementAt@?$BaseRefVectorOf@VDOMRangeImpl@xercesc_3_2@@@xercesc_3_2@@UAEXQAVDOMRangeImpl@2@I@Z 1003fb40 f i xerces-c_3:DOMDocumentImpl.cpp.obj
 0001:0003eb40       ?setElementAt@?$BaseRefVectorOf@VSchemaAttDef@xercesc_3_2@@@xercesc_3_2@@UAEXQAVSchemaAttDef@2@I@Z 1003fb40 f i xerces-c_3:XTemplateSerializer.cpp.obj
 0001:0003eb40       ?setElementAt@?$BaseRefVectorOf@VXMLEntityDecl@xercesc_3_2@@@xercesc_3_2@@UAEXQAVXMLEntityDecl@2@I@Z 1003fb40 f i xerces-c_3:ReaderMgr.cpp.obj
 0001:0003eb40       ?setElementAt@?$BaseRefVectorOf@VENameMap@xercesc_3_2@@@xercesc_3_2@@UAEXQAVENameMap@2@I@Z 1003fb40 f i xerces-c_3:TransService.cpp.obj
 0001:0003eba0       ?setExitOnFirstFatalError@AbstractDOMParser@xercesc_3_2@@QAEX_N@Z 1003fba0 f   xerces-c_3:AbstractDOMParser.cpp.obj
 0001:0003ebb0       ?setExternalNoNamespaceSchemaLocation@AbstractDOMParser@xercesc_3_2@@QAEXQB_W@Z 1003fbb0 f   xerces-c_3:AbstractDOMParser.cpp.obj
 0001:0003ec20       ?setExternalSchemaLocation@AbstractDOMParser@xercesc_3_2@@QAEXQB_W@Z 1003fc20 f   xerces-c_3:AbstractDOMParser.cpp.obj
 0001:0003ec90       ?setLoadExternalDTD@AbstractDOMParser@xercesc_3_2@@QAEX_N@Z 1003fc90 f   xerces-c_3:AbstractDOMParser.cpp.obj
 0001:0003eca0       ?setLoadSchema@AbstractDOMParser@xercesc_3_2@@QAEX_N@Z 1003fca0 f   xerces-c_3:AbstractDOMParser.cpp.obj
 0001:0003ecb0       ?setLowWaterMark@AbstractDOMParser@xercesc_3_2@@QAEXI@Z 1003fcb0 f   xerces-c_3:AbstractDOMParser.cpp.obj
 0001:0003ecc0       ?setPSVIHandler@AbstractDOMParser@xercesc_3_2@@UAEXQAVPSVIHandler@2@@Z 1003fcc0 f   xerces-c_3:AbstractDOMParser.cpp.obj
 0001:0003ecf0       ?setSecurityManager@AbstractDOMParser@xercesc_3_2@@QAEXQAVSecurityManager@2@@Z 1003fcf0 f   xerces-c_3:AbstractDOMParser.cpp.obj
 0001:0003ed50       ?setSkipDTDValidation@AbstractDOMParser@xercesc_3_2@@QAEX_N@Z 1003fd50 f   xerces-c_3:AbstractDOMParser.cpp.obj
 0001:0003ed60       ?setValidationConstraintFatal@AbstractDOMParser@xercesc_3_2@@QAEX_N@Z 1003fd60 f   xerces-c_3:AbstractDOMParser.cpp.obj
 0001:0003ed70       ?setValidationSchemaFullChecking@AbstractDOMParser@xercesc_3_2@@QAEX_N@Z 1003fd70 f   xerces-c_3:AbstractDOMParser.cpp.obj
 0001:0003ed80       ?setValidationScheme@AbstractDOMParser@xercesc_3_2@@QAEXW4ValSchemes@12@@Z 1003fd80 f   xerces-c_3:AbstractDOMParser.cpp.obj
 0001:0003edc0       ?startAttList@AbstractDOMParser@xercesc_3_2@@UAEXABVDTDElementDecl@2@@Z 1003fdc0 f   xerces-c_3:AbstractDOMParser.cpp.obj
 0001:0003eef0       ?startDocument@AbstractDOMParser@xercesc_3_2@@UAEXXZ 1003fef0 f   xerces-c_3:AbstractDOMParser.cpp.obj
 0001:0003ef80       ?startElement@AbstractDOMParser@xercesc_3_2@@UAEXABVXMLElementDecl@2@IQB_WABV?$RefVectorOf@VXMLAttr@xercesc_3_2@@@2@I_N3@Z 1003ff80 f   xerces-c_3:AbstractDOMParser.cpp.obj
 0001:0003f650       ?startEntityReference@AbstractDOMParser@xercesc_3_2@@UAEXABVXMLEntityDecl@2@@Z 10040650 f   xerces-c_3:AbstractDOMParser.cpp.obj
 0001:0003f6e0       ?startIntSubset@AbstractDOMParser@xercesc_3_2@@UAEXXZ 100406e0 f   xerces-c_3:AbstractDOMParser.cpp.obj
 0001:0003f6f0       ?useScanner@AbstractDOMParser@xercesc_3_2@@QAEXQB_W@Z 100406f0 f   xerces-c_3:AbstractDOMParser.cpp.obj
 0001:0003f740       ??0SAXParseException@xercesc_3_2@@QAE@ABV01@@Z 10040740 f   xerces-c_3:SAXParseException.cpp.obj
 0001:0003f8a0       ??0SAXParseException@xercesc_3_2@@QAE@QB_W00_K1QAVMemoryManager@1@@Z 100408a0 f   xerces-c_3:SAXParseException.cpp.obj
 0001:0003f9e0       ??1SAXParseException@xercesc_3_2@@UAE@XZ 100409e0 f   xerces-c_3:SAXParseException.cpp.obj
 0001:0003fa50       ??_ESAXParseException@xercesc_3_2@@UAEPAXI@Z 10040a50 f i xerces-c_3:SAXParseException.cpp.obj
 0001:0003fa50       ??_GSAXParseException@xercesc_3_2@@UAEPAXI@Z 10040a50 f i xerces-c_3:SAXParseException.cpp.obj
 0001:0003fb00       ?getColumnNumber@DOMLocatorImpl@xercesc_3_2@@UBE_KXZ 10040b00 f   xerces-c_3:DOMLocatorImpl.cpp.obj
 0001:0003fb00       ?getColumnNumber@SAXParseException@xercesc_3_2@@QBE_KXZ 10040b00 f   xerces-c_3:SAXParseException.cpp.obj
 0001:0003fb00       ?getColumnNumber@XSDLocator@xercesc_3_2@@UBE_KXZ 10040b00 f   xerces-c_3:XSDLocator.cpp.obj
 0001:0003fb10       ?getLineNumber@SAXParseException@xercesc_3_2@@QBE_KXZ 10040b10 f   xerces-c_3:SAXParseException.cpp.obj
 0001:0003fb10       ?getByteOffset@DOMLocatorImpl@xercesc_3_2@@UBE_KXZ 10040b10 f   xerces-c_3:DOMLocatorImpl.cpp.obj
 0001:0003fb20       ?getSystemId@SAXParseException@xercesc_3_2@@QBEPB_WXZ 10040b20 f   xerces-c_3:SAXParseException.cpp.obj
 0001:0003fb20       ?getContentSpec@DTDElementDecl@xercesc_3_2@@UAEPAVContentSpecNode@2@XZ 10040b20 f   xerces-c_3:DTDElementDecl.cpp.obj
 0001:0003fb20       ?getInitialDepth@SelectorMatcher@xercesc_3_2@@UBEHXZ 10040b20 f   xerces-c_3:IC_Selector.cpp.obj
 0001:0003fb20       ?getOwnerDocument@DOMEntityReferenceImpl@xercesc_3_2@@UBEPAVDOMDocument@2@XZ 10040b20 f   xerces-c_3:DOMEntityReferenceImpl.cpp.obj
 0001:0003fb20       ?getTypeDefinition@PSVIAttribute@xercesc_3_2@@UAEPAVXSTypeDefinition@2@XZ 10040b20 f   xerces-c_3:PSVIAttribute.cpp.obj
 0001:0003fb20       ?getOwnerDocument@DOMElementImpl@xercesc_3_2@@UBEPAVDOMDocument@2@XZ 10040b20 f   xerces-c_3:DOMElementImpl.cpp.obj
 0001:0003fb20       ?getContentSpec@DTDElementDecl@xercesc_3_2@@UBEPBVContentSpecNode@2@XZ 10040b20 f   xerces-c_3:DTDElementDecl.cpp.obj
 0001:0003fb20       ?GetNodeId@ExecutionResource@details@Concurrency@@UBEIXZ 10040b20 f   libconcrt:ExecutionResource.obj
 0001:0003fb20       ?getMemoryManager@XMLAbstractDoubleFloat@xercesc_3_2@@QBEPAVMemoryManager@2@XZ 10040b20 f   xerces-c_3:DoubleDatatypeValidator.cpp.obj
 0001:0003fb20       ?getTypeDefinition@PSVIElement@xercesc_3_2@@UAEPAVXSTypeDefinition@2@XZ 10040b20 f   xerces-c_3:PSVIElement.cpp.obj
 0001:0003fb20       ?getOwnerDocument@DOMDocumentTypeImpl@xercesc_3_2@@UBEPAVDOMDocument@2@XZ 10040b20 f   xerces-c_3:DOMDocumentTypeImpl.cpp.obj
 0001:0003fb30       ??2XMemory@xercesc_3_2@@SAPAXI@Z 10040b30 f   xerces-c_3:XMemory.cpp.obj
 0001:0003fb50       ??2XMemory@xercesc_3_2@@SAPAXIPAVMemoryManager@1@@Z 10040b50 f   xerces-c_3:XMemory.cpp.obj
 0001:0003fb70       ??3XMemory@xercesc_3_2@@SAXPAXPAVMemoryManager@1@@Z 10040b70 f   xerces-c_3:XMemory.cpp.obj
 0001:0003fb70       ??3XMemory@xercesc_3_2@@SAXPAX@Z 10040b70 f   xerces-c_3:XMemory.cpp.obj
 0001:0003fbc0       ??0?$RefArrayVectorOf@_W@xercesc_3_2@@QAE@I_NQAVMemoryManager@1@@Z 10040bc0 f i xerces-c_3:XMLString.cpp.obj
 0001:0003fc30       ??0IllegalArgumentException@xercesc_3_2@@QAE@ABV01@@Z 10040c30 f i xerces-c_3:XMLString.cpp.obj
 0001:0003fc50       ??0IllegalArgumentException@xercesc_3_2@@QAE@QBD_KW4Codes@XMLExcepts@1@PAVMemoryManager@1@@Z 10040c50 f i xerces-c_3:XMLString.cpp.obj
 0001:0003fcc0       ??0NumberFormatException@xercesc_3_2@@QAE@ABV01@@Z 10040cc0 f i xerces-c_3:XMLString.cpp.obj
 0001:0003fce0       ??0NumberFormatException@xercesc_3_2@@QAE@QBD_KW4Codes@XMLExcepts@1@PAVMemoryManager@1@@Z 10040ce0 f i xerces-c_3:XMLString.cpp.obj
 0001:0003fd50       ??1?$ArrayJanitor@H@xercesc_3_2@@QAE@XZ 10040d50 f i xerces-c_3:XMLRangeFactory.cpp.obj
 0001:0003fd50       ??1?$ArrayJanitor@PAU?$ValueHashTableBucketElem@W4FilterAction@DOMLSParserFilter@xercesc_3_2@@@xercesc_3_2@@@xercesc_3_2@@QAE@XZ 10040d50 f i xerces-c_3:DOMLSParserImpl.cpp.obj
 0001:0003fd50       ??1?$ArrayJanitor@PAU?$RefHashTableBucketElem@VXMLAttDef@xercesc_3_2@@@xercesc_3_2@@@xercesc_3_2@@QAE@XZ 10040d50 f i xerces-c_3:XTemplateSerializer.cpp.obj
 0001:0003fd50       ??1?$ArrayJanitor@PAU?$RefHash2KeysTableBucketElem@VIdentityConstraint@xercesc_3_2@@@xercesc_3_2@@@xercesc_3_2@@QAE@XZ 10040d50 f i xerces-c_3:TraverseSchema.cpp.obj
 0001:0003fd50       ??1?$ArrayJanitor@PAU?$RefHashTableBucketElem@UPoolElem@XMLStringPool@xercesc_3_2@@@xercesc_3_2@@@xercesc_3_2@@QAE@XZ 10040d50 f i xerces-c_3:StringPool.cpp.obj
 0001:0003fd50       ??1?$ArrayJanitor@PAU?$ValueHashTableBucketElem@I@xercesc_3_2@@@xercesc_3_2@@QAE@XZ 10040d50 f i xerces-c_3:DOMLSParserImpl.cpp.obj
 0001:0003fd50       ??1?$ArrayJanitor@_W@xercesc_3_2@@QAE@XZ 10040d50 f i xerces-c_3:JanitorExports.cpp.obj
 0001:0003fd50       ??1?$ArrayJanitor@PAU?$RefHashTableBucketElem@VXMLInteger@xercesc_3_2@@@xercesc_3_2@@@xercesc_3_2@@QAE@XZ 10040d50 f i xerces-c_3:DFAContentModel.cpp.obj
 0001:0003fd50       ??1?$ArrayJanitor@PAU?$RefHashTableBucketElem@VXSerializedObjectId@xercesc_3_2@@@xercesc_3_2@@@xercesc_3_2@@QAE@XZ 10040d50 f i xerces-c_3:XSerializeEngine.cpp.obj
 0001:0003fd50       ??1?$ArrayJanitor@PAU?$RefHashTableBucketElem@VKVStringPair@xercesc_3_2@@@xercesc_3_2@@@xercesc_3_2@@QAE@XZ 10040d50 f i xerces-c_3:DatatypeValidatorFactory.cpp.obj
 0001:0003fd50       ??1?$ArrayJanitor@PAU?$ValueHashTableBucketElem@W4DataType@XSValue@xercesc_3_2@@@xercesc_3_2@@@xercesc_3_2@@QAE@XZ 10040d50 f i xerces-c_3:XSValue.cpp.obj
 0001:0003fd50       ??1?$ArrayJanitor@PAU?$ValueHashTableBucketElem@_N@xercesc_3_2@@@xercesc_3_2@@QAE@XZ 10040d50 f i xerces-c_3:EncodingValidator.cpp.obj
 0001:0003fd50       ??1?$ArrayJanitor@PAU?$RefHashTableBucketElem@VDTDEntityDecl@xercesc_3_2@@@xercesc_3_2@@@xercesc_3_2@@QAE@XZ 10040d50 f i xerces-c_3:DTDGrammar.cpp.obj
 0001:0003fd50       ??1?$ArrayJanitor@PAU?$ValueHashTableBucketElem@G@xercesc_3_2@@@xercesc_3_2@@QAE@XZ 10040d50 f i xerces-c_3:GeneralAttributeCheck.cpp.obj
 0001:0003fd50       ??1?$ArrayJanitor@PAU?$RefHashTableBucketElem@V?$ValueVectorOf@PAVDOMElement@xercesc_3_2@@@xercesc_3_2@@@xercesc_3_2@@@xercesc_3_2@@QAE@XZ 10040d50 f i xerces-c_3:TraverseSchema.cpp.obj
 0001:0003fd50       ??1?$ArrayJanitor@PAU?$RefHash2KeysTableBucketElem@VXSIDCDefinition@xercesc_3_2@@@xercesc_3_2@@@xercesc_3_2@@QAE@XZ 10040d50 f i xerces-c_3:XSObjectFactory.cpp.obj
 0001:0003fd50       ??1?$ArrayJanitor@PAU?$RefHashTableBucketElem@VXMLRefInfo@xercesc_3_2@@@xercesc_3_2@@@xercesc_3_2@@QAE@XZ 10040d50 f i xerces-c_3:ValidationContextImpl.cpp.obj
 0001:0003fd50       ??1?$ArrayJanitor@PAU?$RefHashTableBucketElem@VCPMapEntry@xercesc_3_2@@@xercesc_3_2@@@xercesc_3_2@@QAE@XZ 10040d50 f i xerces-c_3:Win32TransService.cpp.obj
 0001:0003fd50       ??1?$ArrayJanitor@PAU?$RefHash2KeysTableBucketElem@_W@xercesc_3_2@@@xercesc_3_2@@QAE@XZ 10040d50 f i xerces-c_3:TraverseSchema.cpp.obj
 0001:0003fd50       ??1?$ArrayJanitor@PAU?$RefHashTableBucketElem@VXSNamespaceItem@xercesc_3_2@@@xercesc_3_2@@@xercesc_3_2@@QAE@XZ 10040d50 f i xerces-c_3:XSModel.cpp.obj
 0001:0003fd50       ??1?$ArrayJanitor@PAU?$RefHashTableBucketElem@VXSObject@xercesc_3_2@@@xercesc_3_2@@@xercesc_3_2@@QAE@XZ 10040d50 f i xerces-c_3:XSModel.cpp.obj
 0001:0003fd50       ??1?$ArrayJanitor@PAU?$RefHashTableBucketElem@VDatatypeValidator@xercesc_3_2@@@xercesc_3_2@@@xercesc_3_2@@QAE@XZ 10040d50 f i xerces-c_3:DatatypeValidatorFactory.cpp.obj
 0001:0003fd50       ??1?$ArrayJanitor@PAU?$RefHashTableBucketElem@I@xercesc_3_2@@@xercesc_3_2@@QAE@XZ 10040d50 f i xerces-c_3:DGXMLScanner.cpp.obj
 0001:0003fd50       ??1?$ArrayJanitor@PAU?$RefHashTableBucketElem@VXMLElementDecl@xercesc_3_2@@@xercesc_3_2@@@xercesc_3_2@@QAE@XZ 10040d50 f i xerces-c_3:WFXMLScanner.cpp.obj
 0001:0003fd50       ??1?$ArrayJanitor@PAU?$RefHash2KeysTableBucketElem@VSchemaInfo@xercesc_3_2@@@xercesc_3_2@@@xercesc_3_2@@QAE@XZ 10040d50 f i xerces-c_3:TraverseSchema.cpp.obj
 0001:0003fd50       ??1?$ArrayJanitor@PAU?$RefHash2KeysTableBucketElem@VValueStore@xercesc_3_2@@@xercesc_3_2@@@xercesc_3_2@@QAE@XZ 10040d50 f i xerces-c_3:ValueStoreCache.cpp.obj
 0001:0003fd50       ??1?$ArrayJanitor@D@xercesc_3_2@@QAE@XZ 10040d50 f i xerces-c_3:XMLString.cpp.obj
 0001:0003fd50       ??1?$ArrayJanitor@PAU?$RefHashTableBucketElem@VComplexTypeInfo@xercesc_3_2@@@xercesc_3_2@@@xercesc_3_2@@QAE@XZ 10040d50 f i xerces-c_3:XTemplateSerializer.cpp.obj
 0001:0003fd50       ??1?$ArrayJanitor@PAU?$RefHashTableBucketElem@VRangeTokenElemMap@xercesc_3_2@@@xercesc_3_2@@@xercesc_3_2@@QAE@XZ 10040d50 f i xerces-c_3:RangeTokenMap.cpp.obj
 0001:0003fd50       ??1?$ArrayJanitor@PAU?$RefHashTableBucketElem@VSchemaInfo@xercesc_3_2@@@xercesc_3_2@@@xercesc_3_2@@QAE@XZ 10040d50 f i xerces-c_3:TraverseSchema.cpp.obj
 0001:0003fd50       ??1?$ArrayJanitor@PAU?$RefHashTableBucketElem@VFieldValueMap@xercesc_3_2@@@xercesc_3_2@@@xercesc_3_2@@QAE@XZ 10040d50 f i xerces-c_3:ValueStore.cpp.obj
 0001:0003fd50       ??1?$ArrayJanitor@PAU?$RefHashTableBucketElem@_W@xercesc_3_2@@@xercesc_3_2@@QAE@XZ 10040d50 f i xerces-c_3:DOMNormalizer.cpp.obj
 0001:0003fd50       ??1?$ArrayJanitor@PAU?$RefHashTableBucketElem@VRangeFactory@xercesc_3_2@@@xercesc_3_2@@@xercesc_3_2@@QAE@XZ 10040d50 f i xerces-c_3:RangeTokenMap.cpp.obj
 0001:0003fd50       ??1?$ArrayJanitor@PAU?$RefHashTableBucketElem@VXMLNotationDecl@xercesc_3_2@@@xercesc_3_2@@@xercesc_3_2@@QAE@XZ 10040d50 f i xerces-c_3:DTDGrammar.cpp.obj
 0001:0003fd50       ??1?$ArrayJanitor@_N@xercesc_3_2@@QAE@XZ 10040d50 f i xerces-c_3:AllContentModel.cpp.obj
 0001:0003fd50       ??1?$ArrayJanitor@PAU?$ValueHashTableBucketElem@_W@xercesc_3_2@@@xercesc_3_2@@QAE@XZ 10040d50 f i xerces-c_3:WFXMLScanner.cpp.obj
 0001:0003fd50       ??1?$ArrayJanitor@PAU?$RefHashTableBucketElem@VValueStore@xercesc_3_2@@@xercesc_3_2@@@xercesc_3_2@@QAE@XZ 10040d50 f i xerces-c_3:ValueStoreCache.cpp.obj
 0001:0003fd50       ??1?$ArrayJanitor@PAU?$RefHashTableBucketElem@VDTDElementDecl@xercesc_3_2@@@xercesc_3_2@@@xercesc_3_2@@QAE@XZ 10040d50 f i xerces-c_3:DTDGrammar.cpp.obj
 0001:0003fd50       ??1?$ArrayJanitor@PAU?$RefHashTableBucketElem@VXercesGroupInfo@xercesc_3_2@@@xercesc_3_2@@@xercesc_3_2@@QAE@XZ 10040d50 f i xerces-c_3:XTemplateSerializer.cpp.obj
 0001:0003fd50       ??1?$ArrayJanitor@PAU?$RefHash2KeysTableBucketElem@VXMLAttr@xercesc_3_2@@@xercesc_3_2@@@xercesc_3_2@@QAE@XZ 10040d50 f i xerces-c_3:WFXMLScanner.cpp.obj
 0001:0003fd50       ??1?$ArrayJanitor@PAU?$RefHashTableBucketElem@VDTDAttDef@xercesc_3_2@@@xercesc_3_2@@@xercesc_3_2@@QAE@XZ 10040d50 f i xerces-c_3:DTDElementDecl.cpp.obj
 0001:0003fd50       ??1?$ArrayJanitor@PAU?$RefHashTableBucketElem@VXercesAttGroupInfo@xercesc_3_2@@@xercesc_3_2@@@xercesc_3_2@@QAE@XZ 10040d50 f i xerces-c_3:XTemplateSerializer.cpp.obj
 0001:0003fd50       ??1?$ArrayJanitor@PAU?$RefHashTableBucketElem@VXMLCanRepGroup@xercesc_3_2@@@xercesc_3_2@@@xercesc_3_2@@QAE@XZ 10040d50 f i xerces-c_3:DatatypeValidatorFactory.cpp.obj
 0001:0003fd50       ??1?$ArrayJanitor@PAU?$RefHash2KeysTableBucketElem@VSchemaAttDef@xercesc_3_2@@@xercesc_3_2@@@xercesc_3_2@@QAE@XZ 10040d50 f i xerces-c_3:ComplexTypeInfo.cpp.obj
 0001:0003fd50       ??1?$ArrayJanitor@PAU?$RefHashTableBucketElem@V?$ValueVectorOf@PAVSchemaElementDecl@xercesc_3_2@@@xercesc_3_2@@@xercesc_3_2@@@xercesc_3_2@@QAE@XZ 10040d50 f i xerces-c_3:TraverseSchema.cpp.obj
 0001:0003fd50       ??1?$ArrayJanitor@PAUHash2KeysSetBucketElem@xercesc_3_2@@@xercesc_3_2@@QAE@XZ 10040d50 f i xerces-c_3:DGXMLScanner.cpp.obj
 0001:0003fd50       ??1?$ArrayJanitor@E@xercesc_3_2@@QAE@XZ 10040d50 f i xerces-c_3:JanitorExports.cpp.obj
 0001:0003fd50       ??1?$ArrayJanitor@PAU?$RefHashTableBucketElem@VXSAnnotation@xercesc_3_2@@@xercesc_3_2@@@xercesc_3_2@@QAE@XZ 10040d50 f i xerces-c_3:XTemplateSerializer.cpp.obj
 0001:0003fd50       ??1?$ArrayJanitor@PAU?$RefHashTableBucketElem@VGrammar@xercesc_3_2@@@xercesc_3_2@@@xercesc_3_2@@QAE@XZ 10040d50 f i xerces-c_3:GrammarResolver.cpp.obj
 0001:0003fd50       ??1?$ArrayJanitor@PAU?$RefHashTableBucketElem@VDOMElement@xercesc_3_2@@@xercesc_3_2@@@xercesc_3_2@@QAE@XZ 10040d50 f i xerces-c_3:SchemaInfo.cpp.obj
 0001:0003fd50       ??1?$ArrayJanitor@PAU?$RefHash2KeysTableBucketElem@V?$KeyRefPair@XVDOMUserDataHandler@xercesc_3_2@@@xercesc_3_2@@@xercesc_3_2@@@xercesc_3_2@@QAE@XZ 10040d50 f i xerces-c_3:DOMDocumentImpl.cpp.obj
 0001:0003fd50       ??1?$ArrayJanitor@PAU?$RefHash2KeysTableBucketElem@V?$ValueVectorOf@PAVSchemaElementDecl@xercesc_3_2@@@xercesc_3_2@@@xercesc_3_2@@@xercesc_3_2@@QAE@XZ 10040d50 f i xerces-c_3:XTemplateSerializer.cpp.obj
 0001:0003fd50       ??1?$ArrayJanitor@PAU?$RefHash2KeysTableBucketElem@VXSObject@xercesc_3_2@@@xercesc_3_2@@@xercesc_3_2@@QAE@XZ 10040d50 f i xerces-c_3:XSModel.cpp.obj
 0001:0003fd50       ??1?$ArrayJanitor@PAU?$RefHashTableBucketElem@VENameMap@xercesc_3_2@@@xercesc_3_2@@@xercesc_3_2@@QAE@XZ 10040d50 f i xerces-c_3:TransService.cpp.obj
 0001:0003fdb0       ??1IllegalArgumentException@xercesc_3_2@@UAE@XZ 10040db0 f i xerces-c_3:XMLString.cpp.obj
 0001:0003fdc0       ??1NumberFormatException@xercesc_3_2@@UAE@XZ 10040dc0 f i xerces-c_3:XMLString.cpp.obj
 0001:0003fdd0       ??_G?$BaseRefVectorOf@_W@xercesc_3_2@@UAEPAXI@Z 10040dd0 f i xerces-c_3:XMLString.cpp.obj
 0001:0003fdd0       ??_E?$BaseRefVectorOf@_W@xercesc_3_2@@UAEPAXI@Z 10040dd0 f i xerces-c_3:XMLString.cpp.obj
 0001:0003fe10       ??_G?$RefArrayVectorOf@_W@xercesc_3_2@@UAEPAXI@Z 10040e10 f i xerces-c_3:XMLString.cpp.obj
 0001:0003fe10       ??_E?$RefArrayVectorOf@_W@xercesc_3_2@@UAEPAXI@Z 10040e10 f i xerces-c_3:XMLString.cpp.obj
 0001:0003feb0       ??_GIllegalArgumentException@xercesc_3_2@@UAEPAXI@Z 10040eb0 f i xerces-c_3:XMLString.cpp.obj
 0001:0003feb0       ??_EIllegalArgumentException@xercesc_3_2@@UAEPAXI@Z 10040eb0 f i xerces-c_3:XMLString.cpp.obj
 0001:0003fef0       ??_GNumberFormatException@xercesc_3_2@@UAEPAXI@Z 10040ef0 f i xerces-c_3:XMLString.cpp.obj
 0001:0003fef0       ??_ENumberFormatException@xercesc_3_2@@UAEPAXI@Z 10040ef0 f i xerces-c_3:XMLString.cpp.obj
 0001:0003ff30       ?addElement@?$BaseRefVectorOf@VDOMNode@xercesc_3_2@@@xercesc_3_2@@QAEXQAVDOMNode@2@@Z 10040f30 f i xerces-c_3:DOMDocumentImpl.cpp.obj
 0001:0003ff30       ?addElement@?$BaseRefVectorOf@VXSNamespaceItem@xercesc_3_2@@@xercesc_3_2@@QAEXQAVXSNamespaceItem@2@@Z 10040f30 f i xerces-c_3:XSModel.cpp.obj
 0001:0003ff30       ?addElement@?$BaseRefVectorOf@VXSAttributeUse@xercesc_3_2@@@xercesc_3_2@@QAEXQAVXSAttributeUse@2@@Z 10040f30 f i xerces-c_3:XSObjectFactory.cpp.obj
 0001:0003ff30       ?addElement@?$BaseRefVectorOf@VXSObject@xercesc_3_2@@@xercesc_3_2@@QAEXQAVXSObject@2@@Z 10040f30 f i xerces-c_3:XSModel.cpp.obj
 0001:0003ff30       ?addElement@?$BaseRefVectorOf@VOp@xercesc_3_2@@@xercesc_3_2@@QAEXQAVOp@2@@Z 10040f30 f i xerces-c_3:Op.cpp.obj
 0001:0003ff30       ?addElement@?$BaseRefVectorOf@VSchemaInfo@xercesc_3_2@@@xercesc_3_2@@QAEXQAVSchemaInfo@2@@Z 10040f30 f i xerces-c_3:TraverseSchema.cpp.obj
 0001:0003ff30       ?addElement@?$BaseRefVectorOf@VXMLElementDecl@xercesc_3_2@@@xercesc_3_2@@QAEXQAVXMLElementDecl@2@@Z 10040f30 f i xerces-c_3:WFXMLScanner.cpp.obj
 0001:0003ff30       ?addElement@?$BaseRefVectorOf@VXSParticle@xercesc_3_2@@@xercesc_3_2@@QAEXQAVXSParticle@2@@Z 10040f30 f i xerces-c_3:XSObjectFactory.cpp.obj
 0001:0003ff30       ?addElement@?$BaseRefVectorOf@_W@xercesc_3_2@@QAEXQA_W@Z 10040f30 f i xerces-c_3:XMLString.cpp.obj
 0001:0003ff30       ?addElement@?$BaseRefVectorOf@VDatatypeValidator@xercesc_3_2@@@xercesc_3_2@@QAEXQAVDatatypeValidator@2@@Z 10040f30 f i xerces-c_3:XTemplateSerializer.cpp.obj
 0001:0003ff30       ?addElement@?$BaseRefVectorOf@VSchemaElementDecl@xercesc_3_2@@@xercesc_3_2@@QAEXQAVSchemaElementDecl@2@@Z 10040f30 f i xerces-c_3:XTemplateSerializer.cpp.obj
 0001:0003ff30       ?addElement@?$BaseRefVectorOf@VDOMImplementationSource@xercesc_3_2@@@xercesc_3_2@@QAEXQAVDOMImplementationSource@2@@Z 10040f30 f i xerces-c_3:DOMImplementationRegistry.cpp.obj
 0001:0003ff30       ?addElement@?$BaseRefVectorOf@VXSAnnotation@xercesc_3_2@@@xercesc_3_2@@QAEXQAVXSAnnotation@2@@Z 10040f30 f i xerces-c_3:XSModel.cpp.obj
 0001:0003ff30       ?addElement@?$BaseRefVectorOf@VXSFacet@xercesc_3_2@@@xercesc_3_2@@QAEXQAVXSFacet@2@@Z 10040f30 f i xerces-c_3:XSObjectFactory.cpp.obj
 0001:0003ff30       ?addElement@?$BaseRefVectorOf@V?$RefHashTableOf@_WUStringHasher@xercesc_3_2@@@xercesc_3_2@@@xercesc_3_2@@QAEXQAV?$RefHashTableOf@_WUStringHasher@xercesc_3_2@@@2@@Z 10040f30 f i xerces-c_3:DOMLSSerializerImpl.cpp.obj
 0001:0003ff30       ?addElement@?$BaseRefVectorOf@VXSMultiValueFacet@xercesc_3_2@@@xercesc_3_2@@QAEXQAVXSMultiValueFacet@2@@Z 10040f30 f i xerces-c_3:XSObjectFactory.cpp.obj
 0001:0003ff30       ?addElement@?$BaseRefVectorOf@VXercesLocationPath@xercesc_3_2@@@xercesc_3_2@@QAEXQAVXercesLocationPath@2@@Z 10040f30 f i xerces-c_3:XTemplateSerializer.cpp.obj
 0001:0003ff30       ?addElement@?$BaseRefVectorOf@VToken@xercesc_3_2@@@xercesc_3_2@@QAEXQAVToken@2@@Z 10040f30 f i xerces-c_3:TokenFactory.cpp.obj
 0001:0003ff30       ?addElement@?$BaseRefVectorOf@VXMLAttr@xercesc_3_2@@@xercesc_3_2@@QAEXQAVXMLAttr@2@@Z 10040f30 f i xerces-c_3:DOMXPathExpressionImpl.cpp.obj
 0001:0003ff30       ?addElement@?$BaseRefVectorOf@VSchemaAttDef@xercesc_3_2@@@xercesc_3_2@@QAEXQAVSchemaAttDef@2@@Z 10040f30 f i xerces-c_3:XTemplateSerializer.cpp.obj
 0001:0003ffd0       ?binToText@XMLString@xercesc_3_2@@SAXHQA_WIIQAVMemoryManager@2@@Z 10040fd0 f   xerces-c_3:XMLString.cpp.obj
 0001:00040010       ?binToText@XMLString@xercesc_3_2@@SAXIQA_WIIQAVMemoryManager@2@@Z 10041010 f   xerces-c_3:XMLString.cpp.obj
 0001:00040020       ?binToText@XMLString@xercesc_3_2@@SAXKQA_WIIQAVMemoryManager@2@@Z 10041020 f   xerces-c_3:XMLString.cpp.obj
 0001:000401c0       ?catString@XMLString@xercesc_3_2@@SAXQA_WQB_W@Z 100411c0 f   xerces-c_3:XMLString.cpp.obj
 0001:00040210       ?cleanup@?$BaseRefVectorOf@_W@xercesc_3_2@@UAEXXZ 10041210 f i xerces-c_3:XMLString.cpp.obj
 0001:00040250       ?cleanup@?$RefArrayVectorOf@_W@xercesc_3_2@@UAEXXZ 10041250 f i xerces-c_3:XMLString.cpp.obj
 0001:00040290       ?collapseWS@XMLString@xercesc_3_2@@SAXPA_WQAVMemoryManager@2@@Z 10041290 f   xerces-c_3:XMLString.cpp.obj
 0001:00040430       ?compareIStringASCII@XMLString@xercesc_3_2@@SAHQB_W0@Z 10041430 f   xerces-c_3:XMLString.cpp.obj
 0001:000404d0       ?compareNIString@XMLString@xercesc_3_2@@SAHQB_W0I@Z 100414d0 f   xerces-c_3:XMLString.cpp.obj
 0001:000404f0       ?compareNString@XMLString@xercesc_3_2@@SAHQBD0I@Z 100414f0 f   xerces-c_3:XMLString.cpp.obj
 0001:00040510       ?compareNString@XMLString@xercesc_3_2@@SAHQB_W0I@Z 10041510 f   xerces-c_3:XMLString.cpp.obj
 0001:00040560       ?compareString@XMLString@xercesc_3_2@@SAHQB_W0@Z 10041560 f   xerces-c_3:XMLString.cpp.obj
 0001:00040600       ?copyNString@XMLString@xercesc_3_2@@SA_NQA_WQB_WI@Z 10041600 f   xerces-c_3:XMLString.cpp.obj
 0001:00040660       ?copyString@XMLString@xercesc_3_2@@SAXQA_WQB_W@Z 10041660 f   xerces-c_3:XMLString.cpp.obj
 0001:00040690       ?cut@XMLString@xercesc_3_2@@SAXQA_WI@Z 10041690 f   xerces-c_3:XMLString.cpp.obj
 0001:000406d0       ?duplicate@IllegalArgumentException@xercesc_3_2@@UBEPAVXMLException@2@XZ 100416d0 f i xerces-c_3:XMLString.cpp.obj
 0001:00040750       ?duplicate@NumberFormatException@xercesc_3_2@@UBEPAVXMLException@2@XZ 10041750 f i xerces-c_3:XMLString.cpp.obj
 0001:000407d0       ?findAny@XMLString@xercesc_3_2@@SAPB_WQB_W0@Z 100417d0 f   xerces-c_3:XMLString.cpp.obj
 0001:000407d0       ?findAny@XMLString@xercesc_3_2@@SAPA_WQA_WQB_W@Z 100417d0 f   xerces-c_3:XMLString.cpp.obj
 0001:00040830       ?fixURI@XMLString@xercesc_3_2@@SAXQB_WQA_W@Z 10041830 f   xerces-c_3:XMLString.cpp.obj
 0001:000409a0       ?getType@IllegalArgumentException@xercesc_3_2@@UBEPB_WXZ 100419a0 f i xerces-c_3:XMLString.cpp.obj
 0001:000409b0       ?getType@NumberFormatException@xercesc_3_2@@UBEPB_WXZ 100419b0 f i xerces-c_3:XMLString.cpp.obj
 0001:000409c0       ?indexOf@XMLString@xercesc_3_2@@SAHQB_W_W@Z 100419c0 f   xerces-c_3:XMLString.cpp.obj
 0001:00040a00       ?indexOf@XMLString@xercesc_3_2@@SAHQB_W_WIQAVMemoryManager@2@@Z 10041a00 f   xerces-c_3:XMLString.cpp.obj
 0001:00040aa0       ?initString@XMLString@xercesc_3_2@@CAXQAVXMLLCPTranscoder@2@QAVMemoryManager@2@@Z 10041aa0 f   xerces-c_3:XMLString.cpp.obj
 0001:00040ac0       ?isAlpha@XMLString@xercesc_3_2@@SA_N_W@Z 10041ac0 f   xerces-c_3:XMLString.cpp.obj
 0001:00040ae0       ?isAlphaNum@XMLString@xercesc_3_2@@SA_N_W@Z 10041ae0 f   xerces-c_3:XMLString.cpp.obj
 0001:00040b10       ?isDigit@XMLString@xercesc_3_2@@SA_N_W@Z 10041b10 f   xerces-c_3:XMLString.cpp.obj
 0001:00040b20       ?isHex@XMLString@xercesc_3_2@@SA_N_W@Z 10041b20 f   xerces-c_3:XMLString.cpp.obj
 0001:00040b50       ?isInList@XMLString@xercesc_3_2@@SA_NQB_W0@Z 10041b50 f   xerces-c_3:XMLString.cpp.obj
 0001:00040bf0       ?isValidEncName@XMLString@xercesc_3_2@@SA_NQB_W@Z 10041bf0 f   xerces-c_3:XMLString.cpp.obj
 0001:00040c70       ?isValidNOTATION@XMLString@xercesc_3_2@@SA_NQB_WQAVMemoryManager@2@@Z 10041c70 f   xerces-c_3:XMLString.cpp.obj
 0001:00040e00       ?isWSCollapsed@XMLString@xercesc_3_2@@SA_NQB_W@Z 10041e00 f   xerces-c_3:XMLString.cpp.obj
 0001:00040e90       ?isWSReplaced@XMLString@xercesc_3_2@@SA_NQB_W@Z 10041e90 f   xerces-c_3:XMLString.cpp.obj
 0001:00040ed0       ?lastIndexOf@XMLString@xercesc_3_2@@SAH_WQB_WI@Z 10041ed0 f   xerces-c_3:XMLString.cpp.obj
 0001:00040f10       ?lowerCase@XMLString@xercesc_3_2@@SAXQA_W@Z 10041f10 f   xerces-c_3:XMLString.cpp.obj
 0001:00040f20       ?moveChars@XMLString@xercesc_3_2@@SAXQA_WQB_WI@Z 10041f20 f i xerces-c_3:XMLString.cpp.obj
 0001:00040f30       ?parseInt@XMLString@xercesc_3_2@@SAHQB_WQAVMemoryManager@2@@Z 10041f30 f   xerces-c_3:XMLString.cpp.obj
 0001:000410c0       ?patternMatch@XMLString@xercesc_3_2@@SAHQB_W0@Z 100420c0 f   xerces-c_3:XMLString.cpp.obj
 0001:00041160       ?regionIMatches@XMLString@xercesc_3_2@@SA_NQB_WH0HI@Z 10042160 f   xerces-c_3:XMLString.cpp.obj
 0001:000411f0       ?regionMatches@XMLString@xercesc_3_2@@SA_NQB_WH0HI@Z 100421f0 f   xerces-c_3:XMLString.cpp.obj
 0001:000412c0       ?release@XMLString@xercesc_3_2@@SAXPAPA_WQAVMemoryManager@2@@Z 100422c0 f   xerces-c_3:XMLString.cpp.obj
 0001:000412e0       ?removeAllElements@?$BaseRefVectorOf@_W@xercesc_3_2@@UAEXXZ 100422e0 f i xerces-c_3:XMLString.cpp.obj
 0001:00041330       ?removeAllElements@?$RefArrayVectorOf@_W@xercesc_3_2@@UAEXXZ 10042330 f i xerces-c_3:XMLString.cpp.obj
 0001:00041380       ?removeChar@XMLString@xercesc_3_2@@SAXQB_WAB_WAAVXMLBuffer@2@@Z 10042380 f   xerces-c_3:XMLString.cpp.obj
 0001:000413e0       ?removeElementAt@?$BaseRefVectorOf@_W@xercesc_3_2@@UAEXI@Z 100423e0 f i xerces-c_3:XMLString.cpp.obj
 0001:00041490       ?removeElementAt@?$RefArrayVectorOf@_W@xercesc_3_2@@UAEXI@Z 10042490 f i xerces-c_3:XMLString.cpp.obj
 0001:00041530       ?removeLastElement@?$BaseRefVectorOf@_W@xercesc_3_2@@UAEXXZ 10042530 f i xerces-c_3:XMLString.cpp.obj
 0001:00041560       ?removeLastElement@?$RefArrayVectorOf@_W@xercesc_3_2@@UAEXXZ 10042560 f i xerces-c_3:XMLString.cpp.obj
 0001:00041590       ?removeWS@XMLString@xercesc_3_2@@SAXPA_WQAVMemoryManager@2@@Z 10042590 f   xerces-c_3:XMLString.cpp.obj
 0001:000415e0       ?replaceTokens@XMLString@xercesc_3_2@@SAIQA_WIQB_W111QAVMemoryManager@2@@Z 100425e0 f   xerces-c_3:XMLString.cpp.obj
 0001:00041720       ?replaceWS@XMLString@xercesc_3_2@@SAXPA_WQAVMemoryManager@2@@Z 10042720 f   xerces-c_3:XMLString.cpp.obj
 0001:00041760       ?replicate@XMLString@xercesc_3_2@@SAPADQBDQAVMemoryManager@2@@Z 10042760 f   xerces-c_3:XMLString.cpp.obj
 0001:000417a0       ?setElementAt@?$BaseRefVectorOf@_W@xercesc_3_2@@UAEXQA_WI@Z 100427a0 f i xerces-c_3:XMLString.cpp.obj
 0001:00041800       ?setElementAt@?$RefArrayVectorOf@_W@xercesc_3_2@@UAEXQA_WI@Z 10042800 f i xerces-c_3:XMLString.cpp.obj
 0001:00041860       ?sizeToText@XMLString@xercesc_3_2@@SAXIQA_WIIQAVMemoryManager@2@@Z 10042860 f   xerces-c_3:XMLString.cpp.obj
 0001:00041a00       ?stringLen@XMLString@xercesc_3_2@@SAIQBD@Z 10042a00 f   xerces-c_3:XMLString.cpp.obj
 0001:00041a20       ?subString@XMLString@xercesc_3_2@@SAXQA_WQB_WIIIQAVMemoryManager@2@@Z 10042a20 f   xerces-c_3:XMLString.cpp.obj
 0001:00041ad0       ?subString@XMLString@xercesc_3_2@@SAXQA_WQB_WIIQAVMemoryManager@2@@Z 10042ad0 f   xerces-c_3:XMLString.cpp.obj
 0001:00041b10       ?termString@XMLString@xercesc_3_2@@CAXXZ 10042b10 f   xerces-c_3:XMLString.cpp.obj
 0001:00041b40       ?textToBin@XMLString@xercesc_3_2@@SA_NQB_WAAIQAVMemoryManager@2@@Z 10042b40 f   xerces-c_3:XMLString.cpp.obj
 0001:00041d50       ?tokenizeString@XMLString@xercesc_3_2@@SAPAV?$BaseRefVectorOf@_W@2@QB_WQAVMemoryManager@2@@Z 10042d50 f   xerces-c_3:XMLString.cpp.obj
 0001:00041f90       ?transcode@XMLString@xercesc_3_2@@SAPADQB_WQAVMemoryManager@2@@Z 10042f90 f   xerces-c_3:XMLString.cpp.obj
 0001:00041fb0       ?transcode@XMLString@xercesc_3_2@@SAPA_WQBDQAVMemoryManager@2@@Z 10042fb0 f   xerces-c_3:XMLString.cpp.obj
 0001:00041fd0       ?transcode@XMLString@xercesc_3_2@@SA_NQB_WQADIQAVMemoryManager@2@@Z 10042fd0 f   xerces-c_3:XMLString.cpp.obj
 0001:00041ff0       ?trim@XMLString@xercesc_3_2@@SAXQA_W@Z 10042ff0 f   xerces-c_3:XMLString.cpp.obj
 0001:00042090       ?upperCase@XMLString@xercesc_3_2@@SAXQA_W@Z 10043090 f   xerces-c_3:XMLString.cpp.obj
 0001:000420a0       ?upperCaseASCII@XMLString@xercesc_3_2@@SAXQA_W@Z 100430a0 f   xerces-c_3:XMLString.cpp.obj
 0001:000420d0       ??0InputSource@xercesc_3_2@@IAE@QAVMemoryManager@1@@Z 100430d0 f   xerces-c_3:InputSource.cpp.obj
 0001:00042100       ??0InputSource@xercesc_3_2@@IAE@QBDQAVMemoryManager@1@@Z 10043100 f   xerces-c_3:InputSource.cpp.obj
 0001:00042140       ??0InputSource@xercesc_3_2@@IAE@QB_WQAVMemoryManager@1@@Z 10043140 f   xerces-c_3:InputSource.cpp.obj
 0001:000421c0       ??1InputSource@xercesc_3_2@@UAE@XZ 100431c0 f   xerces-c_3:InputSource.cpp.obj
 0001:00042220       ??_GInputSource@xercesc_3_2@@UAEPAXI@Z 10043220 f i xerces-c_3:InputSource.cpp.obj
 0001:00042220       ??_EInputSource@xercesc_3_2@@UAEPAXI@Z 10043220 f i xerces-c_3:InputSource.cpp.obj
 0001:000422c0       ?setEncoding@InputSource@xercesc_3_2@@UAEXQB_W@Z 100432c0 f   xerces-c_3:InputSource.cpp.obj
 0001:00042330       ?setPublicId@InputSource@xercesc_3_2@@UAEXQB_W@Z 10043330 f   xerces-c_3:InputSource.cpp.obj
 0001:000423a0       ?setSystemId@InputSource@xercesc_3_2@@UAEXQB_W@Z 100433a0 f   xerces-c_3:InputSource.cpp.obj
 0001:00042410       ??0LocalFileInputSource@xercesc_3_2@@QAE@QB_W0QAVMemoryManager@1@@Z 10043410 f   xerces-c_3:LocalFileInputSource.cpp.obj
 0001:00042500       ??0LocalFileInputSource@xercesc_3_2@@QAE@QB_WQAVMemoryManager@1@@Z 10043500 f   xerces-c_3:LocalFileInputSource.cpp.obj
 0001:00042690       ??1LocalFileInputSource@xercesc_3_2@@UAE@XZ 10043690 f   xerces-c_3:LocalFileInputSource.cpp.obj
 0001:000426a0       ??_GLocalFileInputSource@xercesc_3_2@@UAEPAXI@Z 100436a0 f i xerces-c_3:LocalFileInputSource.cpp.obj
 0001:000426a0       ??_ELocalFileInputSource@xercesc_3_2@@UAEPAXI@Z 100436a0 f i xerces-c_3:LocalFileInputSource.cpp.obj
 0001:000426e0       ?makeStream@LocalFileInputSource@xercesc_3_2@@UBEPAVBinInputStream@2@XZ 100436e0 f   xerces-c_3:LocalFileInputSource.cpp.obj
 0001:00042780       ??0BinFileInputStream@xercesc_3_2@@QAE@QB_WQAVMemoryManager@1@@Z 10043780 f   xerces-c_3:BinFileInputStream.cpp.obj
 0001:000427f0       ??1BinFileInputStream@xercesc_3_2@@UAE@XZ 100437f0 f   xerces-c_3:BinFileInputStream.cpp.obj
 0001:00042870       ??_GBinFileInputStream@xercesc_3_2@@UAEPAXI@Z 10043870 f i xerces-c_3:BinFileInputStream.cpp.obj
 0001:00042870       ??_EBinFileInputStream@xercesc_3_2@@UAEPAXI@Z 10043870 f i xerces-c_3:BinFileInputStream.cpp.obj
 0001:000428b0       ?curPos@BinFileInputStream@xercesc_3_2@@UBE_KXZ 100438b0 f   xerces-c_3:BinFileInputStream.cpp.obj
 0001:000428c0       ?getSize@BinFileInputStream@xercesc_3_2@@QBE_KXZ 100438c0 f   xerces-c_3:BinFileInputStream.cpp.obj
 0001:000428d0       ?readBytes@BinFileInputStream@xercesc_3_2@@UAEIQAEI@Z 100438d0 f   xerces-c_3:BinFileInputStream.cpp.obj
 0001:000428f0       ??0BinInputStream@xercesc_3_2@@IAE@XZ 100438f0 f   xerces-c_3:BinInputStream.cpp.obj
 0001:00042900       ??1BinInputStream@xercesc_3_2@@UAE@XZ 10043900 f   xerces-c_3:BinInputStream.cpp.obj
 0001:00042910       ??_GBinInputStream@xercesc_3_2@@UAEPAXI@Z 10043910 f i xerces-c_3:BinInputStream.cpp.obj
 0001:00042910       ??_EBinInputStream@xercesc_3_2@@UAEPAXI@Z 10043910 f i xerces-c_3:BinInputStream.cpp.obj
 0001:00042950       ??0XMLException@xercesc_3_2@@QAE@ABV01@@Z 10043950 f   xerces-c_3:XMLException.cpp.obj
 0001:000429e0       ??0XMLException@xercesc_3_2@@QAE@QBD_KQAVMemoryManager@1@@Z 100439e0 f   xerces-c_3:XMLException.cpp.obj
 0001:00042a40       ??1XMLException@xercesc_3_2@@UAE@XZ 10043a40 f   xerces-c_3:XMLException.cpp.obj
 0001:00042aa0       ??_EXMLException@xercesc_3_2@@UAEPAXI@Z 10043aa0 f i xerces-c_3:XMLException.cpp.obj
 0001:00042aa0       ??_GXMLException@xercesc_3_2@@UAEPAXI@Z 10043aa0 f i xerces-c_3:XMLException.cpp.obj
 0001:00042b30       ?initializeXMLException@XMLInitializer@xercesc_3_2@@CAXXZ 10043b30 f   xerces-c_3:XMLException.cpp.obj
 0001:00042b50       ?loadExceptText@XMLException@xercesc_3_2@@IAEXW4Codes@XMLExcepts@2@@Z 10043b50 f   xerces-c_3:XMLException.cpp.obj
 0001:00042c30       ?loadExceptText@XMLException@xercesc_3_2@@IAEXW4Codes@XMLExcepts@2@QBD111@Z 10043c30 f   xerces-c_3:XMLException.cpp.obj
 0001:00042d50       ?loadExceptText@XMLException@xercesc_3_2@@IAEXW4Codes@XMLExcepts@2@QB_W111@Z 10043d50 f   xerces-c_3:XMLException.cpp.obj
 0001:00042e70       ?terminateXMLException@XMLInitializer@xercesc_3_2@@CAXXZ 10043e70 f   xerces-c_3:XMLException.cpp.obj
 0001:00042e90       ??0XMLMutex@xercesc_3_2@@QAE@QAVMemoryManager@1@@Z 10043e90 f   xerces-c_3:Mutexes.cpp.obj
 0001:00042ec0       ??0XMLMutexLock@xercesc_3_2@@QAE@QAVXMLMutex@1@@Z 10043ec0 f   xerces-c_3:Mutexes.cpp.obj
 0001:00042ee0       ??1XMLMutex@xercesc_3_2@@QAE@XZ 10043ee0 f   xerces-c_3:Mutexes.cpp.obj
 0001:00042f30       ??1XMLMutexLock@xercesc_3_2@@QAE@XZ 10043f30 f   xerces-c_3:Mutexes.cpp.obj
 0001:00042f70       ?isAllSpaces@XMLChar1_0@xercesc_3_2@@SA_NQB_WI@Z 10043f70 f   xerces-c_3:XMLChar.cpp.obj
 0001:00042fa0       ?isAllSpaces@XMLChar1_1@xercesc_3_2@@SA_NQB_WI@Z 10043fa0 f   xerces-c_3:XMLChar.cpp.obj
 0001:00042fd0       ?isPublicIdChar@XMLChar1_1@xercesc_3_2@@SA_N_W0@Z 10043fd0 f   xerces-c_3:XMLChar.cpp.obj
 0001:00042fd0       ?isPublicIdChar@XMLChar1_0@xercesc_3_2@@SA_N_W0@Z 10043fd0 f   xerces-c_3:XMLChar.cpp.obj
 0001:00043050       ?isValidNCName@XMLChar1_0@xercesc_3_2@@SA_NQB_WI@Z 10044050 f   xerces-c_3:XMLChar.cpp.obj
 0001:000430a0       ?isValidNCName@XMLChar1_1@xercesc_3_2@@SA_NQB_WI@Z 100440a0 f   xerces-c_3:XMLChar.cpp.obj
 0001:00043160       ?isValidName@XMLChar1_0@xercesc_3_2@@SA_NQB_W@Z 10044160 f   xerces-c_3:XMLChar.cpp.obj
 0001:000431a0       ?isValidName@XMLChar1_1@xercesc_3_2@@SA_NQB_W@Z 100441a0 f   xerces-c_3:XMLChar.cpp.obj
 0001:00043250       ?isValidNmtoken@XMLChar1_0@xercesc_3_2@@SA_NQB_WI@Z 10044250 f   xerces-c_3:XMLChar.cpp.obj
 0001:00043280       ?isValidNmtoken@XMLChar1_1@xercesc_3_2@@SA_NQB_WI@Z 10044280 f   xerces-c_3:XMLChar.cpp.obj
 0001:00043300       ?isValidQName@XMLChar1_0@xercesc_3_2@@SA_NQB_WI@Z 10044300 f   xerces-c_3:XMLChar.cpp.obj
 0001:00043370       ?isValidQName@XMLChar1_1@xercesc_3_2@@SA_NQB_WI@Z 10044370 f   xerces-c_3:XMLChar.cpp.obj
 0001:000433d0       ?panic@DefaultPanicHandler@xercesc_3_2@@UAEXW4PanicReasons@PanicHandler@2@@Z 100443d0 f   xerces-c_3:DefaultPanicHandler.cpp.obj
 0001:00043400       _fprintf                   10044400 f i xerces-c_3:DefaultPanicHandler.cpp.obj
 0001:00043430       ??0TranscodingException@xercesc_3_2@@QAE@ABV01@@Z 10044430 f i xerces-c_3:TransService.cpp.obj
 0001:00043450       ??0TranscodingException@xercesc_3_2@@QAE@QBD_KW4Codes@XMLExcepts@1@PAVMemoryManager@1@@Z 10044450 f i xerces-c_3:TransService.cpp.obj
 0001:000434c0       ??0XMLLCPTranscoder@xercesc_3_2@@IAE@XZ 100444c0 f   xerces-c_3:TransService.cpp.obj
 0001:000434d0       ??0XMLTransService@xercesc_3_2@@IAE@XZ 100444d0 f   xerces-c_3:TransService.cpp.obj
 0001:000434e0       ??0XMLTranscoder@xercesc_3_2@@IAE@QB_WIQAVMemoryManager@1@@Z 100444e0 f   xerces-c_3:TransService.cpp.obj
 0001:00043560       ??1?$Janitor@VSchemaElementDecl@xercesc_3_2@@@xercesc_3_2@@QAE@XZ 10044560 f i xerces-c_3:TraverseSchema.cpp.obj
 0001:00043560       ??1?$Janitor@VXMLGrammarDescription@xercesc_3_2@@@xercesc_3_2@@QAE@XZ 10044560 f i xerces-c_3:GrammarResolver.cpp.obj
 0001:00043560       ??1?$Janitor@VXercesAttGroupInfo@xercesc_3_2@@@xercesc_3_2@@QAE@XZ 10044560 f i xerces-c_3:TraverseSchema.cpp.obj
 0001:00043560       ??1?$Janitor@VRegxParser@xercesc_3_2@@@xercesc_3_2@@QAE@XZ 10044560 f i xerces-c_3:RegularExpression.cpp.obj
 0001:00043560       ??1?$Janitor@VSchemaAttDef@xercesc_3_2@@@xercesc_3_2@@QAE@XZ 10044560 f i xerces-c_3:TraverseSchema.cpp.obj
 0001:00043560       ??1?$Janitor@VInputSource@xercesc_3_2@@@xercesc_3_2@@QAE@XZ 10044560 f i xerces-c_3:XMLScanner.cpp.obj
 0001:00043560       ??1?$Janitor@VDTDElementDecl@xercesc_3_2@@@xercesc_3_2@@QAE@XZ 10044560 f i xerces-c_3:DGXMLScanner.cpp.obj
 0001:00043560       ??1?$Janitor@V?$RefArrayVectorOf@_W@xercesc_3_2@@@xercesc_3_2@@QAE@XZ 10044560 f i xerces-c_3:DatatypeValidatorFactory.cpp.obj
 0001:00043560       ??1?$Janitor@V?$RefVectorOf@VDatatypeValidator@xercesc_3_2@@@xercesc_3_2@@@xercesc_3_2@@QAE@XZ 10044560 f i xerces-c_3:TraverseSchema.cpp.obj
 0001:00043560       ??1?$Janitor@VXSAnnotation@xercesc_3_2@@@xercesc_3_2@@QAE@XZ 10044560 f i xerces-c_3:TraverseSchema.cpp.obj
 0001:00043560       ??1?$Janitor@VIC_Key@xercesc_3_2@@@xercesc_3_2@@QAE@XZ 10044560 f i xerces-c_3:TraverseSchema.cpp.obj
 0001:00043560       ??1OpFactory@xercesc_3_2@@QAE@XZ 10044560 f i xerces-c_3:OpFactory.cpp.obj
 0001:00043560       ??1?$Janitor@VXMLFormatTarget@xercesc_3_2@@@xercesc_3_2@@QAE@XZ 10044560 f i xerces-c_3:DOMLSSerializerImpl.cpp.obj
 0001:00043560       ??1?$Janitor@VIC_Unique@xercesc_3_2@@@xercesc_3_2@@QAE@XZ 10044560 f i xerces-c_3:TraverseSchema.cpp.obj
 0001:00043560       ??1?$Janitor@VXMLTranscoder@xercesc_3_2@@@xercesc_3_2@@QAE@XZ 10044560 f i xerces-c_3:TransService.cpp.obj
 0001:00043560       ??1TokenFactory@xercesc_3_2@@QAE@XZ 10044560 f i xerces-c_3:TokenFactory.cpp.obj
 0001:00043560       ??1?$Janitor@VXMLSchemaDescription@xercesc_3_2@@@xercesc_3_2@@QAE@XZ 10044560 f i xerces-c_3:TraverseSchema.cpp.obj
 0001:00043560       ??1?$Janitor@VContentSpecNode@xercesc_3_2@@@xercesc_3_2@@QAE@XZ 10044560 f i xerces-c_3:ComplexTypeInfo.cpp.obj
 0001:00043560       ??1?$Janitor@VXercesGroupInfo@xercesc_3_2@@@xercesc_3_2@@QAE@XZ 10044560 f i xerces-c_3:TraverseSchema.cpp.obj
 0001:00043560       ??1?$Janitor@VXMLDateTime@xercesc_3_2@@@xercesc_3_2@@QAE@XZ 10044560 f i xerces-c_3:DateTimeDatatypeValidator.cpp.obj
 0001:00043560       ??1?$Janitor@VMemBufInputSource@xercesc_3_2@@@xercesc_3_2@@QAE@XZ 10044560 f i xerces-c_3:TraverseSchema.cpp.obj
 0001:00043560       ??1?$Janitor@VDTDEntityDecl@xercesc_3_2@@@xercesc_3_2@@QAE@XZ 10044560 f i xerces-c_3:DGXMLScanner.cpp.obj
 0001:00043560       ??1?$Janitor@V?$BaseRefVectorOf@_W@xercesc_3_2@@@xercesc_3_2@@QAE@XZ 10044560 f i xerces-c_3:SGXMLScanner.cpp.obj
 0001:00043560       ??1?$Janitor@VXSAXMLScanner@xercesc_3_2@@@xercesc_3_2@@QAE@XZ 10044560 f i xerces-c_3:TraverseSchema.cpp.obj
 0001:00043560       ??1?$Janitor@VBinInputStream@xercesc_3_2@@@xercesc_3_2@@QAE@XZ 10044560 f i xerces-c_3:ReaderMgr.cpp.obj
 0001:00043560       ??1?$Janitor@VIC_KeyRef@xercesc_3_2@@@xercesc_3_2@@QAE@XZ 10044560 f i xerces-c_3:TraverseSchema.cpp.obj
 0001:00043560       ??1?$Janitor@V?$RefVectorOf@VXercesStep@xercesc_3_2@@@xercesc_3_2@@@xercesc_3_2@@QAE@XZ 10044560 f i xerces-c_3:XercesXPath.cpp.obj
 0001:00043580       ??1TranscodingException@xercesc_3_2@@UAE@XZ 10044580 f i xerces-c_3:TransService.cpp.obj
 0001:00043590       ??1XMLLCPTranscoder@xercesc_3_2@@UAE@XZ 10044590 f   xerces-c_3:TransService.cpp.obj
 0001:000435a0       ??1XMLTransService@xercesc_3_2@@UAE@XZ 100445a0 f   xerces-c_3:TransService.cpp.obj
 0001:000435b0       ??1XMLTranscoder@xercesc_3_2@@UAE@XZ 100445b0 f   xerces-c_3:TransService.cpp.obj
 0001:00043600       ??_E?$BaseRefVectorOf@VENameMap@xercesc_3_2@@@xercesc_3_2@@UAEPAXI@Z 10044600 f i xerces-c_3:TransService.cpp.obj
 0001:00043600       ??_G?$BaseRefVectorOf@VENameMap@xercesc_3_2@@@xercesc_3_2@@UAEPAXI@Z 10044600 f i xerces-c_3:TransService.cpp.obj
 0001:00043640       ??_E?$EEndianNameMapFor@VXMLUCS4Transcoder@xercesc_3_2@@@xercesc_3_2@@UAEPAXI@Z 10044640 f i xerces-c_3:TransService.cpp.obj
 0001:00043640       ??_E?$EEndianNameMapFor@VXMLUTF16Transcoder@xercesc_3_2@@@xercesc_3_2@@UAEPAXI@Z 10044640 f i xerces-c_3:TransService.cpp.obj
 0001:00043640       ??_G?$EEndianNameMapFor@VXMLUCS4Transcoder@xercesc_3_2@@@xercesc_3_2@@UAEPAXI@Z 10044640 f i xerces-c_3:TransService.cpp.obj
 0001:00043640       ??_G?$EEndianNameMapFor@VXMLUTF16Transcoder@xercesc_3_2@@@xercesc_3_2@@UAEPAXI@Z 10044640 f i xerces-c_3:TransService.cpp.obj
 0001:000436d0       ??_G?$ENameMapFor@VXMLIBM1140Transcoder@xercesc_3_2@@@xercesc_3_2@@UAEPAXI@Z 100446d0 f i xerces-c_3:TransService.cpp.obj
 0001:000436d0       ??_E?$ENameMapFor@VXMLEBCDICTranscoder@xercesc_3_2@@@xercesc_3_2@@UAEPAXI@Z 100446d0 f i xerces-c_3:TransService.cpp.obj
 0001:000436d0       ??_E?$ENameMapFor@VXMLChTranscoder@xercesc_3_2@@@xercesc_3_2@@UAEPAXI@Z 100446d0 f i xerces-c_3:TransService.cpp.obj
 0001:000436d0       ??_G?$ENameMapFor@VXMLChTranscoder@xercesc_3_2@@@xercesc_3_2@@UAEPAXI@Z 100446d0 f i xerces-c_3:TransService.cpp.obj
 0001:000436d0       ??_G?$ENameMapFor@VXMLWin1252Transcoder@xercesc_3_2@@@xercesc_3_2@@UAEPAXI@Z 100446d0 f i xerces-c_3:TransService.cpp.obj
 0001:000436d0       ??_E?$ENameMapFor@VXMLUTF8Transcoder@xercesc_3_2@@@xercesc_3_2@@UAEPAXI@Z 100446d0 f i xerces-c_3:TransService.cpp.obj
 0001:000436d0       ??_E?$ENameMapFor@VXMLASCIITranscoder@xercesc_3_2@@@xercesc_3_2@@UAEPAXI@Z 100446d0 f i xerces-c_3:TransService.cpp.obj
 0001:000436d0       ??_G?$ENameMapFor@VXML88591Transcoder@xercesc_3_2@@@xercesc_3_2@@UAEPAXI@Z 100446d0 f i xerces-c_3:TransService.cpp.obj
 0001:000436d0       ??_E?$ENameMapFor@VXMLIBM1047Transcoder@xercesc_3_2@@@xercesc_3_2@@UAEPAXI@Z 100446d0 f i xerces-c_3:TransService.cpp.obj
 0001:000436d0       ??_E?$ENameMapFor@VXMLIBM1140Transcoder@xercesc_3_2@@@xercesc_3_2@@UAEPAXI@Z 100446d0 f i xerces-c_3:TransService.cpp.obj
 0001:000436d0       ??_G?$ENameMapFor@VXMLIBM1047Transcoder@xercesc_3_2@@@xercesc_3_2@@UAEPAXI@Z 100446d0 f i xerces-c_3:TransService.cpp.obj
 0001:000436d0       ??_EENameMap@xercesc_3_2@@UAEPAXI@Z 100446d0 f i xerces-c_3:TransService.cpp.obj
 0001:000436d0       ??_G?$ENameMapFor@VXMLASCIITranscoder@xercesc_3_2@@@xercesc_3_2@@UAEPAXI@Z 100446d0 f i xerces-c_3:TransService.cpp.obj
 0001:000436d0       ??_G?$ENameMapFor@VXMLUTF8Transcoder@xercesc_3_2@@@xercesc_3_2@@UAEPAXI@Z 100446d0 f i xerces-c_3:TransService.cpp.obj
 0001:000436d0       ??_GENameMap@xercesc_3_2@@UAEPAXI@Z 100446d0 f i xerces-c_3:TransService.cpp.obj
 0001:000436d0       ??_E?$ENameMapFor@VXML88591Transcoder@xercesc_3_2@@@xercesc_3_2@@UAEPAXI@Z 100446d0 f i xerces-c_3:TransService.cpp.obj
 0001:000436d0       ??_E?$ENameMapFor@VXMLWin1252Transcoder@xercesc_3_2@@@xercesc_3_2@@UAEPAXI@Z 100446d0 f i xerces-c_3:TransService.cpp.obj
 0001:000436d0       ??_G?$ENameMapFor@VXMLEBCDICTranscoder@xercesc_3_2@@@xercesc_3_2@@UAEPAXI@Z 100446d0 f i xerces-c_3:TransService.cpp.obj
 0001:00043760       ??_E?$RefVectorOf@VENameMap@xercesc_3_2@@@xercesc_3_2@@UAEPAXI@Z 10044760 f i xerces-c_3:TransService.cpp.obj
 0001:00043760       ??_G?$RefVectorOf@VENameMap@xercesc_3_2@@@xercesc_3_2@@UAEPAXI@Z 10044760 f i xerces-c_3:TransService.cpp.obj
 0001:00043800       ??_GTranscodingException@xercesc_3_2@@UAEPAXI@Z 10044800 f i xerces-c_3:TransService.cpp.obj
 0001:00043800       ??_ETranscodingException@xercesc_3_2@@UAEPAXI@Z 10044800 f i xerces-c_3:TransService.cpp.obj
 0001:00043840       ??_GXMLLCPTranscoder@xercesc_3_2@@UAEPAXI@Z 10044840 f i xerces-c_3:TransService.cpp.obj
 0001:00043840       ??_EXMLLCPTranscoder@xercesc_3_2@@UAEPAXI@Z 10044840 f i xerces-c_3:TransService.cpp.obj
 0001:00043880       ??_EXMLTransService@xercesc_3_2@@UAEPAXI@Z 10044880 f i xerces-c_3:TransService.cpp.obj
 0001:00043880       ??_GXMLTransService@xercesc_3_2@@UAEPAXI@Z 10044880 f i xerces-c_3:TransService.cpp.obj
 0001:000438c0       ??_EXMLTranscoder@xercesc_3_2@@UAEPAXI@Z 100448c0 f i xerces-c_3:TransService.cpp.obj
 0001:000438c0       ??_GXMLTranscoder@xercesc_3_2@@UAEPAXI@Z 100448c0 f i xerces-c_3:TransService.cpp.obj
 0001:00043950       ?duplicate@TranscodingException@xercesc_3_2@@UBEPAVXMLException@2@XZ 10044950 f i xerces-c_3:TransService.cpp.obj
 0001:000439d0       ?findBucketElem@?$RefHashTableOf@VCPMapEntry@xercesc_3_2@@UStringHasher@2@@xercesc_3_2@@AAEPAU?$RefHashTableBucketElem@VCPMapEntry@xercesc_3_2@@@2@QBXAAI@Z 100449d0 f i xerces-c_3:Win32TransService.cpp.obj
 0001:000439d0       ?findBucketElem@?$RefHashTableOf@_WUStringHasher@xercesc_3_2@@@xercesc_3_2@@AAEPAU?$RefHashTableBucketElem@_W@2@QBXAAI@Z 100449d0 f i xerces-c_3:DOMNormalizer.cpp.obj
 0001:000439d0       ?findBucketElem@?$RefHashTableOf@VXMLAttDef@xercesc_3_2@@UStringHasher@2@@xercesc_3_2@@AAEPAU?$RefHashTableBucketElem@VXMLAttDef@xercesc_3_2@@@2@QBXAAI@Z 100449d0 f i xerces-c_3:SGXMLScanner.cpp.obj
 0001:000439d0       ?findBucketElem@?$RefHashTableOf@VXMLNotationDecl@xercesc_3_2@@UStringHasher@2@@xercesc_3_2@@AAEPAU?$RefHashTableBucketElem@VXMLNotationDecl@xercesc_3_2@@@2@QBXAAI@Z 100449d0 f i xerces-c_3:DTDGrammar.cpp.obj
 0001:000439d0       ?findBucketElem@?$RefHashTableOf@VXSNamespaceItem@xercesc_3_2@@UStringHasher@2@@xercesc_3_2@@AAEPAU?$RefHashTableBucketElem@VXSNamespaceItem@xercesc_3_2@@@2@QBXAAI@Z 100449d0 f i xerces-c_3:XSModel.cpp.obj
 0001:000439d0       ?findBucketElem@?$RefHashTableOf@VGrammar@xercesc_3_2@@UStringHasher@2@@xercesc_3_2@@AAEPAU?$RefHashTableBucketElem@VGrammar@xercesc_3_2@@@2@QBXAAI@Z 100449d0 f i xerces-c_3:GrammarResolver.cpp.obj
 0001:000439d0       ?findBucketElem@?$RefHashTableOf@VRangeTokenElemMap@xercesc_3_2@@UStringHasher@2@@xercesc_3_2@@AAEPAU?$RefHashTableBucketElem@VRangeTokenElemMap@xercesc_3_2@@@2@QBXAAI@Z 100449d0 f i xerces-c_3:RangeTokenMap.cpp.obj
 0001:000439d0       ?findBucketElem@?$RefHashTableOf@VRangeFactory@xercesc_3_2@@UStringHasher@2@@xercesc_3_2@@AAEPAU?$RefHashTableBucketElem@VRangeFactory@xercesc_3_2@@@2@QBXAAI@Z 100449d0 f i xerces-c_3:RangeTokenMap.cpp.obj
 0001:000439d0       ?findBucketElem@?$RefHashTableOf@VDTDEntityDecl@xercesc_3_2@@UStringHasher@2@@xercesc_3_2@@AAEPAU?$RefHashTableBucketElem@VDTDEntityDecl@xercesc_3_2@@@2@QBXAAI@Z 100449d0 f i xerces-c_3:DTDGrammar.cpp.obj
 0001:000439d0       ?findBucketElem@?$RefHashTableOf@VDTDAttDef@xercesc_3_2@@UStringHasher@2@@xercesc_3_2@@AAEPAU?$RefHashTableBucketElem@VDTDAttDef@xercesc_3_2@@@2@QBXAAI@Z 100449d0 f i xerces-c_3:DTDElementDecl.cpp.obj
 0001:000439d0       ?findBucketElem@?$RefHashTableOf@UPoolElem@XMLStringPool@xercesc_3_2@@UStringHasher@3@@xercesc_3_2@@AAEPAU?$RefHashTableBucketElem@UPoolElem@XMLStringPool@xercesc_3_2@@@2@QBXAAI@Z 100449d0 f i xerces-c_3:StringPool.cpp.obj
 0001:000439d0       ?findBucketElem@?$RefHashTableOf@VXercesAttGroupInfo@xercesc_3_2@@UStringHasher@2@@xercesc_3_2@@AAEPAU?$RefHashTableBucketElem@VXercesAttGroupInfo@xercesc_3_2@@@2@QBXAAI@Z 100449d0 f i xerces-c_3:XTemplateSerializer.cpp.obj
 0001:000439d0       ?findBucketElem@?$RefHashTableOf@VDOMElement@xercesc_3_2@@UStringHasher@2@@xercesc_3_2@@AAEPAU?$RefHashTableBucketElem@VDOMElement@xercesc_3_2@@@2@QBXAAI@Z 100449d0 f i xerces-c_3:SchemaInfo.cpp.obj
 0001:000439d0       ?findBucketElem@?$RefHashTableOf@VXMLRefInfo@xercesc_3_2@@UStringHasher@2@@xercesc_3_2@@AAEPAU?$RefHashTableBucketElem@VXMLRefInfo@xercesc_3_2@@@2@QBXAAI@Z 100449d0 f i xerces-c_3:ValidationContextImpl.cpp.obj
 0001:000439d0       ?findBucketElem@?$RefHashTableOf@VDTDElementDecl@xercesc_3_2@@UStringHasher@2@@xercesc_3_2@@AAEPAU?$RefHashTableBucketElem@VDTDElementDecl@xercesc_3_2@@@2@QBXAAI@Z 100449d0 f i xerces-c_3:DTDGrammar.cpp.obj
 0001:000439d0       ?findBucketElem@?$RefHashTableOf@V?$ValueVectorOf@PAVSchemaElementDecl@xercesc_3_2@@@xercesc_3_2@@UStringHasher@2@@xercesc_3_2@@AAEPAU?$RefHashTableBucketElem@V?$ValueVectorOf@PAVSchemaElementDecl@xercesc_3_2@@@xercesc_3_2@@@2@QBXAAI@Z 100449d0 f i xerces-c_3:TraverseSchema.cpp.obj
 0001:000439d0       ?findBucketElem@?$RefHashTableOf@VENameMap@xercesc_3_2@@UStringHasher@2@@xercesc_3_2@@AAEPAU?$RefHashTableBucketElem@VENameMap@xercesc_3_2@@@2@QBXAAI@Z 100449d0 f i xerces-c_3:TransService.cpp.obj
 0001:000439d0       ?findBucketElem@?$RefHashTableOf@VKVStringPair@xercesc_3_2@@UStringHasher@2@@xercesc_3_2@@AAEPAU?$RefHashTableBucketElem@VKVStringPair@xercesc_3_2@@@2@QBXAAI@Z 100449d0 f i xerces-c_3:DatatypeValidatorFactory.cpp.obj
 0001:000439d0       ?findBucketElem@?$RefHashTableOf@VXMLElementDecl@xercesc_3_2@@UStringHasher@2@@xercesc_3_2@@AAEPAU?$RefHashTableBucketElem@VXMLElementDecl@xercesc_3_2@@@2@QBXAAI@Z 100449d0 f i xerces-c_3:WFXMLScanner.cpp.obj
 0001:000439d0       ?findBucketElem@?$RefHashTableOf@VXercesGroupInfo@xercesc_3_2@@UStringHasher@2@@xercesc_3_2@@AAEPAU?$RefHashTableBucketElem@VXercesGroupInfo@xercesc_3_2@@@2@QBXAAI@Z 100449d0 f i xerces-c_3:XTemplateSerializer.cpp.obj
 0001:000439d0       ?findBucketElem@?$RefHashTableOf@VDatatypeValidator@xercesc_3_2@@UStringHasher@2@@xercesc_3_2@@AAEPAU?$RefHashTableBucketElem@VDatatypeValidator@xercesc_3_2@@@2@QBXAAI@Z 100449d0 f i xerces-c_3:GrammarResolver.cpp.obj
 0001:000439d0       ?findBucketElem@?$RefHashTableOf@VComplexTypeInfo@xercesc_3_2@@UStringHasher@2@@xercesc_3_2@@AAEPAU?$RefHashTableBucketElem@VComplexTypeInfo@xercesc_3_2@@@2@QBXAAI@Z 100449d0 f i xerces-c_3:XTemplateSerializer.cpp.obj
 0001:00043a90       ?getType@TranscodingException@xercesc_3_2@@UBEPB_WXZ 10044a90 f i xerces-c_3:TransService.cpp.obj
 0001:00043aa0       ?initTransService@XMLTransService@xercesc_3_2@@MAEXXZ 10044aa0 f   xerces-c_3:TransService.cpp.obj
 0001:00045880       ?initializeTransService@XMLInitializer@xercesc_3_2@@KAXXZ 10046880 f   xerces-c_3:TransService.cpp.obj
 0001:00045a00       ?makeNew@?$EEndianNameMapFor@VXMLUCS4Transcoder@xercesc_3_2@@@xercesc_3_2@@UBEPAVXMLTranscoder@2@IQAVMemoryManager@2@@Z 10046a00 f i xerces-c_3:TransService.cpp.obj
 0001:00045a80       ?makeNew@?$EEndianNameMapFor@VXMLUTF16Transcoder@xercesc_3_2@@@xercesc_3_2@@UBEPAVXMLTranscoder@2@IQAVMemoryManager@2@@Z 10046a80 f i xerces-c_3:TransService.cpp.obj
 0001:00045b00       ?makeNew@?$ENameMapFor@VXML88591Transcoder@xercesc_3_2@@@xercesc_3_2@@UBEPAVXMLTranscoder@2@IQAVMemoryManager@2@@Z 10046b00 f i xerces-c_3:TransService.cpp.obj
 0001:00045b80       ?makeNew@?$ENameMapFor@VXMLASCIITranscoder@xercesc_3_2@@@xercesc_3_2@@UBEPAVXMLTranscoder@2@IQAVMemoryManager@2@@Z 10046b80 f i xerces-c_3:TransService.cpp.obj
 0001:00045c00       ?makeNew@?$ENameMapFor@VXMLChTranscoder@xercesc_3_2@@@xercesc_3_2@@UBEPAVXMLTranscoder@2@IQAVMemoryManager@2@@Z 10046c00 f i xerces-c_3:TransService.cpp.obj
 0001:00045c80       ?makeNew@?$ENameMapFor@VXMLEBCDICTranscoder@xercesc_3_2@@@xercesc_3_2@@UBEPAVXMLTranscoder@2@IQAVMemoryManager@2@@Z 10046c80 f i xerces-c_3:TransService.cpp.obj
 0001:00045d00       ?makeNew@?$ENameMapFor@VXMLIBM1047Transcoder@xercesc_3_2@@@xercesc_3_2@@UBEPAVXMLTranscoder@2@IQAVMemoryManager@2@@Z 10046d00 f i xerces-c_3:TransService.cpp.obj
 0001:00045d80       ?makeNew@?$ENameMapFor@VXMLIBM1140Transcoder@xercesc_3_2@@@xercesc_3_2@@UBEPAVXMLTranscoder@2@IQAVMemoryManager@2@@Z 10046d80 f i xerces-c_3:TransService.cpp.obj
 0001:00045e00       ?makeNew@?$ENameMapFor@VXMLUTF8Transcoder@xercesc_3_2@@@xercesc_3_2@@UBEPAVXMLTranscoder@2@IQAVMemoryManager@2@@Z 10046e00 f i xerces-c_3:TransService.cpp.obj
 0001:00045e80       ?makeNew@?$ENameMapFor@VXMLWin1252Transcoder@xercesc_3_2@@@xercesc_3_2@@UBEPAVXMLTranscoder@2@IQAVMemoryManager@2@@Z 10046e80 f i xerces-c_3:TransService.cpp.obj
 0001:00045f00       ?makeNewTranscoderFor@XMLTransService@xercesc_3_2@@QAEPAVXMLTranscoder@2@QB_WAAW4Codes@12@IQAVMemoryManager@2@@Z 10046f00 f   xerces-c_3:TransService.cpp.obj
 0001:00046000       ?makeNewTranscoderFor@XMLTransService@xercesc_3_2@@QAEPAVXMLTranscoder@2@W4Encodings@XMLRecognizer@2@AAW4Codes@12@IQAVMemoryManager@2@@Z 10047000 f   xerces-c_3:TransService.cpp.obj
 0001:000460c0       ?put@?$RefHashTableOf@VRangeFactory@xercesc_3_2@@UStringHasher@2@@xercesc_3_2@@QAEXPAXQAVRangeFactory@2@@Z 100470c0 f i xerces-c_3:RangeTokenMap.cpp.obj
 0001:000460c0       ?put@?$RefHashTableOf@VXMLNotationDecl@xercesc_3_2@@UStringHasher@2@@xercesc_3_2@@QAEXPAXQAVXMLNotationDecl@2@@Z 100470c0 f i xerces-c_3:DTDGrammar.cpp.obj
 0001:000460c0       ?put@?$RefHashTableOf@VComplexTypeInfo@xercesc_3_2@@UStringHasher@2@@xercesc_3_2@@QAEXPAXQAVComplexTypeInfo@2@@Z 100470c0 f i xerces-c_3:XTemplateSerializer.cpp.obj
 0001:000460c0       ?put@?$RefHashTableOf@VXMLAttDef@xercesc_3_2@@UStringHasher@2@@xercesc_3_2@@QAEXPAXQAVXMLAttDef@2@@Z 100470c0 f i xerces-c_3:XTemplateSerializer.cpp.obj
 0001:000460c0       ?put@?$RefHashTableOf@VENameMap@xercesc_3_2@@UStringHasher@2@@xercesc_3_2@@QAEXPAXQAVENameMap@2@@Z 100470c0 f i xerces-c_3:TransService.cpp.obj
 0001:000460c0       ?put@?$RefHashTableOf@VXMLElementDecl@xercesc_3_2@@UStringHasher@2@@xercesc_3_2@@QAEXPAXQAVXMLElementDecl@2@@Z 100470c0 f i xerces-c_3:WFXMLScanner.cpp.obj
 0001:000460c0       ?put@?$RefHashTableOf@VDatatypeValidator@xercesc_3_2@@UStringHasher@2@@xercesc_3_2@@QAEXPAXQAVDatatypeValidator@2@@Z 100470c0 f i xerces-c_3:DatatypeValidatorFactory.cpp.obj
 0001:000460c0       ?put@?$RefHashTableOf@VDTDAttDef@xercesc_3_2@@UStringHasher@2@@xercesc_3_2@@QAEXPAXQAVDTDAttDef@2@@Z 100470c0 f i xerces-c_3:DTDElementDecl.cpp.obj
 0001:000460c0       ?put@?$RefHashTableOf@VDTDEntityDecl@xercesc_3_2@@UStringHasher@2@@xercesc_3_2@@QAEXPAXQAVDTDEntityDecl@2@@Z 100470c0 f i xerces-c_3:DTDGrammar.cpp.obj
 0001:000460c0       ?put@?$RefHashTableOf@VXercesGroupInfo@xercesc_3_2@@UStringHasher@2@@xercesc_3_2@@QAEXPAXQAVXercesGroupInfo@2@@Z 100470c0 f i xerces-c_3:XTemplateSerializer.cpp.obj
 0001:000460c0       ?put@?$RefHashTableOf@VDOMElement@xercesc_3_2@@UStringHasher@2@@xercesc_3_2@@QAEXPAXQAVDOMElement@2@@Z 100470c0 f i xerces-c_3:SchemaInfo.cpp.obj
 0001:000460c0       ?put@?$RefHashTableOf@VXercesAttGroupInfo@xercesc_3_2@@UStringHasher@2@@xercesc_3_2@@QAEXPAXQAVXercesAttGroupInfo@2@@Z 100470c0 f i xerces-c_3:XTemplateSerializer.cpp.obj
 0001:000460c0       ?put@?$RefHashTableOf@VGrammar@xercesc_3_2@@UStringHasher@2@@xercesc_3_2@@QAEXPAXQAVGrammar@2@@Z 100470c0 f i xerces-c_3:GrammarResolver.cpp.obj
 0001:000460c0       ?put@?$RefHashTableOf@VXMLRefInfo@xercesc_3_2@@UStringHasher@2@@xercesc_3_2@@QAEXPAXQAVXMLRefInfo@2@@Z 100470c0 f i xerces-c_3:ValidationContextImpl.cpp.obj
 0001:000460c0       ?put@?$RefHashTableOf@VKVStringPair@xercesc_3_2@@UStringHasher@2@@xercesc_3_2@@QAEXPAXQAVKVStringPair@2@@Z 100470c0 f i xerces-c_3:DatatypeValidatorFactory.cpp.obj
 0001:000460c0       ?put@?$RefHashTableOf@VDTDElementDecl@xercesc_3_2@@UStringHasher@2@@xercesc_3_2@@QAEXPAXQAVDTDElementDecl@2@@Z 100470c0 f i xerces-c_3:DTDGrammar.cpp.obj
 0001:00046270       ?terminateTransService@XMLInitializer@xercesc_3_2@@KAXXZ 10047270 f   xerces-c_3:TransService.cpp.obj
 0001:00046360       ?initializeStaticData@XMLInitializer@xercesc_3_2@@KAXXZ 10047360 f   xerces-c_3:XMLInitializer.cpp.obj
 0001:00046410       ?terminateStaticData@XMLInitializer@xercesc_3_2@@KAXXZ 10047410 f   xerces-c_3:XMLInitializer.cpp.obj
 0001:00046470       ??0?$DOMDeepNodeListPool@VDOMDeepNodeListImpl@xercesc_3_2@@UPtrHasher@2@@xercesc_3_2@@QAE@I_NI@Z 10047470 f i xerces-c_3:DOMDocumentImpl.cpp.obj
 0001:00046530       ??0DOMDocumentImpl@xercesc_3_2@@QAE@PAVDOMImplementation@1@QAVMemoryManager@1@@Z 10047530 f   xerces-c_3:DOMDocumentImpl.cpp.obj
 0001:00046720       ??0DOMDocumentImpl@xercesc_3_2@@QAE@PB_W0PAVDOMDocumentType@1@PAVDOMImplementation@1@QAVMemoryManager@1@@Z 10047720 f   xerces-c_3:DOMDocumentImpl.cpp.obj
 0001:00046a40       ??0EmptyStackException@xercesc_3_2@@QAE@ABV01@@Z 10047a40 f i xerces-c_3:DOMDocumentImpl.cpp.obj
 0001:00046a60       ??0EmptyStackException@xercesc_3_2@@QAE@QBD_KW4Codes@XMLExcepts@1@PAVMemoryManager@1@@Z 10047a60 f i xerces-c_3:DOMDocumentImpl.cpp.obj
 0001:00046ad0       ??0NoSuchElementException@xercesc_3_2@@QAE@ABV01@@Z 10047ad0 f i xerces-c_3:DOMDocumentImpl.cpp.obj
 0001:00046af0       ??0NoSuchElementException@xercesc_3_2@@QAE@QBD_KW4Codes@XMLExcepts@1@PAVMemoryManager@1@@Z 10047af0 f i xerces-c_3:DOMDocumentImpl.cpp.obj
 0001:00046b60       ??0NullPointerException@xercesc_3_2@@QAE@ABV01@@Z 10047b60 f i xerces-c_3:DOMDocumentImpl.cpp.obj
 0001:00046b80       ??0NullPointerException@xercesc_3_2@@QAE@QBD_KW4Codes@XMLExcepts@1@PAVMemoryManager@1@@Z 10047b80 f i xerces-c_3:DOMDocumentImpl.cpp.obj
 0001:00046bf0       ??1?$JanitorMemFunCall@VTraverseSchema@xercesc_3_2@@@xercesc_3_2@@QAE@XZ 10047bf0 f i xerces-c_3:TraverseSchema.cpp.obj
 0001:00046bf0       ??1?$JanitorMemFunCall@VXPathMatcherStack@xercesc_3_2@@@xercesc_3_2@@QAE@XZ 10047bf0 f i xerces-c_3:XPathMatcherStack.cpp.obj
 0001:00046bf0       ??1?$JanitorMemFunCall@VXMLAttr@xercesc_3_2@@@xercesc_3_2@@QAE@XZ 10047bf0 f i xerces-c_3:XMLAttr.cpp.obj
 0001:00046bf0       ??1?$JanitorMemFunCall@VBMPattern@xercesc_3_2@@@xercesc_3_2@@QAE@XZ 10047bf0 f i xerces-c_3:BMPattern.cpp.obj
 0001:00046bf0       ??1?$JanitorMemFunCall@VXMLStringTokenizer@xercesc_3_2@@@xercesc_3_2@@QAE@XZ 10047bf0 f i xerces-c_3:XMLStringTokenizer.cpp.obj
 0001:00046bf0       ??1?$JanitorMemFunCall@VValueStoreCache@xercesc_3_2@@@xercesc_3_2@@QAE@XZ 10047bf0 f i xerces-c_3:ValueStoreCache.cpp.obj
 0001:00046bf0       ??1?$JanitorMemFunCall@VFieldValueMap@xercesc_3_2@@@xercesc_3_2@@QAE@XZ 10047bf0 f i xerces-c_3:FieldValueMap.cpp.obj
 0001:00046bf0       ??1?$JanitorMemFunCall@VRangeTokenMap@xercesc_3_2@@@xercesc_3_2@@QAE@XZ 10047bf0 f i xerces-c_3:RangeTokenMap.cpp.obj
 0001:00046bf0       ??1?$JanitorMemFunCall@VDOMXPathExpression@xercesc_3_2@@@xercesc_3_2@@QAE@XZ 10047bf0 f i xerces-c_3:DOMDocumentImpl.cpp.obj
 0001:00046c40       ??1?$RefHash2KeysTableOfEnumerator@V?$KeyRefPair@XVDOMUserDataHandler@xercesc_3_2@@@xercesc_3_2@@UPtrHasher@2@@xercesc_3_2@@UAE@XZ 10047c40 f i xerces-c_3:DOMDocumentImpl.cpp.obj
 0001:00046c70       ??1?$RefVectorOf@VDOMBuffer@xercesc_3_2@@@xercesc_3_2@@UAE@XZ 10047c70 f i xerces-c_3:DOMDocumentImpl.cpp.obj
 0001:00046cf0       ??1?$RefVectorOf@VDOMNode@xercesc_3_2@@@xercesc_3_2@@UAE@XZ 10047cf0 f i xerces-c_3:DOMDocumentImpl.cpp.obj
 0001:00046d70       ??1?$ValueVectorEnumerator@H@xercesc_3_2@@UAE@XZ 10047d70 f i xerces-c_3:DOMDocumentImpl.cpp.obj
 0001:00046de0       ??1?$ValueVectorOf@PAX@xercesc_3_2@@QAE@XZ 10047de0 f i xerces-c_3:XSerializeEngine.cpp.obj
 0001:00046de0       ??1?$ValueVectorOf@I@xercesc_3_2@@QAE@XZ 10047de0 f i xerces-c_3:WFXMLScanner.cpp.obj
 0001:00046de0       ??1?$ValueVectorOf@PAVXercesAttGroupInfo@xercesc_3_2@@@xercesc_3_2@@QAE@XZ 10047de0 f i xerces-c_3:TraverseSchema.cpp.obj
 0001:00046de0       ??1?$ValueVectorOf@W4NodeTypes@ContentSpecNode@xercesc_3_2@@@xercesc_3_2@@QAE@XZ 10047de0 f i xerces-c_3:MixedContentModel.cpp.obj
 0001:00046de0       ??1?$ValueVectorOf@PA_W@xercesc_3_2@@QAE@XZ 10047de0 f i xerces-c_3:GrammarResolver.cpp.obj
 0001:00046de0       ??1?$ValueVectorOf@PAVContentSpecNode@xercesc_3_2@@@xercesc_3_2@@QAE@XZ 10047de0 f i xerces-c_3:ContentSpecNode.cpp.obj
 0001:00046de0       ??1?$ValueVectorOf@H@xercesc_3_2@@QAE@XZ 10047de0 f i xerces-c_3:DOMDocumentImpl.cpp.obj
 0001:00046de0       ??1?$ValueVectorOf@_N@xercesc_3_2@@QAE@XZ 10047de0 f i xerces-c_3:SGXMLScanner.cpp.obj
 0001:00046de0       ??1?$ValueVectorOf@PAVQName@xercesc_3_2@@@xercesc_3_2@@QAE@XZ 10047de0 f i xerces-c_3:AllContentModel.cpp.obj
 0001:00046e20       ??1?$XMLEnumerator@V?$KeyRefPair@XVDOMUserDataHandler@xercesc_3_2@@@xercesc_3_2@@@xercesc_3_2@@UAE@XZ 10047e20 f i xerces-c_3:DOMDocumentImpl.cpp.obj
 0001:00046e30       ??1DOMDocument@xercesc_3_2@@UAE@XZ 10047e30 f i xerces-c_3:DOMDocumentImpl.cpp.obj
 0001:00046e50       ??1DOMDocumentImpl@xercesc_3_2@@UAE@XZ 10047e50 f   xerces-c_3:DOMDocumentImpl.cpp.obj
 0001:000470e0       ??1DOMMemoryManager@xercesc_3_2@@UAE@XZ 100480e0 f i xerces-c_3:DOMDocumentImpl.cpp.obj
 0001:000470f0       ??1EmptyStackException@xercesc_3_2@@UAE@XZ 100480f0 f i xerces-c_3:DOMDocumentImpl.cpp.obj
 0001:00047100       ??1HasDOMNodeImpl@xercesc_3_2@@UAE@XZ 10048100 f i xerces-c_3:DOMDocumentImpl.cpp.obj
 0001:00047110       ??1HasDOMParentImpl@xercesc_3_2@@UAE@XZ 10048110 f i xerces-c_3:DOMDocumentImpl.cpp.obj
 0001:00047120       ??1NoSuchElementException@xercesc_3_2@@UAE@XZ 10048120 f i xerces-c_3:DOMDocumentImpl.cpp.obj
 0001:00047130       ??1NullPointerException@xercesc_3_2@@UAE@XZ 10048130 f i xerces-c_3:DOMDocumentImpl.cpp.obj
 0001:0004713b       ??_9DOMXPathExpression@xercesc_3_2@@$B7AE 1004813b f i xerces-c_3:DOMDocumentImpl.cpp.obj
 0001:00047140       ??_EDOMDocument@xercesc_3_2@@W3AEPAXI@Z 10048140 f i xerces-c_3:DOMDocumentImpl.cpp.obj
 0001:00047148       ??_EDOMDocument@xercesc_3_2@@W7AEPAXI@Z 10048148 f i xerces-c_3:DOMDocumentImpl.cpp.obj
 0001:00047150       ??_EDOMDocument@xercesc_3_2@@WM@AEPAXI@Z 10048150 f i xerces-c_3:DOMDocumentImpl.cpp.obj
 0001:00047158       ??_EDOMDocumentImpl@xercesc_3_2@@W3AEPAXI@Z 10048158 f i xerces-c_3:DOMDocumentImpl.cpp.obj
 0001:00047160       ??_EDOMDocumentImpl@xercesc_3_2@@W7AEPAXI@Z 10048160 f i xerces-c_3:DOMDocumentImpl.cpp.obj
 0001:00047168       ??_EDOMDocumentImpl@xercesc_3_2@@WBA@AEPAXI@Z 10048168 f i xerces-c_3:DOMDocumentImpl.cpp.obj
 0001:00047170       ??_EDOMDocumentImpl@xercesc_3_2@@WBE@AEPAXI@Z 10048170 f i xerces-c_3:DOMDocumentImpl.cpp.obj
 0001:00047178       ??_EDOMDocumentImpl@xercesc_3_2@@WBI@AEPAXI@Z 10048178 f i xerces-c_3:DOMDocumentImpl.cpp.obj
 0001:00047180       ??_EDOMDocumentImpl@xercesc_3_2@@WM@AEPAXI@Z 10048180 f i xerces-c_3:DOMDocumentImpl.cpp.obj
 0001:00047190       ??_G?$BaseRefVectorOf@VDOMBuffer@xercesc_3_2@@@xercesc_3_2@@UAEPAXI@Z 10048190 f i xerces-c_3:DOMDocumentImpl.cpp.obj
 0001:00047190       ??_E?$BaseRefVectorOf@VDOMBuffer@xercesc_3_2@@@xercesc_3_2@@UAEPAXI@Z 10048190 f i xerces-c_3:DOMDocumentImpl.cpp.obj
 0001:000471d0       ??_G?$BaseRefVectorOf@VDOMNode@xercesc_3_2@@@xercesc_3_2@@UAEPAXI@Z 100481d0 f i xerces-c_3:DOMDocumentImpl.cpp.obj
 0001:000471d0       ??_E?$BaseRefVectorOf@VDOMNode@xercesc_3_2@@@xercesc_3_2@@UAEPAXI@Z 100481d0 f i xerces-c_3:DOMDocumentImpl.cpp.obj
 0001:00047210       ??_E?$BaseRefVectorOf@VDOMNodeIteratorImpl@xercesc_3_2@@@xercesc_3_2@@UAEPAXI@Z 10048210 f i xerces-c_3:DOMDocumentImpl.cpp.obj
 0001:00047210       ??_G?$BaseRefVectorOf@VDOMNodeIteratorImpl@xercesc_3_2@@@xercesc_3_2@@UAEPAXI@Z 10048210 f i xerces-c_3:DOMDocumentImpl.cpp.obj
 0001:00047250       ??_E?$BaseRefVectorOf@VDOMRangeImpl@xercesc_3_2@@@xercesc_3_2@@UAEPAXI@Z 10048250 f i xerces-c_3:DOMDocumentImpl.cpp.obj
 0001:00047250       ??_G?$BaseRefVectorOf@VDOMRangeImpl@xercesc_3_2@@@xercesc_3_2@@UAEPAXI@Z 10048250 f i xerces-c_3:DOMDocumentImpl.cpp.obj
 0001:00047290       ??_G?$RefHash2KeysTableOf@V?$KeyRefPair@XVDOMUserDataHandler@xercesc_3_2@@@xercesc_3_2@@UPtrHasher@2@@xercesc_3_2@@QAEPAXI@Z 10048290 f i xerces-c_3:DOMDocumentImpl.cpp.obj
 0001:00047370       ??_G?$RefHash2KeysTableOfEnumerator@V?$KeyRefPair@XVDOMUserDataHandler@xercesc_3_2@@@xercesc_3_2@@UPtrHasher@2@@xercesc_3_2@@UAEPAXI@Z 10048370 f i xerces-c_3:DOMDocumentImpl.cpp.obj
 0001:00047370       ??_E?$RefHash2KeysTableOfEnumerator@V?$KeyRefPair@XVDOMUserDataHandler@xercesc_3_2@@@xercesc_3_2@@UPtrHasher@2@@xercesc_3_2@@UAEPAXI@Z 10048370 f i xerces-c_3:DOMDocumentImpl.cpp.obj
 0001:000473c0       ??_E?$RefVectorOf@VDOMBuffer@xercesc_3_2@@@xercesc_3_2@@UAEPAXI@Z 100483c0 f i xerces-c_3:DOMDocumentImpl.cpp.obj
 0001:000473c0       ??_G?$RefVectorOf@VDOMBuffer@xercesc_3_2@@@xercesc_3_2@@UAEPAXI@Z 100483c0 f i xerces-c_3:DOMDocumentImpl.cpp.obj
 0001:00047400       ??_G?$RefVectorOf@VDOMNode@xercesc_3_2@@@xercesc_3_2@@UAEPAXI@Z 10048400 f i xerces-c_3:DOMDocumentImpl.cpp.obj
 0001:00047400       ??_E?$RefVectorOf@VDOMNode@xercesc_3_2@@@xercesc_3_2@@UAEPAXI@Z 10048400 f i xerces-c_3:DOMDocumentImpl.cpp.obj
 0001:00047440       ??_G?$RefVectorOf@VDOMNodeIteratorImpl@xercesc_3_2@@@xercesc_3_2@@UAEPAXI@Z 10048440 f i xerces-c_3:DOMDocumentImpl.cpp.obj
 0001:00047440       ??_E?$RefVectorOf@VDOMNodeIteratorImpl@xercesc_3_2@@@xercesc_3_2@@UAEPAXI@Z 10048440 f i xerces-c_3:DOMDocumentImpl.cpp.obj
 0001:000474e0       ??_G?$RefVectorOf@VDOMRangeImpl@xercesc_3_2@@@xercesc_3_2@@UAEPAXI@Z 100484e0 f i xerces-c_3:DOMDocumentImpl.cpp.obj
 0001:000474e0       ??_E?$RefVectorOf@VDOMRangeImpl@xercesc_3_2@@@xercesc_3_2@@UAEPAXI@Z 100484e0 f i xerces-c_3:DOMDocumentImpl.cpp.obj
 0001:00047580       ??_G?$ValueVectorEnumerator@H@xercesc_3_2@@UAEPAXI@Z 10048580 f i xerces-c_3:DOMDocumentImpl.cpp.obj
 0001:00047580       ??_E?$ValueVectorEnumerator@H@xercesc_3_2@@UAEPAXI@Z 10048580 f i xerces-c_3:DOMDocumentImpl.cpp.obj
 0001:00047610       ??_G?$XMLEnumerator@H@xercesc_3_2@@UAEPAXI@Z 10048610 f i xerces-c_3:DOMDocumentImpl.cpp.obj
 0001:00047610       ??_E?$XMLEnumerator@H@xercesc_3_2@@UAEPAXI@Z 10048610 f i xerces-c_3:DOMDocumentImpl.cpp.obj
 0001:00047640       ??_E?$XMLEnumerator@V?$KeyRefPair@XVDOMUserDataHandler@xercesc_3_2@@@xercesc_3_2@@@xercesc_3_2@@UAEPAXI@Z 10048640 f i xerces-c_3:DOMDocumentImpl.cpp.obj
 0001:00047640       ??_G?$XMLEnumerator@V?$KeyRefPair@XVDOMUserDataHandler@xercesc_3_2@@@xercesc_3_2@@@xercesc_3_2@@UAEPAXI@Z 10048640 f i xerces-c_3:DOMDocumentImpl.cpp.obj
 0001:00047670       ??_EDOMDocument@xercesc_3_2@@UAEPAXI@Z 10048670 f i xerces-c_3:DOMDocumentImpl.cpp.obj
 0001:00047670       ??_GDOMDocument@xercesc_3_2@@UAEPAXI@Z 10048670 f i xerces-c_3:DOMDocumentImpl.cpp.obj
 0001:000476b0       ??_EDOMDocumentImpl@xercesc_3_2@@UAEPAXI@Z 100486b0 f i xerces-c_3:DOMDocumentImpl.cpp.obj
 0001:000476b0       ??_GDOMDocumentImpl@xercesc_3_2@@UAEPAXI@Z 100486b0 f i xerces-c_3:DOMDocumentImpl.cpp.obj
 0001:000476f0       ??_GDOMDocumentRange@xercesc_3_2@@UAEPAXI@Z 100486f0 f i xerces-c_3:DOMDocumentImpl.cpp.obj
 0001:000476f0       ??_EDOMDocumentRange@xercesc_3_2@@UAEPAXI@Z 100486f0 f i xerces-c_3:DOMDocumentImpl.cpp.obj
 0001:00047720       ??_EDOMDocumentTraversal@xercesc_3_2@@UAEPAXI@Z 10048720 f i xerces-c_3:DOMDocumentImpl.cpp.obj
 0001:00047720       ??_GDOMDocumentTraversal@xercesc_3_2@@UAEPAXI@Z 10048720 f i xerces-c_3:DOMDocumentImpl.cpp.obj
 0001:00047750       ??_GDOMMemoryManager@xercesc_3_2@@UAEPAXI@Z 10048750 f i xerces-c_3:DOMDocumentImpl.cpp.obj
 0001:00047750       ??_EDOMMemoryManager@xercesc_3_2@@UAEPAXI@Z 10048750 f i xerces-c_3:DOMDocumentImpl.cpp.obj
 0001:00047780       ??_EDOMNode@xercesc_3_2@@UAEPAXI@Z 10048780 f i xerces-c_3:DOMDocumentImpl.cpp.obj
 0001:00047780       ??_GDOMNode@xercesc_3_2@@UAEPAXI@Z 10048780 f i xerces-c_3:DOMDocumentImpl.cpp.obj
 0001:000477b0       ??_EDOMXPathEvaluator@xercesc_3_2@@UAEPAXI@Z 100487b0 f i xerces-c_3:DOMDocumentImpl.cpp.obj
 0001:000477b0       ??_GDOMXPathEvaluator@xercesc_3_2@@UAEPAXI@Z 100487b0 f i xerces-c_3:DOMDocumentImpl.cpp.obj
 0001:000477e0       ??_GEmptyStackException@xercesc_3_2@@UAEPAXI@Z 100487e0 f i xerces-c_3:DOMDocumentImpl.cpp.obj
 0001:000477e0       ??_EEmptyStackException@xercesc_3_2@@UAEPAXI@Z 100487e0 f i xerces-c_3:DOMDocumentImpl.cpp.obj
 0001:00047820       ??_GHasDOMNodeImpl@xercesc_3_2@@UAEPAXI@Z 10048820 f i xerces-c_3:DOMDocumentImpl.cpp.obj
 0001:00047820       ??_EHasDOMNodeImpl@xercesc_3_2@@UAEPAXI@Z 10048820 f i xerces-c_3:DOMDocumentImpl.cpp.obj
 0001:00047850       ??_EHasDOMParentImpl@xercesc_3_2@@UAEPAXI@Z 10048850 f i xerces-c_3:DOMDocumentImpl.cpp.obj
 0001:00047850       ??_GHasDOMParentImpl@xercesc_3_2@@UAEPAXI@Z 10048850 f i xerces-c_3:DOMDocumentImpl.cpp.obj
 0001:00047880       ??_ENoSuchElementException@xercesc_3_2@@UAEPAXI@Z 10048880 f i xerces-c_3:DOMDocumentImpl.cpp.obj
 0001:00047880       ??_GNoSuchElementException@xercesc_3_2@@UAEPAXI@Z 10048880 f i xerces-c_3:DOMDocumentImpl.cpp.obj
 0001:000478c0       ??_GNullPointerException@xercesc_3_2@@UAEPAXI@Z 100488c0 f i xerces-c_3:DOMDocumentImpl.cpp.obj
 0001:000478c0       ??_ENullPointerException@xercesc_3_2@@UAEPAXI@Z 100488c0 f i xerces-c_3:DOMDocumentImpl.cpp.obj
 0001:00047900       ?Reset@?$RefHash2KeysTableOfEnumerator@V?$KeyRefPair@XVDOMUserDataHandler@xercesc_3_2@@@xercesc_3_2@@UPtrHasher@2@@xercesc_3_2@@UAEXXZ 10048900 f i xerces-c_3:DOMDocumentImpl.cpp.obj
 0001:00047940       ?reset@DOMNodeVector@xercesc_3_2@@QAEXXZ 10048940 f i xerces-c_3:DOMNodeVector.cpp.obj
 0001:00047940       ?Reset@?$ValueVectorEnumerator@H@xercesc_3_2@@UAEXXZ 10048940 f i xerces-c_3:DOMDocumentImpl.cpp.obj
 0001:00047940       ?Reset@?$BaseRefVectorEnumerator@VSchemaInfo@xercesc_3_2@@@xercesc_3_2@@UAEXXZ 10048940 f i xerces-c_3:TraverseSchema.cpp.obj
 0001:00047950       ?addElement@?$ValueVectorOf@PAVSchemaElementDecl@xercesc_3_2@@@xercesc_3_2@@QAEXABQAVSchemaElementDecl@2@@Z 10048950 f i xerces-c_3:XTemplateSerializer.cpp.obj
 0001:00047950       ?push@?$ValueStackOf@PAVComplexTypeInfo@xercesc_3_2@@@xercesc_3_2@@QAEXABQAVComplexTypeInfo@2@@Z 10048950 f i xerces-c_3:SchemaValidator.cpp.obj
 0001:00047950       ?push@?$ValueStackOf@PAVContentSpecNode@xercesc_3_2@@@xercesc_3_2@@QAEXABQAVContentSpecNode@2@@Z 10048950 f i xerces-c_3:ContentSpecNode.cpp.obj
 0001:00047950       ?addElement@?$ValueVectorOf@PAVQName@xercesc_3_2@@@xercesc_3_2@@QAEXABQAVQName@2@@Z 10048950 f i xerces-c_3:AllContentModel.cpp.obj
 0001:00047950       ?addElement@?$ValueVectorOf@I@xercesc_3_2@@QAEXABI@Z 10048950 f i xerces-c_3:WFXMLScanner.cpp.obj
 0001:00047950       ?addElement@?$ValueVectorOf@PAVDOMNode@xercesc_3_2@@@xercesc_3_2@@QAEXABQAVDOMNode@2@@Z 10048950 f i xerces-c_3:GeneralAttributeCheck.cpp.obj
 0001:00047950       ?addElement@?$ValueVectorOf@PAVContentSpecNode@xercesc_3_2@@@xercesc_3_2@@QAEXABQAVContentSpecNode@2@@Z 10048950 f i xerces-c_3:ContentSpecNode.cpp.obj
 0001:00047950       ?addElement@?$ValueVectorOf@PAVSchemaGrammar@xercesc_3_2@@@xercesc_3_2@@QAEXABQAVSchemaGrammar@2@@Z 10048950 f i xerces-c_3:GrammarResolver.cpp.obj
 0001:00047950       ?addElement@?$ValueVectorOf@PAUPrefMapElem@xercesc_3_2@@@xercesc_3_2@@QAEXABQAUPrefMapElem@2@@Z 10048950 f i xerces-c_3:ElemStack.cpp.obj
 0001:00047950       ?addElement@?$ValueVectorOf@H@xercesc_3_2@@QAEXABH@Z 10048950 f i xerces-c_3:DOMDocumentImpl.cpp.obj
 0001:00047950       ?addElement@?$ValueVectorOf@PBVDOMElement@xercesc_3_2@@@xercesc_3_2@@QAEXABQBVDOMElement@2@@Z 10048950 f i xerces-c_3:TraverseSchema.cpp.obj
 0001:00047a20       ?adoptNode@DOMDocumentImpl@xercesc_3_2@@UAEPAVDOMNode@2@PAV32@@Z 10048a20 f   xerces-c_3:DOMDocumentImpl.cpp.obj
 0001:00047ac0       ?allocate@DOMDocumentImpl@xercesc_3_2@@UAEPAXI@Z 10048ac0 f   xerces-c_3:DOMDocumentImpl.cpp.obj
 0001:00047b80       ?allocate@DOMDocumentImpl@xercesc_3_2@@UAEPAXIW4NodeObjectType@DOMMemoryManager@2@@Z 10048b80 f   xerces-c_3:DOMDocumentImpl.cpp.obj
 0001:00047c30       ?appendChild@DOMDocumentImpl@xercesc_3_2@@UAEPAVDOMNode@2@PAV32@@Z 10048c30 f   xerces-c_3:DOMDocumentImpl.cpp.obj
 0001:00047c40       ?callUserDataHandlers@DOMDocumentImpl@xercesc_3_2@@QBEXPBVDOMNodeImpl@2@W4DOMOperationType@DOMUserDataHandler@2@PBVDOMNode@2@PAV62@@Z 10048c40 f   xerces-c_3:DOMDocumentImpl.cpp.obj
 0001:000480b0       ?changed@DOMDocumentImpl@xercesc_3_2@@UAEXXZ 100490b0 f   xerces-c_3:DOMDocumentImpl.cpp.obj
 0001:000480c0       ?cleanup@?$BaseRefVectorOf@VDOMBuffer@xercesc_3_2@@@xercesc_3_2@@UAEXXZ 100490c0 f i xerces-c_3:DOMDocumentImpl.cpp.obj
 0001:00048100       ?cloneNode@DOMDocumentImpl@xercesc_3_2@@UBEPAVDOMNode@2@_N@Z 10049100 f   xerces-c_3:DOMDocumentImpl.cpp.obj
 0001:00048410       ?cloneString@DOMDocumentImpl@xercesc_3_2@@UAEPA_WPB_W@Z 10049410 f   xerces-c_3:DOMDocumentImpl.cpp.obj
 0001:00048460       ?compareDocumentPosition@DOMProcessingInstructionImpl@xercesc_3_2@@UBEFPBVDOMNode@2@@Z 10049460 f   xerces-c_3:DOMProcessingInstructionImpl.cpp.obj
 0001:00048460       ?compareDocumentPosition@DOMCDATASectionImpl@xercesc_3_2@@UBEFPBVDOMNode@2@@Z 10049460 f   xerces-c_3:DOMCDATASectionImpl.cpp.obj
 0001:00048460       ?compareDocumentPosition@DOMCommentImpl@xercesc_3_2@@UBEFPBVDOMNode@2@@Z 10049460 f   xerces-c_3:DOMCommentImpl.cpp.obj
 0001:00048460       ?compareDocumentPosition@DOMTextImpl@xercesc_3_2@@UBEFPBVDOMNode@2@@Z 10049460 f   xerces-c_3:DOMTextImpl.cpp.obj
 0001:00048460       ?compareDocumentPosition@DOMAttrImpl@xercesc_3_2@@UBEFPBVDOMNode@2@@Z 10049460 f   xerces-c_3:DOMAttrImpl.cpp.obj
 0001:00048460       ?compareDocumentPosition@DOMDocumentImpl@xercesc_3_2@@UBEFPBVDOMNode@2@@Z 10049460 f   xerces-c_3:DOMDocumentImpl.cpp.obj
 0001:00048460       ?compareDocumentPosition@DOMDocumentFragmentImpl@xercesc_3_2@@UBEFPBVDOMNode@2@@Z 10049460 f   xerces-c_3:DOMDocumentFragmentImpl.cpp.obj
 0001:00048460       ?compareDocumentPosition@DOMEntityImpl@xercesc_3_2@@UBEFPBVDOMNode@2@@Z 10049460 f   xerces-c_3:DOMEntityImpl.cpp.obj
 0001:00048470       ?createAttribute@DOMDocumentImpl@xercesc_3_2@@UAEPAVDOMAttr@2@PB_W@Z 10049470 f   xerces-c_3:DOMDocumentImpl.cpp.obj
 0001:00048540       ?createAttributeNS@DOMDocumentImpl@xercesc_3_2@@UAEPAVDOMAttr@2@PB_W0@Z 10049540 f   xerces-c_3:DOMDocumentImpl.cpp.obj
 0001:00048610       ?createCDATASection@DOMDocumentImpl@xercesc_3_2@@UAEPAVDOMCDATASection@2@PB_W@Z 10049610 f   xerces-c_3:DOMDocumentImpl.cpp.obj
 0001:00048690       ?createComment@DOMDocumentImpl@xercesc_3_2@@UAEPAVDOMComment@2@PB_W@Z 10049690 f   xerces-c_3:DOMDocumentImpl.cpp.obj
 0001:00048710       ?createDocumentFragment@DOMDocumentImpl@xercesc_3_2@@UAEPAVDOMDocumentFragment@2@XZ 10049710 f   xerces-c_3:DOMDocumentImpl.cpp.obj
 0001:00048790       ?createDocumentType@DOMDocument@xercesc_3_2@@UAEPAVDOMDocumentType@2@PB_W00@Z 10049790 f i xerces-c_3:DOMDocumentImpl.cpp.obj
 0001:000487a0       ?createDocumentType@DOMDocumentImpl@xercesc_3_2@@UAEPAVDOMDocumentType@2@PB_W00@Z 100497a0 f   xerces-c_3:DOMDocumentImpl.cpp.obj
 0001:00048880       ?createDocumentType@DOMDocumentImpl@xercesc_3_2@@UAEPAVDOMDocumentType@2@PB_W@Z 10049880 f   xerces-c_3:DOMDocumentImpl.cpp.obj
 0001:00048950       ?createElement@DOMDocumentImpl@xercesc_3_2@@UAEPAVDOMElement@2@PB_W@Z 10049950 f   xerces-c_3:DOMDocumentImpl.cpp.obj
 0001:00048a20       ?createElementNS@DOMDocumentImpl@xercesc_3_2@@UAEPAVDOMElement@2@PB_W0@Z 10049a20 f   xerces-c_3:DOMDocumentImpl.cpp.obj
 0001:00048af0       ?createElementNS@DOMDocumentImpl@xercesc_3_2@@UAEPAVDOMElement@2@PB_W0_K1@Z 10049af0 f   xerces-c_3:DOMDocumentImpl.cpp.obj
 0001:00048bd0       ?createElementNoCheck@DOMDocumentImpl@xercesc_3_2@@UAEPAVDOMElement@2@PB_W@Z 10049bd0 f   xerces-c_3:DOMDocumentImpl.cpp.obj
 0001:00048c50       ?createEntity@DOMDocumentImpl@xercesc_3_2@@UAEPAVDOMEntity@2@PB_W@Z 10049c50 f   xerces-c_3:DOMDocumentImpl.cpp.obj
 0001:00048d20       ?createEntityReference@DOMDocumentImpl@xercesc_3_2@@UAEPAVDOMEntityReference@2@PB_W@Z 10049d20 f   xerces-c_3:DOMDocumentImpl.cpp.obj
 0001:00048df0       ?createEntityReferenceByParser@DOMDocumentImpl@xercesc_3_2@@QAEPAVDOMEntityReference@2@PB_W@Z 10049df0 f   xerces-c_3:DOMDocumentImpl.cpp.obj
 0001:00048ec0       ?createExpression@DOMDocumentImpl@xercesc_3_2@@UAEPAVDOMXPathExpression@2@PB_WPBVDOMXPathNSResolver@2@@Z 10049ec0 f   xerces-c_3:DOMDocumentImpl.cpp.obj
 0001:00048f50       ?createNSResolver@DOMDocumentImpl@xercesc_3_2@@UAEPAVDOMXPathNSResolver@2@PBVDOMNode@2@@Z 10049f50 f   xerces-c_3:DOMDocumentImpl.cpp.obj
 0001:00048fd0       ?createNodeIterator@DOMDocumentImpl@xercesc_3_2@@UAEPAVDOMNodeIterator@2@PAVDOMNode@2@KPAVDOMNodeFilter@2@_N@Z 10049fd0 f   xerces-c_3:DOMDocumentImpl.cpp.obj
 0001:00049180       ?createNotation@DOMDocumentImpl@xercesc_3_2@@UAEPAVDOMNotation@2@PB_W@Z 1004a180 f   xerces-c_3:DOMDocumentImpl.cpp.obj
 0001:00049250       ?createProcessingInstruction@DOMDocumentImpl@xercesc_3_2@@UAEPAVDOMProcessingInstruction@2@PB_W0@Z 1004a250 f   xerces-c_3:DOMDocumentImpl.cpp.obj
 0001:00049320       ?createRange@DOMDocumentImpl@xercesc_3_2@@UAEPAVDOMRange@2@XZ 1004a320 f   xerces-c_3:DOMDocumentImpl.cpp.obj
 0001:000494a0       ?createTextNode@DOMDocumentImpl@xercesc_3_2@@UAEPAVDOMText@2@PB_W@Z 1004a4a0 f   xerces-c_3:DOMDocumentImpl.cpp.obj
 0001:00049520       ?createTreeWalker@DOMDocumentImpl@xercesc_3_2@@UAEPAVDOMTreeWalker@2@PAVDOMNode@2@KPAVDOMNodeFilter@2@_N@Z 1004a520 f   xerces-c_3:DOMDocumentImpl.cpp.obj
 0001:000495c0       ?deleteHeap@DOMDocumentImpl@xercesc_3_2@@QAEXXZ 1004a5c0 f   xerces-c_3:DOMDocumentImpl.cpp.obj
 0001:00049610       ?duplicate@EmptyStackException@xercesc_3_2@@UBEPAVXMLException@2@XZ 1004a610 f i xerces-c_3:DOMDocumentImpl.cpp.obj
 0001:00049690       ?duplicate@NoSuchElementException@xercesc_3_2@@UBEPAVXMLException@2@XZ 1004a690 f i xerces-c_3:DOMDocumentImpl.cpp.obj
 0001:00049710       ?duplicate@NullPointerException@xercesc_3_2@@UBEPAVXMLException@2@XZ 1004a710 f i xerces-c_3:DOMDocumentImpl.cpp.obj
 0001:00049790       ?evaluate@DOMDocumentImpl@xercesc_3_2@@UAEPAVDOMXPathResult@2@PB_WPBVDOMNode@2@PBVDOMXPathNSResolver@2@W4ResultType@32@PAV32@@Z 1004a790 f   xerces-c_3:DOMDocumentImpl.cpp.obj
 0001:00049810       ?findBucketElem@?$DOMDeepNodeListPool@VDOMDeepNodeListImpl@xercesc_3_2@@UPtrHasher@2@@xercesc_3_2@@AAEPAU?$DOMDeepNodeListPoolTableBucketElem@VDOMDeepNodeListImpl@xercesc_3_2@@@2@QBXQB_W1AAI@Z 1004a810 f i xerces-c_3:DOMDocumentImpl.cpp.obj
 0001:00049920       ?findNext@?$RefHash2KeysTableOfEnumerator@V?$KeyRefPair@XVDOMUserDataHandler@xercesc_3_2@@@xercesc_3_2@@UPtrHasher@2@@xercesc_3_2@@AAEXXZ 1004a920 f i xerces-c_3:DOMDocumentImpl.cpp.obj
 0001:000499d0       ?get@?$RefHash2KeysTableOf@V?$KeyRefPair@XVDOMUserDataHandler@xercesc_3_2@@@xercesc_3_2@@UPtrHasher@2@@xercesc_3_2@@QAEPAV?$KeyRefPair@XVDOMUserDataHandler@xercesc_3_2@@@2@QBXH@Z 1004a9d0 f i xerces-c_3:DOMDocumentImpl.cpp.obj
 0001:000499d0       ?get@?$RefHash2KeysTableOf@VValueStore@xercesc_3_2@@UPtrHasher@2@@xercesc_3_2@@QAEPAVValueStore@2@QBXH@Z 1004a9d0 f i xerces-c_3:IdentityConstraintHandler.cpp.obj
 0001:00049a10       ?getAttributes@DOMDocumentImpl@xercesc_3_2@@UBEPAVDOMNamedNodeMap@2@XZ 1004aa10 f   xerces-c_3:DOMDocumentImpl.cpp.obj
 0001:00049a10       ?getPrefix@DOMTextImpl@xercesc_3_2@@UBEPB_WXZ 1004aa10 f   xerces-c_3:DOMTextImpl.cpp.obj
 0001:00049a10       ?getNodeValue@DOMEntityImpl@xercesc_3_2@@UBEPB_WXZ 1004aa10 f   xerces-c_3:DOMEntityImpl.cpp.obj
 0001:00049a10       ?getLastChild@DOMProcessingInstructionImpl@xercesc_3_2@@UBEPAVDOMNode@2@XZ 1004aa10 f   xerces-c_3:DOMProcessingInstructionImpl.cpp.obj
 0001:00049a10       ?getLocalName@DOMProcessingInstructionImpl@xercesc_3_2@@UBEPB_WXZ 1004aa10 f   xerces-c_3:DOMProcessingInstructionImpl.cpp.obj
 0001:00049a10       ?getAttributes@DOMDocumentFragmentImpl@xercesc_3_2@@UBEPAVDOMNamedNodeMap@2@XZ 1004aa10 f   xerces-c_3:DOMDocumentFragmentImpl.cpp.obj
 0001:00049a10       ?getPrefix@DOMDocumentImpl@xercesc_3_2@@UBEPB_WXZ 1004aa10 f   xerces-c_3:DOMDocumentImpl.cpp.obj
 0001:00049a10       ?getAttributes@DOMProcessingInstructionImpl@xercesc_3_2@@UBEPAVDOMNamedNodeMap@2@XZ 1004aa10 f   xerces-c_3:DOMProcessingInstructionImpl.cpp.obj
 0001:00049a10       ?getNextSibling@DOMAttrImpl@xercesc_3_2@@UBEPAVDOMNode@2@XZ 1004aa10 f   xerces-c_3:DOMAttrImpl.cpp.obj
 0001:00049a10       ?getNextSibling@DOMEntityImpl@xercesc_3_2@@UBEPAVDOMNode@2@XZ 1004aa10 f   xerces-c_3:DOMEntityImpl.cpp.obj
 0001:00049a10       ?getParentNode@DOMEntityImpl@xercesc_3_2@@UBEPAVDOMNode@2@XZ 1004aa10 f   xerces-c_3:DOMEntityImpl.cpp.obj
 0001:00049a10       ?getNamespaceURI@DOMEntityImpl@xercesc_3_2@@UBEPB_WXZ 1004aa10 f   xerces-c_3:DOMEntityImpl.cpp.obj
 0001:00049a10       ?getNamespaceURI@DOMDocumentImpl@xercesc_3_2@@UBEPB_WXZ 1004aa10 f   xerces-c_3:DOMDocumentImpl.cpp.obj
 0001:00049a10       ?getNamespaceURI@DOMProcessingInstructionImpl@xercesc_3_2@@UBEPB_WXZ 1004aa10 f   xerces-c_3:DOMProcessingInstructionImpl.cpp.obj
 0001:00049a10       ?getNodeValue@DOMDocumentImpl@xercesc_3_2@@UBEPB_WXZ 1004aa10 f   xerces-c_3:DOMDocumentImpl.cpp.obj
 0001:00049a10       ?getNamespaceURI@DOMTextImpl@xercesc_3_2@@UBEPB_WXZ 1004aa10 f   xerces-c_3:DOMTextImpl.cpp.obj
 0001:00049a10       ?getParentNode@DOMDocumentFragmentImpl@xercesc_3_2@@UBEPAVDOMNode@2@XZ 1004aa10 f   xerces-c_3:DOMDocumentFragmentImpl.cpp.obj
 0001:00049a10       ?getFirstChild@DOMCommentImpl@xercesc_3_2@@UBEPAVDOMNode@2@XZ 1004aa10 f   xerces-c_3:DOMCommentImpl.cpp.obj
 0001:00049a10       ?getLastChild@DOMTextImpl@xercesc_3_2@@UBEPAVDOMNode@2@XZ 1004aa10 f   xerces-c_3:DOMTextImpl.cpp.obj
 0001:00049a10       ?getNamespaceURI@DOMCDATASectionImpl@xercesc_3_2@@UBEPB_WXZ 1004aa10 f   xerces-c_3:DOMCDATASectionImpl.cpp.obj
 0001:00049a10       ?getNamespaceURI@DOMAttrImpl@xercesc_3_2@@UBEPB_WXZ 1004aa10 f   xerces-c_3:DOMAttrImpl.cpp.obj
 0001:00049a10       ?getPrefix@DOMEntityImpl@xercesc_3_2@@UBEPB_WXZ 1004aa10 f   xerces-c_3:DOMEntityImpl.cpp.obj
 0001:00049a10       ?getAttributes@DOMAttrImpl@xercesc_3_2@@UBEPAVDOMNamedNodeMap@2@XZ 1004aa10 f   xerces-c_3:DOMAttrImpl.cpp.obj
 0001:00049a10       ?getLocalName@DOMEntityImpl@xercesc_3_2@@UBEPB_WXZ 1004aa10 f   xerces-c_3:DOMEntityImpl.cpp.obj
 0001:00049a10       ?getFirstChild@DOMTextImpl@xercesc_3_2@@UBEPAVDOMNode@2@XZ 1004aa10 f   xerces-c_3:DOMTextImpl.cpp.obj
 0001:00049a10       ?getNextSibling@DOMDocumentFragmentImpl@xercesc_3_2@@UBEPAVDOMNode@2@XZ 1004aa10 f   xerces-c_3:DOMDocumentFragmentImpl.cpp.obj
 0001:00049a10       ?getPrefix@DOMAttrImpl@xercesc_3_2@@UBEPB_WXZ 1004aa10 f   xerces-c_3:DOMAttrImpl.cpp.obj
 0001:00049a10       ?getLocalName@DOMCDATASectionImpl@xercesc_3_2@@UBEPB_WXZ 1004aa10 f   xerces-c_3:DOMCDATASectionImpl.cpp.obj
 0001:00049a10       ?getPrefix@DOMProcessingInstructionImpl@xercesc_3_2@@UBEPB_WXZ 1004aa10 f   xerces-c_3:DOMProcessingInstructionImpl.cpp.obj
 0001:00049a10       ?getNamespaceURI@DOMCommentImpl@xercesc_3_2@@UBEPB_WXZ 1004aa10 f   xerces-c_3:DOMCommentImpl.cpp.obj
 0001:00049a10       ?getLocalName@DOMTextImpl@xercesc_3_2@@UBEPB_WXZ 1004aa10 f   xerces-c_3:DOMTextImpl.cpp.obj
 0001:00049a10       ?getLocalName@DOMAttrImpl@xercesc_3_2@@UBEPB_WXZ 1004aa10 f   xerces-c_3:DOMAttrImpl.cpp.obj
 0001:00049a10       ?getPreviousSibling@DOMAttrImpl@xercesc_3_2@@UBEPAVDOMNode@2@XZ 1004aa10 f   xerces-c_3:DOMAttrImpl.cpp.obj
 0001:00049a10       ?getLocalName@DOMDocumentFragmentImpl@xercesc_3_2@@UBEPB_WXZ 1004aa10 f   xerces-c_3:DOMDocumentFragmentImpl.cpp.obj
 0001:00049a10       ?getNamespaceURI@DOMDocumentFragmentImpl@xercesc_3_2@@UBEPB_WXZ 1004aa10 f   xerces-c_3:DOMDocumentFragmentImpl.cpp.obj
 0001:00049a10       ?getAttributes@DOMEntityImpl@xercesc_3_2@@UBEPAVDOMNamedNodeMap@2@XZ 1004aa10 f   xerces-c_3:DOMEntityImpl.cpp.obj
 0001:00049a10       ?getPreviousSibling@DOMDocumentFragmentImpl@xercesc_3_2@@UBEPAVDOMNode@2@XZ 1004aa10 f   xerces-c_3:DOMDocumentFragmentImpl.cpp.obj
 0001:00049a10       ?getLocalName@DOMCommentImpl@xercesc_3_2@@UBEPB_WXZ 1004aa10 f   xerces-c_3:DOMCommentImpl.cpp.obj
 0001:00049a10       ?getNextSibling@DOMDocumentImpl@xercesc_3_2@@UBEPAVDOMNode@2@XZ 1004aa10 f   xerces-c_3:DOMDocumentImpl.cpp.obj
 0001:00049a10       ?getNodeValue@DOMDocumentFragmentImpl@xercesc_3_2@@UBEPB_WXZ 1004aa10 f   xerces-c_3:DOMDocumentFragmentImpl.cpp.obj
 0001:00049a10       ?getPrefix@DOMCommentImpl@xercesc_3_2@@UBEPB_WXZ 1004aa10 f   xerces-c_3:DOMCommentImpl.cpp.obj
 0001:00049a10       ?getLocalName@DOMDocumentImpl@xercesc_3_2@@UBEPB_WXZ 1004aa10 f   xerces-c_3:DOMDocumentImpl.cpp.obj
 0001:00049a10       ?getAttributes@DOMCommentImpl@xercesc_3_2@@UBEPAVDOMNamedNodeMap@2@XZ 1004aa10 f   xerces-c_3:DOMCommentImpl.cpp.obj
 0001:00049a10       ?getPreviousSibling@DOMEntityImpl@xercesc_3_2@@UBEPAVDOMNode@2@XZ 1004aa10 f   xerces-c_3:DOMEntityImpl.cpp.obj
 0001:00049a10       ?getPrefix@DOMDocumentFragmentImpl@xercesc_3_2@@UBEPB_WXZ 1004aa10 f   xerces-c_3:DOMDocumentFragmentImpl.cpp.obj
 0001:00049a10       ?getParentNode@DOMAttrImpl@xercesc_3_2@@UBEPAVDOMNode@2@XZ 1004aa10 f   xerces-c_3:DOMAttrImpl.cpp.obj
 0001:00049a10       ?getAttributes@DOMTextImpl@xercesc_3_2@@UBEPAVDOMNamedNodeMap@2@XZ 1004aa10 f   xerces-c_3:DOMTextImpl.cpp.obj
 0001:00049a10       ?getParentNode@DOMDocumentImpl@xercesc_3_2@@UBEPAVDOMNode@2@XZ 1004aa10 f   xerces-c_3:DOMDocumentImpl.cpp.obj
 0001:00049a10       ?getFirstChild@DOMCDATASectionImpl@xercesc_3_2@@UBEPAVDOMNode@2@XZ 1004aa10 f   xerces-c_3:DOMCDATASectionImpl.cpp.obj
 0001:00049a10       ?getPrefix@DOMCDATASectionImpl@xercesc_3_2@@UBEPB_WXZ 1004aa10 f   xerces-c_3:DOMCDATASectionImpl.cpp.obj
 0001:00049a10       ?getFirstChild@DOMProcessingInstructionImpl@xercesc_3_2@@UBEPAVDOMNode@2@XZ 1004aa10 f   xerces-c_3:DOMProcessingInstructionImpl.cpp.obj
 0001:00049a10       ?getLastChild@DOMCDATASectionImpl@xercesc_3_2@@UBEPAVDOMNode@2@XZ 1004aa10 f   xerces-c_3:DOMCDATASectionImpl.cpp.obj
 0001:00049a10       ?getLastChild@DOMCommentImpl@xercesc_3_2@@UBEPAVDOMNode@2@XZ 1004aa10 f   xerces-c_3:DOMCommentImpl.cpp.obj
 0001:00049a10       ?getAttributes@DOMCDATASectionImpl@xercesc_3_2@@UBEPAVDOMNamedNodeMap@2@XZ 1004aa10 f   xerces-c_3:DOMCDATASectionImpl.cpp.obj
 0001:00049a10       ?getPreviousSibling@DOMDocumentImpl@xercesc_3_2@@UBEPAVDOMNode@2@XZ 1004aa10 f   xerces-c_3:DOMDocumentImpl.cpp.obj
 0001:00049a20       ?getXmlEncoding@DOMDocumentImpl@xercesc_3_2@@UBEPB_WXZ 1004aa20 f   xerces-c_3:DOMDocumentImpl.cpp.obj
 0001:00049a20       ?getRawData@XMLDateTime@xercesc_3_2@@UBEPA_WXZ 1004aa20 f   xerces-c_3:XMLDateTime.cpp.obj
 0001:00049a20       ?getInputEncoding@DOMEntityImpl@xercesc_3_2@@UBEPB_WXZ 1004aa20 f   xerces-c_3:DOMEntityImpl.cpp.obj
 0001:00049a20       ?getNodeName@DOMElementImpl@xercesc_3_2@@UBEPB_WXZ 1004aa20 f   xerces-c_3:DOMElementImpl.cpp.obj
 0001:00049a20       ?getEnumeration@UnionDatatypeValidator@xercesc_3_2@@ABEPAV?$RefArrayVectorOf@_W@2@XZ 1004aa20 f   xerces-c_3:UnionDatatypeValidator.cpp.obj
 0001:00049a20       ?getMaxLength@AbstractStringValidator@xercesc_3_2@@QBEIXZ 1004aa20 f   xerces-c_3:ListDatatypeValidator.cpp.obj
 0001:00049a20       ?getEnumString@UnionDatatypeValidator@xercesc_3_2@@UBEPBV?$RefArrayVectorOf@_W@2@XZ 1004aa20 f   xerces-c_3:UnionDatatypeValidator.cpp.obj
 0001:00049a20       ?getNotations@DOMDocumentTypeImpl@xercesc_3_2@@UBEPAVDOMNamedNodeMap@2@XZ 1004aa20 f   xerces-c_3:DOMDocumentTypeImpl.cpp.obj
 0001:00049a20       ?getTagName@DOMElementImpl@xercesc_3_2@@UBEPB_WXZ 1004aa20 f   xerces-c_3:DOMElementImpl.cpp.obj
 0001:00049a20       ?getBaseURI@DOMDocumentImpl@xercesc_3_2@@UBEPB_WXZ 1004aa20 f   xerces-c_3:DOMDocumentImpl.cpp.obj
 0001:00049a30       ?getChildNodes@DOMDocumentImpl@xercesc_3_2@@UBEPAVDOMNodeList@2@XZ 1004aa30 f   xerces-c_3:DOMDocumentImpl.cpp.obj
 0001:00049a30       ?getChildNodes@DOMAttrImpl@xercesc_3_2@@UBEPAVDOMNodeList@2@XZ 1004aa30 f   xerces-c_3:DOMAttrImpl.cpp.obj
 0001:00049a30       ?getChildNodes@DOMDocumentFragmentImpl@xercesc_3_2@@UBEPAVDOMNodeList@2@XZ 1004aa30 f   xerces-c_3:DOMDocumentFragmentImpl.cpp.obj
 0001:00049a40       ?getDOMConfig@DOMDocumentImpl@xercesc_3_2@@UBEPAVDOMConfiguration@2@XZ 1004aa40 f   xerces-c_3:DOMDocumentImpl.cpp.obj
 0001:00049ac0       ?getDeepNodeList@DOMDocumentImpl@xercesc_3_2@@QAEPAVDOMNodeList@2@PBVDOMNode@2@PB_W1@Z 1004aac0 f   xerces-c_3:DOMDocumentImpl.cpp.obj
 0001:00049be0       ?getDeepNodeList@DOMDocumentImpl@xercesc_3_2@@QAEPAVDOMNodeList@2@PBVDOMNode@2@PB_W@Z 1004abe0 f   xerces-c_3:DOMDocumentImpl.cpp.obj
 0001:00049d90       ?getDoctype@DOMDocumentImpl@xercesc_3_2@@UBEPAVDOMDocumentType@2@XZ 1004ad90 f   xerces-c_3:DOMDocumentImpl.cpp.obj
 0001:00049da0       ?getDocumentElement@DOMDocumentImpl@xercesc_3_2@@UBEPAVDOMElement@2@XZ 1004ada0 f   xerces-c_3:DOMDocumentImpl.cpp.obj
 0001:00049db0       ?getBaseURI@DOMEntityImpl@xercesc_3_2@@UBEPB_WXZ 1004adb0 f   xerces-c_3:DOMEntityImpl.cpp.obj
 0001:00049db0       ?getEnumString@AbstractStringValidator@xercesc_3_2@@UBEPBV?$RefArrayVectorOf@_W@2@XZ 1004adb0 f   xerces-c_3:AbstractStringValidator.cpp.obj
 0001:00049db0       ?getMinInclusive@AbstractNumericFacetValidator@xercesc_3_2@@QBEPAVXMLNumber@2@XZ 1004adb0 f   xerces-c_3:AbstractNumericFacetValidator.cpp.obj
 0001:00049db0       ?getEnumeration@AbstractStringValidator@xercesc_3_2@@QBEPAV?$RefArrayVectorOf@_W@2@XZ 1004adb0 f   xerces-c_3:Base64BinaryDatatypeValidator.cpp.obj
 0001:00049db0       ?getSystemId@DOMDocumentTypeImpl@xercesc_3_2@@UBEPB_WXZ 1004adb0 f   xerces-c_3:DOMDocumentTypeImpl.cpp.obj
 0001:00049db0       ?getPrefix@DOMElementNSImpl@xercesc_3_2@@UBEPB_WXZ 1004adb0 f   xerces-c_3:DOMElementNSImpl.cpp.obj
 0001:00049db0       ?getDocumentURI@DOMDocumentImpl@xercesc_3_2@@UBEPB_WXZ 1004adb0 f   xerces-c_3:DOMDocumentImpl.cpp.obj
 0001:00049dc0       ?getElementById@DOMDocumentImpl@xercesc_3_2@@UBEPAVDOMElement@2@PB_W@Z 1004adc0 f   xerces-c_3:DOMDocumentImpl.cpp.obj
 0001:00049df0       ?getElementsByTagName@DOMDocumentImpl@xercesc_3_2@@UBEPAVDOMNodeList@2@PB_W@Z 1004adf0 f   xerces-c_3:DOMDocumentImpl.cpp.obj
 0001:00049e10       ?getElementsByTagNameNS@DOMDocumentImpl@xercesc_3_2@@UBEPAVDOMNodeList@2@PB_W0@Z 1004ae10 f   xerces-c_3:DOMDocumentImpl.cpp.obj
 0001:00049f40       ?getFeature@DOMDocumentImpl@xercesc_3_2@@UBEPAXPB_W0@Z 1004af40 f   xerces-c_3:DOMDocumentImpl.cpp.obj
 0001:00049ff0       ?getFirstChild@DOMAttrImpl@xercesc_3_2@@UBEPAVDOMNode@2@XZ 1004aff0 f   xerces-c_3:DOMAttrImpl.cpp.obj
 0001:00049ff0       ?getFirstChild@DOMDocumentImpl@xercesc_3_2@@UBEPAVDOMNode@2@XZ 1004aff0 f   xerces-c_3:DOMDocumentImpl.cpp.obj
 0001:00049ff0       ?getFirstChild@DOMDocumentFragmentImpl@xercesc_3_2@@UBEPAVDOMNode@2@XZ 1004aff0 f   xerces-c_3:DOMDocumentFragmentImpl.cpp.obj
 0001:0004a000       ?getMemoryManager@DOMDocumentImpl@xercesc_3_2@@QBEPAVMemoryManager@2@XZ 1004b000 f   xerces-c_3:DOMDocumentImpl.cpp.obj
 0001:0004a000       ?getImplementation@DOMDocumentImpl@xercesc_3_2@@UBEPAVDOMImplementation@2@XZ 1004b000 f   xerces-c_3:DOMDocumentImpl.cpp.obj
 0001:0004a010       ?getEntityRef@DOMEntityImpl@xercesc_3_2@@UBEPAVDOMEntityReference@2@XZ 1004b010 f   xerces-c_3:DOMEntityImpl.cpp.obj
 0001:0004a010       ?getLength@AbstractStringValidator@xercesc_3_2@@QBEIXZ 1004b010 f   xerces-c_3:ListDatatypeValidator.cpp.obj
 0001:0004a010       ?getDefaultAttributes@DOMElementImpl@xercesc_3_2@@UBEPAVDOMAttrMapImpl@2@XZ 1004b010 f   xerces-c_3:DOMElementImpl.cpp.obj
 0001:0004a010       ?getContentLeafNameTypeVector@DFAContentModel@xercesc_3_2@@UBEPAVContentLeafNameTypeVector@2@XZ 1004b010 f   xerces-c_3:DFAContentModel.cpp.obj
 0001:0004a010       ?getEntities@DOMDocumentTypeImpl@xercesc_3_2@@UBEPAVDOMNamedNodeMap@2@XZ 1004b010 f   xerces-c_3:DOMDocumentTypeImpl.cpp.obj
 0001:0004a010       ?getPrefix@DOMAttrNSImpl@xercesc_3_2@@UBEPB_WXZ 1004b010 f   xerces-c_3:DOMAttrNSImpl.cpp.obj
 0001:0004a010       ?getInputEncoding@DOMDocumentImpl@xercesc_3_2@@UBEPB_WXZ 1004b010 f   xerces-c_3:DOMDocumentImpl.cpp.obj
 0001:0004a010       ?getBaseURI@DOMEntityReferenceImpl@xercesc_3_2@@UBEPB_WXZ 1004b010 f   xerces-c_3:DOMEntityReferenceImpl.cpp.obj
 0001:0004a020       ?getLastChild@DOMDocumentFragmentImpl@xercesc_3_2@@UBEPAVDOMNode@2@XZ 1004b020 f   xerces-c_3:DOMDocumentFragmentImpl.cpp.obj
 0001:0004a020       ?getLastChild@DOMDocumentImpl@xercesc_3_2@@UBEPAVDOMNode@2@XZ 1004b020 f   xerces-c_3:DOMDocumentImpl.cpp.obj
 0001:0004a020       ?getLastChild@DOMAttrImpl@xercesc_3_2@@UBEPAVDOMNode@2@XZ 1004b020 f   xerces-c_3:DOMAttrImpl.cpp.obj
 0001:0004a030       ?getMemoryAllocationBlockSize@DOMDocumentImpl@xercesc_3_2@@UBEIXZ 1004b030 f   xerces-c_3:DOMDocumentImpl.cpp.obj
 0001:0004a040       ?getNodeImpl@DOMEntityImpl@xercesc_3_2@@UAEPAVDOMNodeImpl@2@XZ 1004b040 f   xerces-c_3:DOMEntityImpl.cpp.obj
 0001:0004a040       ?getNodeImpl@DOMDocumentImpl@xercesc_3_2@@UAEPAVDOMNodeImpl@2@XZ 1004b040 f   xerces-c_3:DOMDocumentImpl.cpp.obj
 0001:0004a040       ?getNodeImpl@DOMDocumentFragmentImpl@xercesc_3_2@@UAEPAVDOMNodeImpl@2@XZ 1004b040 f   xerces-c_3:DOMDocumentFragmentImpl.cpp.obj
 0001:0004a040       ?getNodeImpl@DOMEntityImpl@xercesc_3_2@@UBEPBVDOMNodeImpl@2@XZ 1004b040 f   xerces-c_3:DOMEntityImpl.cpp.obj
 0001:0004a040       ?getNodeImpl@DOMAttrImpl@xercesc_3_2@@UAEPAVDOMNodeImpl@2@XZ 1004b040 f   xerces-c_3:DOMAttrImpl.cpp.obj
 0001:0004a040       ?getNodeImpl@DOMProcessingInstructionImpl@xercesc_3_2@@UBEPBVDOMNodeImpl@2@XZ 1004b040 f   xerces-c_3:DOMProcessingInstructionImpl.cpp.obj
 0001:0004a040       ?getNodeImpl@DOMDocumentImpl@xercesc_3_2@@UBEPBVDOMNodeImpl@2@XZ 1004b040 f   xerces-c_3:DOMDocumentImpl.cpp.obj
 0001:0004a040       ?getNodeImpl@DOMTextImpl@xercesc_3_2@@UAEPAVDOMNodeImpl@2@XZ 1004b040 f   xerces-c_3:DOMTextImpl.cpp.obj
 0001:0004a040       ?getNodeImpl@DOMCDATASectionImpl@xercesc_3_2@@UBEPBVDOMNodeImpl@2@XZ 1004b040 f   xerces-c_3:DOMCDATASectionImpl.cpp.obj
 0001:0004a040       ?getNodeImpl@DOMTextImpl@xercesc_3_2@@UBEPBVDOMNodeImpl@2@XZ 1004b040 f   xerces-c_3:DOMTextImpl.cpp.obj
 0001:0004a040       ?getNodeImpl@DOMCDATASectionImpl@xercesc_3_2@@UAEPAVDOMNodeImpl@2@XZ 1004b040 f   xerces-c_3:DOMCDATASectionImpl.cpp.obj
 0001:0004a040       ?getNodeImpl@DOMDocumentFragmentImpl@xercesc_3_2@@UBEPBVDOMNodeImpl@2@XZ 1004b040 f   xerces-c_3:DOMDocumentFragmentImpl.cpp.obj
 0001:0004a040       ?getNodeImpl@DOMAttrImpl@xercesc_3_2@@UBEPBVDOMNodeImpl@2@XZ 1004b040 f   xerces-c_3:DOMAttrImpl.cpp.obj
 0001:0004a040       ?getNodeImpl@DOMProcessingInstructionImpl@xercesc_3_2@@UAEPAVDOMNodeImpl@2@XZ 1004b040 f   xerces-c_3:DOMProcessingInstructionImpl.cpp.obj
 0001:0004a040       ?getNodeImpl@DOMCommentImpl@xercesc_3_2@@UAEPAVDOMNodeImpl@2@XZ 1004b040 f   xerces-c_3:DOMCommentImpl.cpp.obj
 0001:0004a040       ?getNodeImpl@DOMCommentImpl@xercesc_3_2@@UBEPBVDOMNodeImpl@2@XZ 1004b040 f   xerces-c_3:DOMCommentImpl.cpp.obj
 0001:0004a050       ?getNodeIterators@DOMDocumentImpl@xercesc_3_2@@UBEPAV?$RefVectorOf@VDOMNodeIteratorImpl@xercesc_3_2@@@2@XZ 1004b050 f   xerces-c_3:DOMDocumentImpl.cpp.obj
 0001:0004a060       ?getNodeName@DOMDocumentImpl@xercesc_3_2@@UBEPB_WXZ 1004b060 f   xerces-c_3:DOMDocumentImpl.cpp.obj
 0001:0004a070       ?getNodeType@DOMDocumentImpl@xercesc_3_2@@UBE?AW4NodeType@DOMNode@2@XZ 1004b070 f   xerces-c_3:DOMDocumentImpl.cpp.obj
 0001:0004a080       ?getChildNodeImpl@DOMProcessingInstructionImpl@xercesc_3_2@@UBEPBVDOMChildNode@2@XZ 1004b080 f   xerces-c_3:DOMProcessingInstructionImpl.cpp.obj
 0001:0004a080       ?getChildNodeImpl@DOMCommentImpl@xercesc_3_2@@UBEPBVDOMChildNode@2@XZ 1004b080 f   xerces-c_3:DOMCommentImpl.cpp.obj
 0001:0004a080       ?getChildNodeImpl@DOMCommentImpl@xercesc_3_2@@UAEPAVDOMChildNode@2@XZ 1004b080 f   xerces-c_3:DOMCommentImpl.cpp.obj
 0001:0004a080       ?getChildNodeImpl@DOMTextImpl@xercesc_3_2@@UBEPBVDOMChildNode@2@XZ 1004b080 f   xerces-c_3:DOMTextImpl.cpp.obj
 0001:0004a080       ?getChildNodes@DOMParentNode@xercesc_3_2@@QBEPAVDOMNodeList@2@XZ 1004b080 f   xerces-c_3:DOMParentNode.cpp.obj
 0001:0004a080       ?getParentNodeImpl@DOMDocumentImpl@xercesc_3_2@@UAEPAVDOMParentNode@2@XZ 1004b080 f   xerces-c_3:DOMDocumentImpl.cpp.obj
 0001:0004a080       ?getParentNodeImpl@DOMDocumentFragmentImpl@xercesc_3_2@@UAEPAVDOMParentNode@2@XZ 1004b080 f   xerces-c_3:DOMDocumentFragmentImpl.cpp.obj
 0001:0004a080       ?getParentNodeImpl@DOMDocumentImpl@xercesc_3_2@@UBEPBVDOMParentNode@2@XZ 1004b080 f   xerces-c_3:DOMDocumentImpl.cpp.obj
 0001:0004a080       ?getChildNodeImpl@DOMCDATASectionImpl@xercesc_3_2@@UBEPBVDOMChildNode@2@XZ 1004b080 f   xerces-c_3:DOMCDATASectionImpl.cpp.obj
 0001:0004a080       ?getChildNodeImpl@DOMCDATASectionImpl@xercesc_3_2@@UAEPAVDOMChildNode@2@XZ 1004b080 f   xerces-c_3:DOMCDATASectionImpl.cpp.obj
 0001:0004a080       ?getParentNodeImpl@DOMEntityImpl@xercesc_3_2@@UBEPBVDOMParentNode@2@XZ 1004b080 f   xerces-c_3:DOMEntityImpl.cpp.obj
 0001:0004a080       ?getParentNodeImpl@DOMEntityImpl@xercesc_3_2@@UAEPAVDOMParentNode@2@XZ 1004b080 f   xerces-c_3:DOMEntityImpl.cpp.obj
 0001:0004a080       ?getParentNodeImpl@DOMAttrImpl@xercesc_3_2@@UAEPAVDOMParentNode@2@XZ 1004b080 f   xerces-c_3:DOMAttrImpl.cpp.obj
 0001:0004a080       ?getParentNodeImpl@DOMDocumentFragmentImpl@xercesc_3_2@@UBEPBVDOMParentNode@2@XZ 1004b080 f   xerces-c_3:DOMDocumentFragmentImpl.cpp.obj
 0001:0004a080       ?getChildNodeImpl@DOMTextImpl@xercesc_3_2@@UAEPAVDOMChildNode@2@XZ 1004b080 f   xerces-c_3:DOMTextImpl.cpp.obj
 0001:0004a080       ?getChildNodeImpl@DOMProcessingInstructionImpl@xercesc_3_2@@UAEPAVDOMChildNode@2@XZ 1004b080 f   xerces-c_3:DOMProcessingInstructionImpl.cpp.obj
 0001:0004a080       ?getParentNodeImpl@DOMAttrImpl@xercesc_3_2@@UBEPBVDOMParentNode@2@XZ 1004b080 f   xerces-c_3:DOMAttrImpl.cpp.obj
 0001:0004a090       ?getRanges@DOMDocumentImpl@xercesc_3_2@@UBEPAV?$RefVectorOf@VDOMRangeImpl@xercesc_3_2@@@2@XZ 1004b090 f   xerces-c_3:DOMDocumentImpl.cpp.obj
 0001:0004a0a0       ?getStrictErrorChecking@DOMDocumentImpl@xercesc_3_2@@UBE_NXZ 1004b0a0 f   xerces-c_3:DOMDocumentImpl.cpp.obj
 0001:0004a0b0       ?getTextContent@DOMDocumentFragmentImpl@xercesc_3_2@@UBEPB_WXZ 1004b0b0 f   xerces-c_3:DOMDocumentFragmentImpl.cpp.obj
 0001:0004a0b0       ?getTextContent@DOMAttrImpl@xercesc_3_2@@UBEPB_WXZ 1004b0b0 f   xerces-c_3:DOMAttrImpl.cpp.obj
 0001:0004a0b0       ?getTextContent@DOMCommentImpl@xercesc_3_2@@UBEPB_WXZ 1004b0b0 f   xerces-c_3:DOMCommentImpl.cpp.obj
 0001:0004a0b0       ?getTextContent@DOMEntityImpl@xercesc_3_2@@UBEPB_WXZ 1004b0b0 f   xerces-c_3:DOMEntityImpl.cpp.obj
 0001:0004a0b0       ?getTextContent@DOMCDATASectionImpl@xercesc_3_2@@UBEPB_WXZ 1004b0b0 f   xerces-c_3:DOMCDATASectionImpl.cpp.obj
 0001:0004a0b0       ?getTextContent@DOMDocumentImpl@xercesc_3_2@@UBEPB_WXZ 1004b0b0 f   xerces-c_3:DOMDocumentImpl.cpp.obj
 0001:0004a0b0       ?getTextContent@DOMProcessingInstructionImpl@xercesc_3_2@@UBEPB_WXZ 1004b0b0 f   xerces-c_3:DOMProcessingInstructionImpl.cpp.obj
 0001:0004a0b0       ?getTextContent@DOMTextImpl@xercesc_3_2@@UBEPB_WXZ 1004b0b0 f   xerces-c_3:DOMTextImpl.cpp.obj
 0001:0004a0c0       ?getType@EmptyStackException@xercesc_3_2@@UBEPB_WXZ 1004b0c0 f i xerces-c_3:DOMDocumentImpl.cpp.obj
 0001:0004a0d0       ?getType@NoSuchElementException@xercesc_3_2@@UBEPB_WXZ 1004b0d0 f i xerces-c_3:DOMDocumentImpl.cpp.obj
 0001:0004a0e0       ?getType@NullPointerException@xercesc_3_2@@UBEPB_WXZ 1004b0e0 f i xerces-c_3:DOMDocumentImpl.cpp.obj
 0001:0004a0f0       ?getUserData@DOMDocumentImpl@xercesc_3_2@@QBEPAXPBVDOMNodeImpl@2@PB_W@Z 1004b0f0 f   xerces-c_3:DOMDocumentImpl.cpp.obj
 0001:0004a130       ?getUserData@DOMDocumentFragmentImpl@xercesc_3_2@@UBEPAXPB_W@Z 1004b130 f   xerces-c_3:DOMDocumentFragmentImpl.cpp.obj
 0001:0004a130       ?getUserData@DOMTextImpl@xercesc_3_2@@UBEPAXPB_W@Z 1004b130 f   xerces-c_3:DOMTextImpl.cpp.obj
 0001:0004a130       ?getUserData@DOMDocumentImpl@xercesc_3_2@@UBEPAXPB_W@Z 1004b130 f   xerces-c_3:DOMDocumentImpl.cpp.obj
 0001:0004a130       ?getUserData@DOMCommentImpl@xercesc_3_2@@UBEPAXPB_W@Z 1004b130 f   xerces-c_3:DOMCommentImpl.cpp.obj
 0001:0004a130       ?getUserData@DOMCDATASectionImpl@xercesc_3_2@@UBEPAXPB_W@Z 1004b130 f   xerces-c_3:DOMCDATASectionImpl.cpp.obj
 0001:0004a130       ?getUserData@DOMEntityImpl@xercesc_3_2@@UBEPAXPB_W@Z 1004b130 f   xerces-c_3:DOMEntityImpl.cpp.obj
 0001:0004a130       ?getUserData@DOMProcessingInstructionImpl@xercesc_3_2@@UBEPAXPB_W@Z 1004b130 f   xerces-c_3:DOMProcessingInstructionImpl.cpp.obj
 0001:0004a130       ?getUserData@DOMAttrImpl@xercesc_3_2@@UBEPAXPB_W@Z 1004b130 f   xerces-c_3:DOMAttrImpl.cpp.obj
 0001:0004a140       ?getXmlStandalone@DOMDocumentImpl@xercesc_3_2@@UBE_NXZ 1004b140 f   xerces-c_3:DOMDocumentImpl.cpp.obj
 0001:0004a150       ?getPublicId@DOMDocumentTypeImpl@xercesc_3_2@@UBEPB_WXZ 1004b150 f   xerces-c_3:DOMDocumentTypeImpl.cpp.obj
 0001:0004a150       ?getXmlVersion@DOMEntityImpl@xercesc_3_2@@UBEPB_WXZ 1004b150 f   xerces-c_3:DOMEntityImpl.cpp.obj
 0001:0004a150       ?getLocalName@DOMElementNSImpl@xercesc_3_2@@UBEPB_WXZ 1004b150 f   xerces-c_3:DOMElementNSImpl.cpp.obj
 0001:0004a150       ?getMaxExclusive@AbstractNumericFacetValidator@xercesc_3_2@@QBEPAVXMLNumber@2@XZ 1004b150 f   xerces-c_3:AbstractNumericFacetValidator.cpp.obj
 0001:0004a150       ?getXmlVersion@DOMDocumentImpl@xercesc_3_2@@UBEPB_WXZ 1004b150 f   xerces-c_3:DOMDocumentImpl.cpp.obj
 0001:0004a150       ?getAttDefList@ComplexTypeInfo@xercesc_3_2@@QBEAAVXMLAttDefList@2@XZ 1004b150 f   xerces-c_3:ComplexTypeInfo.cpp.obj
 0001:0004a160       ?hasAttributes@DOMAttrImpl@xercesc_3_2@@UBE_NXZ 1004b160 f   xerces-c_3:DOMAttrImpl.cpp.obj
 0001:0004a160       ?hasAttributes@DOMCommentImpl@xercesc_3_2@@UBE_NXZ 1004b160 f   xerces-c_3:DOMCommentImpl.cpp.obj
 0001:0004a160       ?hasChildNodes@DOMTextImpl@xercesc_3_2@@UBE_NXZ 1004b160 f   xerces-c_3:DOMTextImpl.cpp.obj
 0001:0004a160       ?hasChildNodes@DOMCommentImpl@xercesc_3_2@@UBE_NXZ 1004b160 f   xerces-c_3:DOMCommentImpl.cpp.obj
 0001:0004a160       ?hasChildNodes@DOMCDATASectionImpl@xercesc_3_2@@UBE_NXZ 1004b160 f   xerces-c_3:DOMCDATASectionImpl.cpp.obj
 0001:0004a160       ?hasChildNodes@DOMProcessingInstructionImpl@xercesc_3_2@@UBE_NXZ 1004b160 f   xerces-c_3:DOMProcessingInstructionImpl.cpp.obj
 0001:0004a160       ?hasAttributes@DOMDocumentImpl@xercesc_3_2@@UBE_NXZ 1004b160 f   xerces-c_3:DOMDocumentImpl.cpp.obj
 0001:0004a160       ?hasAttributes@DOMProcessingInstructionImpl@xercesc_3_2@@UBE_NXZ 1004b160 f   xerces-c_3:DOMProcessingInstructionImpl.cpp.obj
 0001:0004a160       ?hasAttributes@DOMEntityImpl@xercesc_3_2@@UBE_NXZ 1004b160 f   xerces-c_3:DOMEntityImpl.cpp.obj
 0001:0004a160       ?hasAttributes@DOMCDATASectionImpl@xercesc_3_2@@UBE_NXZ 1004b160 f   xerces-c_3:DOMCDATASectionImpl.cpp.obj
 0001:0004a160       ?hasAttributes@DOMDocumentFragmentImpl@xercesc_3_2@@UBE_NXZ 1004b160 f   xerces-c_3:DOMDocumentFragmentImpl.cpp.obj
 0001:0004a160       ?hasAttributes@DOMTextImpl@xercesc_3_2@@UBE_NXZ 1004b160 f   xerces-c_3:DOMTextImpl.cpp.obj
 0001:0004a170       ?hasChildNodes@DOMAttrImpl@xercesc_3_2@@UBE_NXZ 1004b170 f   xerces-c_3:DOMAttrImpl.cpp.obj
 0001:0004a170       ?hasChildNodes@DOMDocumentImpl@xercesc_3_2@@UBE_NXZ 1004b170 f   xerces-c_3:DOMDocumentImpl.cpp.obj
 0001:0004a170       ?hasChildNodes@DOMDocumentFragmentImpl@xercesc_3_2@@UBE_NXZ 1004b170 f   xerces-c_3:DOMDocumentFragmentImpl.cpp.obj
 0001:0004a180       ?hasMoreElements@?$RefHash2KeysTableOfEnumerator@VSchemaInfo@xercesc_3_2@@UStringHasher@2@@xercesc_3_2@@UBE_NXZ 1004b180 f i xerces-c_3:SGXMLScanner.cpp.obj
 0001:0004a180       ?hasMoreElements@?$RefHashTableOfEnumerator@VXercesGroupInfo@xercesc_3_2@@UStringHasher@2@@xercesc_3_2@@UBE_NXZ 1004b180 f i xerces-c_3:XSModel.cpp.obj
 0001:0004a180       ?hasMoreElements@?$RefHash2KeysTableOfEnumerator@V?$ValueVectorOf@PAVSchemaElementDecl@xercesc_3_2@@@xercesc_3_2@@UStringHasher@2@@xercesc_3_2@@UBE_NXZ 1004b180 f i xerces-c_3:XTemplateSerializer.cpp.obj
 0001:0004a180       ?hasMoreElements@?$RefHash2KeysTableOfEnumerator@V?$KeyRefPair@XVDOMUserDataHandler@xercesc_3_2@@@xercesc_3_2@@UPtrHasher@2@@xercesc_3_2@@UBE_NXZ 1004b180 f i xerces-c_3:DOMDocumentImpl.cpp.obj
 0001:0004a180       ?hasMoreElements@?$RefHashTableOfEnumerator@VGrammar@xercesc_3_2@@UStringHasher@2@@xercesc_3_2@@UBE_NXZ 1004b180 f i xerces-c_3:GrammarResolver.cpp.obj
 0001:0004a180       ?hasMoreElements@?$RefHashTableOfEnumerator@VXMLRefInfo@xercesc_3_2@@UStringHasher@2@@xercesc_3_2@@UBE_NXZ 1004b180 f i xerces-c_3:XMLScanner.cpp.obj
 0001:0004a180       ?hasMoreElements@?$RefHashTableOfEnumerator@VDatatypeValidator@xercesc_3_2@@UStringHasher@2@@xercesc_3_2@@UBE_NXZ 1004b180 f i xerces-c_3:XSModel.cpp.obj
 0001:0004a180       ?hasMoreElements@?$RefHashTableOfEnumerator@_WUStringHasher@xercesc_3_2@@@xercesc_3_2@@UBE_NXZ 1004b180 f i xerces-c_3:DOMNormalizer.cpp.obj
 0001:0004a180       ?hasMoreElements@?$RefHashTableOfEnumerator@VXercesAttGroupInfo@xercesc_3_2@@UStringHasher@2@@xercesc_3_2@@UBE_NXZ 1004b180 f i xerces-c_3:XSModel.cpp.obj
 0001:0004a180       ?hasMoreElements@?$RefHashTableOfEnumerator@VValueStore@xercesc_3_2@@UPtrHasher@2@@xercesc_3_2@@UBE_NXZ 1004b180 f i xerces-c_3:ValueStoreCache.cpp.obj
 0001:0004a180       ?hasMoreElements@?$RefHashTableOfEnumerator@VKVStringPair@xercesc_3_2@@UStringHasher@2@@xercesc_3_2@@UBE_NXZ 1004b180 f i xerces-c_3:DOMXPathNSResolverImpl.cpp.obj
 0001:0004a180       ?hasMoreElements@?$RefHashTableOfEnumerator@VFieldValueMap@xercesc_3_2@@UICValueHasher@2@@xercesc_3_2@@UBE_NXZ 1004b180 f i xerces-c_3:ValueStore.cpp.obj
 0001:0004a180       ?hasMoreElements@?$RefHashTableOfEnumerator@VXMLAttDef@xercesc_3_2@@UStringHasher@2@@xercesc_3_2@@UBE_NXZ 1004b180 f i xerces-c_3:XSModel.cpp.obj
 0001:0004a180       ?hasMoreElements@?$RefHash2KeysTableOfEnumerator@VSchemaAttDef@xercesc_3_2@@UStringHasher@2@@xercesc_3_2@@UBE_NXZ 1004b180 f i xerces-c_3:XTemplateSerializer.cpp.obj
 0001:0004a180       ?hasMoreElements@?$RefHashTableOfEnumerator@VComplexTypeInfo@xercesc_3_2@@UStringHasher@2@@xercesc_3_2@@UBE_NXZ 1004b180 f i xerces-c_3:XSModel.cpp.obj
 0001:0004a180       ?hasMoreElements@?$RefHashTableOfEnumerator@VXSAnnotation@xercesc_3_2@@UPtrHasher@2@@xercesc_3_2@@UBE_NXZ 1004b180 f i xerces-c_3:XTemplateSerializer.cpp.obj
 0001:0004a180       ?hasMoreElements@?$RefHashTableOfEnumerator@VDTDAttDef@xercesc_3_2@@UStringHasher@2@@xercesc_3_2@@UBE_NXZ 1004b180 f i xerces-c_3:XTemplateSerializer.cpp.obj
 0001:0004a1a0       ?hasMoreElements@?$ValueVectorEnumerator@H@xercesc_3_2@@UBE_NXZ 1004b1a0 f i xerces-c_3:DOMDocumentImpl.cpp.obj
 0001:0004a1b0       ?importNode@DOMDocumentImpl@xercesc_3_2@@MAEPAVDOMNode@2@PBV32@_N1@Z 1004b1b0 f   xerces-c_3:DOMDocumentImpl.cpp.obj
 0001:0004a9e0       ?importNode@DOMDocumentImpl@xercesc_3_2@@UAEPAVDOMNode@2@PBV32@_N@Z 1004b9e0 f   xerces-c_3:DOMDocumentImpl.cpp.obj
 0001:0004aa00       ?insertBefore@DOMDocumentImpl@xercesc_3_2@@UAEPAVDOMNode@2@PAV32@0@Z 1004ba00 f   xerces-c_3:DOMDocumentImpl.cpp.obj
 0001:0004aae0       ?isDefaultNamespace@DOMCDATASectionImpl@xercesc_3_2@@UBE_NPB_W@Z 1004bae0 f   xerces-c_3:DOMCDATASectionImpl.cpp.obj
 0001:0004aae0       ?isDefaultNamespace@DOMEntityImpl@xercesc_3_2@@UBE_NPB_W@Z 1004bae0 f   xerces-c_3:DOMEntityImpl.cpp.obj
 0001:0004aae0       ?isDefaultNamespace@DOMDocumentImpl@xercesc_3_2@@UBE_NPB_W@Z 1004bae0 f   xerces-c_3:DOMDocumentImpl.cpp.obj
 0001:0004aae0       ?isDefaultNamespace@DOMTextImpl@xercesc_3_2@@UBE_NPB_W@Z 1004bae0 f   xerces-c_3:DOMTextImpl.cpp.obj
 0001:0004aae0       ?isDefaultNamespace@DOMCommentImpl@xercesc_3_2@@UBE_NPB_W@Z 1004bae0 f   xerces-c_3:DOMCommentImpl.cpp.obj
 0001:0004aae0       ?isDefaultNamespace@DOMAttrImpl@xercesc_3_2@@UBE_NPB_W@Z 1004bae0 f   xerces-c_3:DOMAttrImpl.cpp.obj
 0001:0004aae0       ?isDefaultNamespace@DOMProcessingInstructionImpl@xercesc_3_2@@UBE_NPB_W@Z 1004bae0 f   xerces-c_3:DOMProcessingInstructionImpl.cpp.obj
 0001:0004aae0       ?isDefaultNamespace@DOMDocumentFragmentImpl@xercesc_3_2@@UBE_NPB_W@Z 1004bae0 f   xerces-c_3:DOMDocumentFragmentImpl.cpp.obj
 0001:0004aaf0       ?isEqualNode@DOMDocumentImpl@xercesc_3_2@@UBE_NPBVDOMNode@2@@Z 1004baf0 f   xerces-c_3:DOMDocumentImpl.cpp.obj
 0001:0004aaf0       ?isEqualNode@DOMAttrImpl@xercesc_3_2@@UBE_NPBVDOMNode@2@@Z 1004baf0 f   xerces-c_3:DOMAttrImpl.cpp.obj
 0001:0004aaf0       ?isEqualNode@DOMDocumentFragmentImpl@xercesc_3_2@@UBE_NPBVDOMNode@2@@Z 1004baf0 f   xerces-c_3:DOMDocumentFragmentImpl.cpp.obj
 0001:0004ab00       ?isKidOK@DOMDocumentImpl@xercesc_3_2@@SA_NPBVDOMNode@2@0@Z 1004bb00 f   xerces-c_3:DOMDocumentImpl.cpp.obj
 0001:0004aca0       ?isSameNode@DOMDocumentFragmentImpl@xercesc_3_2@@UBE_NPBVDOMNode@2@@Z 1004bca0 f   xerces-c_3:DOMDocumentFragmentImpl.cpp.obj
 0001:0004aca0       ?isSameNode@DOMCDATASectionImpl@xercesc_3_2@@UBE_NPBVDOMNode@2@@Z 1004bca0 f   xerces-c_3:DOMCDATASectionImpl.cpp.obj
 0001:0004aca0       ?isSameNode@DOMAttrImpl@xercesc_3_2@@UBE_NPBVDOMNode@2@@Z 1004bca0 f   xerces-c_3:DOMAttrImpl.cpp.obj
 0001:0004aca0       ?isSameNode@DOMEntityImpl@xercesc_3_2@@UBE_NPBVDOMNode@2@@Z 1004bca0 f   xerces-c_3:DOMEntityImpl.cpp.obj
 0001:0004aca0       ?isSameNode@DOMTextImpl@xercesc_3_2@@UBE_NPBVDOMNode@2@@Z 1004bca0 f   xerces-c_3:DOMTextImpl.cpp.obj
 0001:0004aca0       ?isSameNode@DOMProcessingInstructionImpl@xercesc_3_2@@UBE_NPBVDOMNode@2@@Z 1004bca0 f   xerces-c_3:DOMProcessingInstructionImpl.cpp.obj
 0001:0004aca0       ?isSameNode@DOMCommentImpl@xercesc_3_2@@UBE_NPBVDOMNode@2@@Z 1004bca0 f   xerces-c_3:DOMCommentImpl.cpp.obj
 0001:0004aca0       ?isSameNode@DOMDocumentImpl@xercesc_3_2@@UBE_NPBVDOMNode@2@@Z 1004bca0 f   xerces-c_3:DOMDocumentImpl.cpp.obj
 0001:0004acb0       ?isSupported@DOMDocumentImpl@xercesc_3_2@@UBE_NPB_W0@Z 1004bcb0 f   xerces-c_3:DOMDocumentImpl.cpp.obj
 0001:0004adb0       ?isXMLName@DOMDocumentImpl@xercesc_3_2@@QAE_NPB_W@Z 1004bdb0 f   xerces-c_3:DOMDocumentImpl.cpp.obj
 0001:0004ade0       ?lookupNamespaceURI@DOMAttrImpl@xercesc_3_2@@UBEPB_WPB_W@Z 1004bde0 f   xerces-c_3:DOMAttrImpl.cpp.obj
 0001:0004ade0       ?lookupNamespaceURI@DOMDocumentFragmentImpl@xercesc_3_2@@UBEPB_WPB_W@Z 1004bde0 f   xerces-c_3:DOMDocumentFragmentImpl.cpp.obj
 0001:0004ade0       ?lookupNamespaceURI@DOMTextImpl@xercesc_3_2@@UBEPB_WPB_W@Z 1004bde0 f   xerces-c_3:DOMTextImpl.cpp.obj
 0001:0004ade0       ?lookupNamespaceURI@DOMCDATASectionImpl@xercesc_3_2@@UBEPB_WPB_W@Z 1004bde0 f   xerces-c_3:DOMCDATASectionImpl.cpp.obj
 0001:0004ade0       ?lookupNamespaceURI@DOMDocumentImpl@xercesc_3_2@@UBEPB_WPB_W@Z 1004bde0 f   xerces-c_3:DOMDocumentImpl.cpp.obj
 0001:0004ade0       ?lookupNamespaceURI@DOMCommentImpl@xercesc_3_2@@UBEPB_WPB_W@Z 1004bde0 f   xerces-c_3:DOMCommentImpl.cpp.obj
 0001:0004ade0       ?lookupNamespaceURI@DOMEntityImpl@xercesc_3_2@@UBEPB_WPB_W@Z 1004bde0 f   xerces-c_3:DOMEntityImpl.cpp.obj
 0001:0004ade0       ?lookupNamespaceURI@DOMProcessingInstructionImpl@xercesc_3_2@@UBEPB_WPB_W@Z 1004bde0 f   xerces-c_3:DOMProcessingInstructionImpl.cpp.obj
 0001:0004adf0       ?lookupPrefix@DOMDocumentFragmentImpl@xercesc_3_2@@UBEPB_WPB_W@Z 1004bdf0 f   xerces-c_3:DOMDocumentFragmentImpl.cpp.obj
 0001:0004adf0       ?lookupPrefix@DOMCommentImpl@xercesc_3_2@@UBEPB_WPB_W@Z 1004bdf0 f   xerces-c_3:DOMCommentImpl.cpp.obj
 0001:0004adf0       ?lookupPrefix@DOMTextImpl@xercesc_3_2@@UBEPB_WPB_W@Z 1004bdf0 f   xerces-c_3:DOMTextImpl.cpp.obj
 0001:0004adf0       ?lookupPrefix@DOMCDATASectionImpl@xercesc_3_2@@UBEPB_WPB_W@Z 1004bdf0 f   xerces-c_3:DOMCDATASectionImpl.cpp.obj
 0001:0004adf0       ?lookupPrefix@DOMProcessingInstructionImpl@xercesc_3_2@@UBEPB_WPB_W@Z 1004bdf0 f   xerces-c_3:DOMProcessingInstructionImpl.cpp.obj
 0001:0004adf0       ?lookupPrefix@DOMEntityImpl@xercesc_3_2@@UBEPB_WPB_W@Z 1004bdf0 f   xerces-c_3:DOMEntityImpl.cpp.obj
 0001:0004adf0       ?lookupPrefix@DOMAttrImpl@xercesc_3_2@@UBEPB_WPB_W@Z 1004bdf0 f   xerces-c_3:DOMAttrImpl.cpp.obj
 0001:0004adf0       ?lookupPrefix@DOMDocumentImpl@xercesc_3_2@@UBEPB_WPB_W@Z 1004bdf0 f   xerces-c_3:DOMDocumentImpl.cpp.obj
 0001:0004ae00       ?nextElement@?$RefHash2KeysTableOfEnumerator@V?$KeyRefPair@XVDOMUserDataHandler@xercesc_3_2@@@xercesc_3_2@@UPtrHasher@2@@xercesc_3_2@@UAEAAV?$KeyRefPair@XVDOMUserDataHandler@xercesc_3_2@@@2@XZ 1004be00 f i xerces-c_3:DOMDocumentImpl.cpp.obj
 0001:0004ae50       ?nextElement@?$ValueVectorEnumerator@H@xercesc_3_2@@UAEAAHXZ 1004be50 f i xerces-c_3:DOMDocumentImpl.cpp.obj
 0001:0004aea0       ?normalize@DOMAttrImpl@xercesc_3_2@@UAEXXZ 1004bea0 f   xerces-c_3:DOMAttrImpl.cpp.obj
 0001:0004aea0       ?normalize@DOMDocumentImpl@xercesc_3_2@@UAEXXZ 1004bea0 f   xerces-c_3:DOMDocumentImpl.cpp.obj
 0001:0004aea0       ?normalize@DOMDocumentFragmentImpl@xercesc_3_2@@UAEXXZ 1004bea0 f   xerces-c_3:DOMDocumentFragmentImpl.cpp.obj
 0001:0004aeb0       ?normalizeDocument@DOMDocumentImpl@xercesc_3_2@@UAEXXZ 1004beb0 f   xerces-c_3:DOMDocumentImpl.cpp.obj
 0001:0004af40       ?orphanElementAt@?$BaseRefVectorOf@VDOMBuffer@xercesc_3_2@@@xercesc_3_2@@QAEPAVDOMBuffer@2@I@Z 1004bf40 f i xerces-c_3:DOMDocumentImpl.cpp.obj
 0001:0004afe0       ?popBuffer@DOMDocumentImpl@xercesc_3_2@@QAEPAVDOMBuffer@2@I@Z 1004bfe0 f   xerces-c_3:DOMDocumentImpl.cpp.obj
 0001:0004b070       ?put@?$DOMDeepNodeListPool@VDOMDeepNodeListImpl@xercesc_3_2@@UPtrHasher@2@@xercesc_3_2@@QAEIPAXPA_W1QAVDOMDeepNodeListImpl@2@@Z 1004c070 f i xerces-c_3:DOMDocumentImpl.cpp.obj
 0001:0004b300       ?put@?$RefHash2KeysTableOf@V?$KeyRefPair@XVDOMUserDataHandler@xercesc_3_2@@@xercesc_3_2@@UPtrHasher@2@@xercesc_3_2@@QAEXPAXHQAV?$KeyRefPair@XVDOMUserDataHandler@xercesc_3_2@@@2@@Z 1004c300 f i xerces-c_3:DOMDocumentImpl.cpp.obj
 0001:0004b490       ?release@DOMDocumentImpl@xercesc_3_2@@UAEXPAVDOMNode@2@W4NodeObjectType@DOMMemoryManager@2@@Z 1004c490 f   xerces-c_3:DOMDocumentImpl.cpp.obj
 0001:0004b6e0       ?release@DOMDocumentImpl@xercesc_3_2@@UAEXPAX@Z 1004c6e0 f   xerces-c_3:DOMDocumentImpl.cpp.obj
 0001:0004b720       ?release@DOMDocumentImpl@xercesc_3_2@@UAEXXZ 1004c720 f   xerces-c_3:DOMDocumentImpl.cpp.obj
 0001:0004b7a0       ?releaseBuffer@DOMDocumentImpl@xercesc_3_2@@QAEXPAVDOMBuffer@2@@Z 1004c7a0 f   xerces-c_3:DOMDocumentImpl.cpp.obj
 0001:0004b8f0       ?releaseDocNotifyUserData@DOMDocumentImpl@xercesc_3_2@@QAEXPAVDOMNode@2@@Z 1004c8f0 f   xerces-c_3:DOMDocumentImpl.cpp.obj
 0001:0004b9c0       ?removeAllElements@?$BaseRefVectorOf@VDOMBuffer@xercesc_3_2@@@xercesc_3_2@@UAEXXZ 1004c9c0 f i xerces-c_3:DOMDocumentImpl.cpp.obj
 0001:0004ba10       ?removeChild@DOMDocumentImpl@xercesc_3_2@@UAEPAVDOMNode@2@PAV32@@Z 1004ca10 f   xerces-c_3:DOMDocumentImpl.cpp.obj
 0001:0004ba60       ?removeElementAt@?$BaseRefVectorOf@VDOMBuffer@xercesc_3_2@@@xercesc_3_2@@UAEXI@Z 1004ca60 f i xerces-c_3:DOMDocumentImpl.cpp.obj
 0001:0004bb10       ?removeLastElement@?$BaseRefVectorOf@VDOMBuffer@xercesc_3_2@@@xercesc_3_2@@UAEXXZ 1004cb10 f i xerces-c_3:DOMDocumentImpl.cpp.obj
 0001:0004bb40       ?removeNodeIterator@DOMDocumentImpl@xercesc_3_2@@UAEXPAVDOMNodeIteratorImpl@2@@Z 1004cb40 f   xerces-c_3:DOMDocumentImpl.cpp.obj
 0001:0004bb80       ?removeRange@DOMDocumentImpl@xercesc_3_2@@UAEXPAVDOMRangeImpl@2@@Z 1004cb80 f   xerces-c_3:DOMDocumentImpl.cpp.obj
 0001:0004bbc0       ?renameNode@DOMDocumentImpl@xercesc_3_2@@UAEPAVDOMNode@2@PAV32@PB_W1@Z 1004cbc0 f   xerces-c_3:DOMDocumentImpl.cpp.obj
 0001:0004bc70       ?replaceChild@DOMDocumentImpl@xercesc_3_2@@UAEPAVDOMNode@2@PAV32@0@Z 1004cc70 f   xerces-c_3:DOMDocumentImpl.cpp.obj
 0001:0004bd70       ?setDocumentType@DOMDocumentImpl@xercesc_3_2@@QAEXPAVDOMDocumentType@2@@Z 1004cd70 f   xerces-c_3:DOMDocumentImpl.cpp.obj
 0001:0004bdf0       ?setDocumentURI@DOMDocumentImpl@xercesc_3_2@@UAEXPB_W@Z 1004cdf0 f   xerces-c_3:DOMDocumentImpl.cpp.obj
 0001:0004be50       ?setElementAt@?$BaseRefVectorOf@VDOMBuffer@xercesc_3_2@@@xercesc_3_2@@UAEXQAVDOMBuffer@2@I@Z 1004ce50 f i xerces-c_3:DOMDocumentImpl.cpp.obj
 0001:0004bec0       ?setInputEncoding@DOMDocumentImpl@xercesc_3_2@@QAEXPB_W@Z 1004cec0 f   xerces-c_3:DOMDocumentImpl.cpp.obj
 0001:0004bee0       ?setMemoryAllocationBlockSize@DOMDocumentImpl@xercesc_3_2@@UAEXI@Z 1004cee0 f   xerces-c_3:DOMDocumentImpl.cpp.obj
 0001:0004bf00       ?setNodeValue@DOMDocumentImpl@xercesc_3_2@@UAEXPB_W@Z 1004cf00 f   xerces-c_3:DOMDocumentImpl.cpp.obj
 0001:0004bf00       ?setNodeValue@DOMDocumentFragmentImpl@xercesc_3_2@@UAEXPB_W@Z 1004cf00 f   xerces-c_3:DOMDocumentFragmentImpl.cpp.obj
 0001:0004bf00       ?setNodeValue@DOMEntityImpl@xercesc_3_2@@UAEXPB_W@Z 1004cf00 f   xerces-c_3:DOMEntityImpl.cpp.obj
 0001:0004bf10       ?setPrefix@DOMEntityImpl@xercesc_3_2@@UAEXPB_W@Z 1004cf10 f   xerces-c_3:DOMEntityImpl.cpp.obj
 0001:0004bf10       ?setPrefix@DOMCommentImpl@xercesc_3_2@@UAEXPB_W@Z 1004cf10 f   xerces-c_3:DOMCommentImpl.cpp.obj
 0001:0004bf10       ?setPrefix@DOMAttrImpl@xercesc_3_2@@UAEXPB_W@Z 1004cf10 f   xerces-c_3:DOMAttrImpl.cpp.obj
 0001:0004bf10       ?setPrefix@DOMTextImpl@xercesc_3_2@@UAEXPB_W@Z 1004cf10 f   xerces-c_3:DOMTextImpl.cpp.obj
 0001:0004bf10       ?setPrefix@DOMDocumentImpl@xercesc_3_2@@UAEXPB_W@Z 1004cf10 f   xerces-c_3:DOMDocumentImpl.cpp.obj
 0001:0004bf10       ?setPrefix@DOMProcessingInstructionImpl@xercesc_3_2@@UAEXPB_W@Z 1004cf10 f   xerces-c_3:DOMProcessingInstructionImpl.cpp.obj
 0001:0004bf10       ?setPrefix@DOMDocumentFragmentImpl@xercesc_3_2@@UAEXPB_W@Z 1004cf10 f   xerces-c_3:DOMDocumentFragmentImpl.cpp.obj
 0001:0004bf10       ?setPrefix@DOMCDATASectionImpl@xercesc_3_2@@UAEXPB_W@Z 1004cf10 f   xerces-c_3:DOMCDATASectionImpl.cpp.obj
 0001:0004bf20       ?setStrictErrorChecking@DOMDocumentImpl@xercesc_3_2@@UAEX_N@Z 1004cf20 f   xerces-c_3:DOMDocumentImpl.cpp.obj
 0001:0004bf30       ?setTextContent@DOMCommentImpl@xercesc_3_2@@UAEXPB_W@Z 1004cf30 f   xerces-c_3:DOMCommentImpl.cpp.obj
 0001:0004bf30       ?setTextContent@DOMDocumentFragmentImpl@xercesc_3_2@@UAEXPB_W@Z 1004cf30 f   xerces-c_3:DOMDocumentFragmentImpl.cpp.obj
 0001:0004bf30       ?setTextContent@DOMEntityImpl@xercesc_3_2@@UAEXPB_W@Z 1004cf30 f   xerces-c_3:DOMEntityImpl.cpp.obj
 0001:0004bf30       ?setTextContent@DOMProcessingInstructionImpl@xercesc_3_2@@UAEXPB_W@Z 1004cf30 f   xerces-c_3:DOMProcessingInstructionImpl.cpp.obj
 0001:0004bf30       ?setTextContent@DOMCDATASectionImpl@xercesc_3_2@@UAEXPB_W@Z 1004cf30 f   xerces-c_3:DOMCDATASectionImpl.cpp.obj
 0001:0004bf30       ?setTextContent@DOMDocumentImpl@xercesc_3_2@@UAEXPB_W@Z 1004cf30 f   xerces-c_3:DOMDocumentImpl.cpp.obj
 0001:0004bf30       ?setTextContent@DOMTextImpl@xercesc_3_2@@UAEXPB_W@Z 1004cf30 f   xerces-c_3:DOMTextImpl.cpp.obj
 0001:0004bf30       ?setTextContent@DOMAttrImpl@xercesc_3_2@@UAEXPB_W@Z 1004cf30 f   xerces-c_3:DOMAttrImpl.cpp.obj
 0001:0004bf40       ?setUserData@DOMDocumentImpl@xercesc_3_2@@QAEPAXPAVDOMNodeImpl@2@PB_WPAXPAVDOMUserDataHandler@2@@Z 1004cf40 f   xerces-c_3:DOMDocumentImpl.cpp.obj
 0001:0004c1f0       ?setUserData@DOMCDATASectionImpl@xercesc_3_2@@UAEPAXPB_WPAXPAVDOMUserDataHandler@2@@Z 1004d1f0 f   xerces-c_3:DOMCDATASectionImpl.cpp.obj
 0001:0004c1f0       ?setUserData@DOMTextImpl@xercesc_3_2@@UAEPAXPB_WPAXPAVDOMUserDataHandler@2@@Z 1004d1f0 f   xerces-c_3:DOMTextImpl.cpp.obj
 0001:0004c1f0       ?setUserData@DOMProcessingInstructionImpl@xercesc_3_2@@UAEPAXPB_WPAXPAVDOMUserDataHandler@2@@Z 1004d1f0 f   xerces-c_3:DOMProcessingInstructionImpl.cpp.obj
 0001:0004c1f0       ?setUserData@DOMAttrImpl@xercesc_3_2@@UAEPAXPB_WPAXPAVDOMUserDataHandler@2@@Z 1004d1f0 f   xerces-c_3:DOMAttrImpl.cpp.obj
 0001:0004c1f0       ?setUserData@DOMCommentImpl@xercesc_3_2@@UAEPAXPB_WPAXPAVDOMUserDataHandler@2@@Z 1004d1f0 f   xerces-c_3:DOMCommentImpl.cpp.obj
 0001:0004c1f0       ?setUserData@DOMDocumentImpl@xercesc_3_2@@UAEPAXPB_WPAXPAVDOMUserDataHandler@2@@Z 1004d1f0 f   xerces-c_3:DOMDocumentImpl.cpp.obj
 0001:0004c1f0       ?setUserData@DOMEntityImpl@xercesc_3_2@@UAEPAXPB_WPAXPAVDOMUserDataHandler@2@@Z 1004d1f0 f   xerces-c_3:DOMEntityImpl.cpp.obj
 0001:0004c1f0       ?setUserData@DOMDocumentFragmentImpl@xercesc_3_2@@UAEPAXPB_WPAXPAVDOMUserDataHandler@2@@Z 1004d1f0 f   xerces-c_3:DOMDocumentFragmentImpl.cpp.obj
 0001:0004c200       ?setXmlEncoding@DOMDocumentImpl@xercesc_3_2@@QAEXPB_W@Z 1004d200 f   xerces-c_3:DOMDocumentImpl.cpp.obj
 0001:0004c220       ?setXmlStandalone@DOMDocumentImpl@xercesc_3_2@@UAEX_N@Z 1004d220 f   xerces-c_3:DOMDocumentImpl.cpp.obj
 0001:0004c230       ?setXmlVersion@DOMDocumentImpl@xercesc_3_2@@UAEXPB_W@Z 1004d230 f   xerces-c_3:DOMDocumentImpl.cpp.obj
 0001:0004c310       ?transferUserData@DOMDocumentImpl@xercesc_3_2@@QAEXPAVDOMNodeImpl@2@0@Z 1004d310 f   xerces-c_3:DOMDocumentImpl.cpp.obj
 0001:0004c450       ??0OutOfMemoryException@xercesc_3_2@@QAE@ABV01@@Z 1004d450 f i xerces-c_3:MemoryManagerImpl.cpp.obj
 0001:0004c460       ?allocate@MemoryManagerImpl@xercesc_3_2@@UAEPAXI@Z 1004d460 f   xerces-c_3:MemoryManagerImpl.cpp.obj
 0001:0004c4e0       ?deallocate@MemoryManagerImpl@xercesc_3_2@@UAEXPAX@Z 1004d4e0 f   xerces-c_3:MemoryManagerImpl.cpp.obj
 0001:0004c500       ??0WindowsFileMgr@xercesc_3_2@@QAE@XZ 1004d500 f   xerces-c_3:WindowsFileMgr.cpp.obj
 0001:0004c560       ??0XMLPlatformUtilsException@xercesc_3_2@@QAE@QBD_KW4Codes@XMLExcepts@1@QB_W333PAVMemoryManager@1@@Z 1004d560 f i xerces-c_3:WindowsFileMgr.cpp.obj
 0001:0004c5e0       ??_EWindowsFileMgr@xercesc_3_2@@UAEPAXI@Z 1004d5e0 f i xerces-c_3:WindowsFileMgr.cpp.obj
 0001:0004c5e0       ??_GWindowsFileMgr@xercesc_3_2@@UAEPAXI@Z 1004d5e0 f i xerces-c_3:WindowsFileMgr.cpp.obj
 0001:0004c620       ??_EXMLFileMgr@xercesc_3_2@@UAEPAXI@Z 1004d620 f i xerces-c_3:WindowsFileMgr.cpp.obj
 0001:0004c620       ??_GXMLFileMgr@xercesc_3_2@@UAEPAXI@Z 1004d620 f i xerces-c_3:WindowsFileMgr.cpp.obj
 0001:0004c660       ?curPos@WindowsFileMgr@xercesc_3_2@@UAE_KPAXQAVMemoryManager@2@@Z 1004d660 f   xerces-c_3:WindowsFileMgr.cpp.obj
 0001:0004c700       ?fileClose@WindowsFileMgr@xercesc_3_2@@UAEXPAXQAVMemoryManager@2@@Z 1004d700 f   xerces-c_3:WindowsFileMgr.cpp.obj
 0001:0004c780       ?fileOpen@WindowsFileMgr@xercesc_3_2@@UAEPAXPBD_NQAVMemoryManager@2@@Z 1004d780 f   xerces-c_3:WindowsFileMgr.cpp.obj
 0001:0004c800       ?fileOpen@WindowsFileMgr@xercesc_3_2@@UAEPAXPB_W_NQAVMemoryManager@2@@Z 1004d800 f   xerces-c_3:WindowsFileMgr.cpp.obj
 0001:0004c9e0       ?fileRead@WindowsFileMgr@xercesc_3_2@@UAEIPAXIPAEQAVMemoryManager@2@@Z 1004d9e0 f   xerces-c_3:WindowsFileMgr.cpp.obj
 0001:0004ca80       ?fileReset@WindowsFileMgr@xercesc_3_2@@UAEXPAXQAVMemoryManager@2@@Z 1004da80 f   xerces-c_3:WindowsFileMgr.cpp.obj
 0001:0004cb00       ?fileSize@WindowsFileMgr@xercesc_3_2@@UAE_KPAXQAVMemoryManager@2@@Z 1004db00 f   xerces-c_3:WindowsFileMgr.cpp.obj
 0001:0004cba0       ?fileWrite@WindowsFileMgr@xercesc_3_2@@UAEXPAXIPBEQAVMemoryManager@2@@Z 1004dba0 f   xerces-c_3:WindowsFileMgr.cpp.obj
 0001:0004cc60       ?getCurrentDirectory@WindowsFileMgr@xercesc_3_2@@UAEPA_WQAVMemoryManager@2@@Z 1004dc60 f   xerces-c_3:WindowsFileMgr.cpp.obj
 0001:0004cd50       ?getFullPath@WindowsFileMgr@xercesc_3_2@@UAEPA_WQB_WQAVMemoryManager@2@@Z 1004dd50 f   xerces-c_3:WindowsFileMgr.cpp.obj
 0001:0004ce90       ?isRelative@WindowsFileMgr@xercesc_3_2@@UAE_NQB_WQAVMemoryManager@2@@Z 1004de90 f   xerces-c_3:WindowsFileMgr.cpp.obj
 0001:0004cee0       ?openStdIn@WindowsFileMgr@xercesc_3_2@@UAEPAXQAVMemoryManager@2@@Z 1004dee0 f   xerces-c_3:WindowsFileMgr.cpp.obj
 0001:0004cfb0       ??0StdMutexMgr@xercesc_3_2@@QAE@XZ 1004dfb0 f   xerces-c_3:StdMutexMgr.cpp.obj
 0001:0004cfc0       ??_EStdMutexMgr@xercesc_3_2@@UAEPAXI@Z 1004dfc0 f i xerces-c_3:StdMutexMgr.cpp.obj
 0001:0004cfc0       ??_GXMLMutexMgr@xercesc_3_2@@UAEPAXI@Z 1004dfc0 f i xerces-c_3:StdMutexMgr.cpp.obj
 0001:0004cfc0       ??_GStdMutexMgr@xercesc_3_2@@UAEPAXI@Z 1004dfc0 f i xerces-c_3:StdMutexMgr.cpp.obj
 0001:0004cfc0       ??_EXMLMutexMgr@xercesc_3_2@@UAEPAXI@Z 1004dfc0 f i xerces-c_3:StdMutexMgr.cpp.obj
 0001:0004d000       ?_Check_C_return@std@@YAHH@Z 1004e000 f i xerces-c_3:StdMutexMgr.cpp.obj
 0001:0004d010       ?create@StdMutexMgr@xercesc_3_2@@UAEPAXQAVMemoryManager@2@@Z 1004e010 f   xerces-c_3:StdMutexMgr.cpp.obj
 0001:0004d050       ?destroy@StdMutexMgr@xercesc_3_2@@UAEXPAXQAVMemoryManager@2@@Z 1004e050 f   xerces-c_3:StdMutexMgr.cpp.obj
 0001:0004d070       ?lock@StdMutexMgr@xercesc_3_2@@UAEXPAX@Z 1004e070 f   xerces-c_3:StdMutexMgr.cpp.obj
 0001:0004d090       ?unlock@StdMutexMgr@xercesc_3_2@@UAEXPAX@Z 1004e090 f   xerces-c_3:StdMutexMgr.cpp.obj
 0001:0004d0b0       ?setLocale@XMLMsgLoader@xercesc_3_2@@SAXQBD@Z 1004e0b0 f   xerces-c_3:XMLMsgLoader.cpp.obj
 0001:0004d120       ?setNLSHome@XMLMsgLoader@xercesc_3_2@@SAXQBD@Z 1004e120 f   xerces-c_3:XMLMsgLoader.cpp.obj
 0001:0004d160       ??0InMemMsgLoader@xercesc_3_2@@QAE@QB_W@Z 1004e160 f   xerces-c_3:InMemMsgLoader.cpp.obj
 0001:0004d340       ??1XMLMsgLoader@xercesc_3_2@@UAE@XZ 1004e340 f i xerces-c_3:InMemMsgLoader.cpp.obj
 0001:0004d350       ??_EInMemMsgLoader@xercesc_3_2@@UAEPAXI@Z 1004e350 f i xerces-c_3:InMemMsgLoader.cpp.obj
 0001:0004d350       ??_GInMemMsgLoader@xercesc_3_2@@UAEPAXI@Z 1004e350 f i xerces-c_3:InMemMsgLoader.cpp.obj
 0001:0004d3e0       ??_EXMLMsgLoader@xercesc_3_2@@UAEPAXI@Z 1004e3e0 f i xerces-c_3:InMemMsgLoader.cpp.obj
 0001:0004d3e0       ??_GXMLMsgLoader@xercesc_3_2@@UAEPAXI@Z 1004e3e0 f i xerces-c_3:InMemMsgLoader.cpp.obj
 0001:0004d420       ?loadMsg@InMemMsgLoader@xercesc_3_2@@UAE_NIQA_WI@Z 1004e420 f   xerces-c_3:InMemMsgLoader.cpp.obj
 0001:0004d5e0       ?loadMsg@InMemMsgLoader@xercesc_3_2@@UAE_NIQA_WIQBD111QAVMemoryManager@2@@Z 1004e5e0 f   xerces-c_3:InMemMsgLoader.cpp.obj
 0001:0004d6c0       ?loadMsg@InMemMsgLoader@xercesc_3_2@@UAE_NIQA_WIQB_W111QAVMemoryManager@2@@Z 1004e6c0 f   xerces-c_3:InMemMsgLoader.cpp.obj
 0001:0004d710       ??0EndOfEntityException@xercesc_3_2@@QAE@PAVXMLEntityDecl@1@I@Z 1004e710 f i xerces-c_3:ReaderMgr.cpp.obj
 0001:0004d710       ??0?$ArrayJanitor@E@xercesc_3_2@@QAE@QAEQAVMemoryManager@1@@Z 1004e710 f i xerces-c_3:JanitorExports.cpp.obj
 0001:0004d710       ??0?$ArrayJanitor@_W@xercesc_3_2@@QAE@QA_WQAVMemoryManager@1@@Z 1004e710 f i xerces-c_3:JanitorExports.cpp.obj
 0001:0004d730       ??0?$ArrayJanitor@_W@xercesc_3_2@@QAE@QA_W@Z 1004e730 f i xerces-c_3:JanitorExports.cpp.obj
 0001:0004d750       ?reset@?$ArrayJanitor@_W@xercesc_3_2@@QAEXPA_WQAVMemoryManager@2@@Z 1004e750 f i xerces-c_3:JanitorExports.cpp.obj
 0001:0004d790       ??0TranscodingException@xercesc_3_2@@QAE@QBD_KW4Codes@XMLExcepts@1@QB_W333PAVMemoryManager@1@@Z 1004e790 f i xerces-c_3:Win32TransService.cpp.obj
 0001:0004d810       ??0Win32TransService@xercesc_3_2@@QAE@PAVMemoryManager@1@@Z 1004e810 f   xerces-c_3:Win32TransService.cpp.obj
 0001:0004de00       ??_EWin32LCPTranscoder@xercesc_3_2@@UAEPAXI@Z 1004ee00 f i xerces-c_3:Win32TransService.cpp.obj
 0001:0004de00       ??_GWin32LCPTranscoder@xercesc_3_2@@UAEPAXI@Z 1004ee00 f i xerces-c_3:Win32TransService.cpp.obj
 0001:0004de40       ??_GWin32TransService@xercesc_3_2@@UAEPAXI@Z 1004ee40 f i xerces-c_3:Win32TransService.cpp.obj
 0001:0004de40       ??_EWin32TransService@xercesc_3_2@@UAEPAXI@Z 1004ee40 f i xerces-c_3:Win32TransService.cpp.obj
 0001:0004df60       ??_EWin32Transcoder@xercesc_3_2@@UAEPAXI@Z 1004ef60 f i xerces-c_3:Win32TransService.cpp.obj
 0001:0004df60       ??_GWin32Transcoder@xercesc_3_2@@UAEPAXI@Z 1004ef60 f i xerces-c_3:Win32TransService.cpp.obj
 0001:0004dfa0       ?calcRequiredSize@Win32LCPTranscoder@xercesc_3_2@@UAEIQBDQAVMemoryManager@2@@Z 1004efa0 f   xerces-c_3:Win32TransService.cpp.obj
 0001:0004dfc0       ?calcRequiredSize@Win32LCPTranscoder@xercesc_3_2@@UAEIQB_WQAVMemoryManager@2@@Z 1004efc0 f   xerces-c_3:Win32TransService.cpp.obj
 0001:0004dff0       ?canTranscodeTo@Win32Transcoder@xercesc_3_2@@UAE_NI@Z 1004eff0 f   xerces-c_3:Win32TransService.cpp.obj
 0001:0004e0a0       ?compareIString@Win32TransService@xercesc_3_2@@UAEHQB_W0@Z 1004f0a0 f   xerces-c_3:Win32TransService.cpp.obj
 0001:0004e0c0       ?compareNIString@Win32TransService@xercesc_3_2@@UAEHQB_W0I@Z 1004f0c0 f   xerces-c_3:Win32TransService.cpp.obj
 0001:0004e0e0       ?getId@Win32TransService@xercesc_3_2@@UBEPB_WXZ 1004f0e0 f   xerces-c_3:Win32TransService.cpp.obj
 0001:0004e0f0       ?lowerCase@Win32TransService@xercesc_3_2@@UAEXQA_W@Z 1004f0f0 f   xerces-c_3:Win32TransService.cpp.obj
 0001:0004e100       ?makeNewLCPTranscoder@Win32TransService@xercesc_3_2@@UAEPAVXMLLCPTranscoder@2@PAVMemoryManager@2@@Z 1004f100 f   xerces-c_3:Win32TransService.cpp.obj
 0001:0004e180       ?makeNewXMLTranscoder@Win32TransService@xercesc_3_2@@MAEPAVXMLTranscoder@2@QB_WAAW4Codes@XMLTransService@2@IQAVMemoryManager@2@@Z 1004f180 f   xerces-c_3:Win32TransService.cpp.obj
 0001:0004e320       ?put@?$RefHashTableOf@VCPMapEntry@xercesc_3_2@@UStringHasher@2@@xercesc_3_2@@QAEXPAXQAVCPMapEntry@2@@Z 1004f320 f i xerces-c_3:Win32TransService.cpp.obj
 0001:0004e4e0       ?isSerializable@DayDatatypeValidator@xercesc_3_2@@UBE_NXZ 1004f4e0 f   xerces-c_3:DayDatatypeValidator.cpp.obj
 0001:0004e4e0       ?isSerializable@DatatypeValidatorFactory@xercesc_3_2@@UBE_NXZ 1004f4e0 f   xerces-c_3:DatatypeValidatorFactory.cpp.obj
 0001:0004e4e0       ?isSerializable@DTDEntityDecl@xercesc_3_2@@UBE_NXZ 1004f4e0 f   xerces-c_3:DTDEntityDecl.cpp.obj
 0001:0004e4e0       ?isSerializable@AnyURIDatatypeValidator@xercesc_3_2@@UBE_NXZ 1004f4e0 f   xerces-c_3:AnyURIDatatypeValidator.cpp.obj
 0001:0004e4e0       ___acrt_uninitialize_command_line 1004f4e0 f   libucrt:argv_data.obj
 0001:0004e4e0       ?isSerializable@DoubleDatatypeValidator@xercesc_3_2@@UBE_NXZ 1004f4e0 f   xerces-c_3:DoubleDatatypeValidator.cpp.obj
 0001:0004e4e0       ?isSerializable@DatatypeValidator@xercesc_3_2@@UBE_NXZ 1004f4e0 f   xerces-c_3:DatatypeValidator.cpp.obj
 0001:0004e4e0       ?isSerializable@XercesLocationPath@xercesc_3_2@@UBE_NXZ 1004f4e0 f   xerces-c_3:XercesXPath.cpp.obj
 0001:0004e4e0       ?isSerializable@XMLAbstractDoubleFloat@xercesc_3_2@@UBE_NXZ 1004f4e0 f   xerces-c_3:XMLAbstractDoubleFloat.cpp.obj
 0001:0004e4e0       ?isSerializable@YearDatatypeValidator@xercesc_3_2@@UBE_NXZ 1004f4e0 f   xerces-c_3:YearDatatypeValidator.cpp.obj
 0001:0004e4e0       ?isSerializable@BooleanDatatypeValidator@xercesc_3_2@@UBE_NXZ 1004f4e0 f   xerces-c_3:BooleanDatatypeValidator.cpp.obj
 0001:0004e4e0       ?requiresNamespaces@SchemaValidator@xercesc_3_2@@UBE_NXZ 1004f4e0 f   xerces-c_3:SchemaValidator.cpp.obj
 0001:0004e4e0       ?isSerializable@XMLDTDDescription@xercesc_3_2@@UBE_NXZ 1004f4e0 f   xerces-c_3:XMLDTDDescription.cpp.obj
 0001:0004e4e0       ?isSerializable@YearMonthDatatypeValidator@xercesc_3_2@@UBE_NXZ 1004f4e0 f   xerces-c_3:YearMonthDatatypeValidator.cpp.obj
 0001:0004e4e0       ?isSerializable@AbstractNumericValidator@xercesc_3_2@@UBE_NXZ 1004f4e0 f   xerces-c_3:AbstractNumericValidator.cpp.obj
 0001:0004e4e0       ?isSerializable@XMLDouble@xercesc_3_2@@UBE_NXZ 1004f4e0 f   xerces-c_3:XMLDouble.cpp.obj
 0001:0004e4e0       ?isSerializable@XercesNodeTest@xercesc_3_2@@UBE_NXZ 1004f4e0 f   xerces-c_3:XercesXPath.cpp.obj
 0001:0004e4e0       ?isSerializable@NOTATIONDatatypeValidator@xercesc_3_2@@UBE_NXZ 1004f4e0 f   xerces-c_3:NOTATIONDatatypeValidator.cpp.obj
 0001:0004e4e0       ?isSerializable@NCNameDatatypeValidator@xercesc_3_2@@UBE_NXZ 1004f4e0 f   xerces-c_3:NCNameDatatypeValidator.cpp.obj
 0001:0004e4e0       ?isSerializable@XMLFloat@xercesc_3_2@@UBE_NXZ 1004f4e0 f   xerces-c_3:XMLFloat.cpp.obj
 0001:0004e4e0       ?isSerializable@SchemaAttDefList@xercesc_3_2@@UBE_NXZ 1004f4e0 f   xerces-c_3:SchemaAttDefList.cpp.obj
 0001:0004e4e0       ?isSerializable@IC_KeyRef@xercesc_3_2@@UBE_NXZ 1004f4e0 f   xerces-c_3:IC_KeyRef.cpp.obj
 0001:0004e4e0       ?isSerializable@QNameDatatypeValidator@xercesc_3_2@@UBE_NXZ 1004f4e0 f   xerces-c_3:QNameDatatypeValidator.cpp.obj
 0001:0004e4e0       ?isSerializable@XMLDTDDescriptionImpl@xercesc_3_2@@UBE_NXZ 1004f4e0 f   xerces-c_3:XMLDTDDescriptionImpl.cpp.obj
 0001:0004e4e0       ?AllowGeneralFetchOfReservedContexts@SchedulerBase@details@Concurrency@@MAE_NXZ 1004f4e0 f   libconcrt:SchedulerBase.obj
 0001:0004e4e0       ?isSerializable@IC_Key@xercesc_3_2@@UBE_NXZ 1004f4e0 f   xerces-c_3:IC_Key.cpp.obj
 0001:0004e4e0       ?isSerializable@KVStringPair@xercesc_3_2@@UBE_NXZ 1004f4e0 f   xerces-c_3:KVStringPair.cpp.obj
 0001:0004e4e0       ?isSerializable@ComplexTypeInfo@xercesc_3_2@@UBE_NXZ 1004f4e0 f   xerces-c_3:ComplexTypeInfo.cpp.obj
 0001:0004e4e0       ?isSerializable@MonthDatatypeValidator@xercesc_3_2@@UBE_NXZ 1004f4e0 f   xerces-c_3:MonthDatatypeValidator.cpp.obj
 0001:0004e4e0       ?isSerializable@DTDGrammar@xercesc_3_2@@UBE_NXZ 1004f4e0 f   xerces-c_3:DTDGrammar.cpp.obj
 0001:0004e4e0       ?isSerializable@DTDAttDef@xercesc_3_2@@UBE_NXZ 1004f4e0 f   xerces-c_3:DTDAttDef.cpp.obj
 0001:0004e4e0       ?isSerializable@XMLGrammarDescription@xercesc_3_2@@UBE_NXZ 1004f4e0 f   xerces-c_3:XMLGrammarDescription.cpp.obj
 0001:0004e4e0       ?isSerializable@XMLEntityDecl@xercesc_3_2@@UBE_NXZ 1004f4e0 f   xerces-c_3:XMLEntityDecl.cpp.obj
 0001:0004e4e0       ?isSerializable@StringDatatypeValidator@xercesc_3_2@@UBE_NXZ 1004f4e0 f   xerces-c_3:StringDatatypeValidator.cpp.obj
 0001:0004e4e0       ?isSerializable@DateTimeValidator@xercesc_3_2@@UBE_NXZ 1004f4e0 f   xerces-c_3:DateTimeValidator.cpp.obj
 0001:0004e4e0       ?isSerializable@XMLSchemaDescription@xercesc_3_2@@UBE_NXZ 1004f4e0 f   xerces-c_3:XMLSchemaDescription.cpp.obj
 0001:0004e4e0       ?isSerializable@XercesGroupInfo@xercesc_3_2@@UBE_NXZ 1004f4e0 f   xerces-c_3:XercesGroupInfo.cpp.obj
 0001:0004e4e0       ?isSerializable@FloatDatatypeValidator@xercesc_3_2@@UBE_NXZ 1004f4e0 f   xerces-c_3:FloatDatatypeValidator.cpp.obj
 0001:0004e4e0       ?isAtomic@DatatypeValidator@xercesc_3_2@@UBE_NXZ 1004f4e0 f   xerces-c_3:DatatypeValidatorFactory.cpp.obj
 0001:0004e4e0       ?isSerializable@XercesAttGroupInfo@xercesc_3_2@@UBE_NXZ 1004f4e0 f   xerces-c_3:XercesAttGroupInfo.cpp.obj
 0001:0004e4e0       ?isSerializable@DTDAttDefList@xercesc_3_2@@UBE_NXZ 1004f4e0 f   xerces-c_3:DTDAttDefList.cpp.obj
 0001:0004e4e0       ?isSerializable@SchemaAttDef@xercesc_3_2@@UBE_NXZ 1004f4e0 f   xerces-c_3:SchemaAttDef.cpp.obj
 0001:0004e4e0       ?isSerializable@AbstractStringValidator@xercesc_3_2@@UBE_NXZ 1004f4e0 f   xerces-c_3:AbstractStringValidator.cpp.obj
 0001:0004e4e0       ?isSerializable@ListDatatypeValidator@xercesc_3_2@@UBE_NXZ 1004f4e0 f   xerces-c_3:ListDatatypeValidator.cpp.obj
 0001:0004e4e0       ?isSerializable@SchemaElementDecl@xercesc_3_2@@UBE_NXZ 1004f4e0 f   xerces-c_3:SchemaElementDecl.cpp.obj
 0001:0004e4e0       ?isSerializable@IDDatatypeValidator@xercesc_3_2@@UBE_NXZ 1004f4e0 f   xerces-c_3:IDDatatypeValidator.cpp.obj
 0001:0004e4e0       ?isSerializable@SchemaGrammar@xercesc_3_2@@UBE_NXZ 1004f4e0 f   xerces-c_3:SchemaGrammar.cpp.obj
 0001:0004e4e0       ?isSerializable@XercesXPath@xercesc_3_2@@UBE_NXZ 1004f4e0 f   xerces-c_3:XercesXPath.cpp.obj
 0001:0004e4e0       ?supportsSrcOfs@Win32TransService@xercesc_3_2@@UBE_NXZ 1004f4e0 f   xerces-c_3:Win32TransService.cpp.obj
 0001:0004e4e0       ?isSerializable@ContentSpecNode@xercesc_3_2@@UBE_NXZ 1004f4e0 f   xerces-c_3:ContentSpecNode.cpp.obj
 0001:0004e4e0       ?isSerializable@HexBinaryDatatypeValidator@xercesc_3_2@@UBE_NXZ 1004f4e0 f   xerces-c_3:HexBinaryDatatypeValidator.cpp.obj
 0001:0004e4e0       ?isSerializable@XMLRefInfo@xercesc_3_2@@UBE_NXZ 1004f4e0 f   xerces-c_3:XMLRefInfo.cpp.obj
 0001:0004e4e0       ?isSerializable@XMLStringPool@xercesc_3_2@@UBE_NXZ 1004f4e0 f   xerces-c_3:StringPool.cpp.obj
 0001:0004e4e0       ?isSerializable@IC_Unique@xercesc_3_2@@UBE_NXZ 1004f4e0 f   xerces-c_3:IC_Unique.cpp.obj
 0001:0004e4e0       ?isSerializable@XMLNumber@xercesc_3_2@@UBE_NXZ 1004f4e0 f   xerces-c_3:XMLNumber.cpp.obj
 0001:0004e4e0       ?isSerializable@DurationDatatypeValidator@xercesc_3_2@@UBE_NXZ 1004f4e0 f   xerces-c_3:DurationDatatypeValidator.cpp.obj
 0001:0004e4e0       ?isSerializable@IC_Selector@xercesc_3_2@@UBE_NXZ 1004f4e0 f   xerces-c_3:IC_Selector.cpp.obj
 0001:0004e4e0       ?isSerializable@QName@xercesc_3_2@@UBE_NXZ 1004f4e0 f   xerces-c_3:QName.cpp.obj
 0001:0004e4e0       ?isSerializable@XMLNotationDecl@xercesc_3_2@@UBE_NXZ 1004f4e0 f   xerces-c_3:XMLNotationDecl.cpp.obj
 0001:0004e4e0       ?isSerializable@XMLElementDecl@xercesc_3_2@@UBE_NXZ 1004f4e0 f   xerces-c_3:XMLElementDecl.cpp.obj
 0001:0004e4e0       ?isSerializable@TimeDatatypeValidator@xercesc_3_2@@UBE_NXZ 1004f4e0 f   xerces-c_3:TimeDatatypeValidator.cpp.obj
 0001:0004e4e0       ?isSerializable@Base64BinaryDatatypeValidator@xercesc_3_2@@UBE_NXZ 1004f4e0 f   xerces-c_3:Base64BinaryDatatypeValidator.cpp.obj
 0001:0004e4e0       ?isSerializable@AbstractNumericFacetValidator@xercesc_3_2@@UBE_NXZ 1004f4e0 f   xerces-c_3:AbstractNumericFacetValidator.cpp.obj
 0001:0004e4e0       ?isSerializable@ENTITYDatatypeValidator@xercesc_3_2@@UBE_NXZ 1004f4e0 f   xerces-c_3:ENTITYDatatypeValidator.cpp.obj
 0001:0004e4e0       ?isSerializable@XMLAttDef@xercesc_3_2@@UBE_NXZ 1004f4e0 f   xerces-c_3:XMLAttDef.cpp.obj
 0001:0004e4e0       ?isSerializable@IdentityConstraint@xercesc_3_2@@UBE_NXZ 1004f4e0 f   xerces-c_3:IdentityConstraint.cpp.obj
 0001:0004e4e0       ?isSerializable@XercesStep@xercesc_3_2@@UBE_NXZ 1004f4e0 f   xerces-c_3:XercesXPath.cpp.obj
 0001:0004e4e0       ?isSerializable@XMLBigDecimal@xercesc_3_2@@UBE_NXZ 1004f4e0 f   xerces-c_3:XMLBigDecimal.cpp.obj
 0001:0004e4e0       ?isSerializable@DTDElementDecl@xercesc_3_2@@UBE_NXZ 1004f4e0 f   xerces-c_3:DTDElementDecl.cpp.obj
 0001:0004e4e0       ?isSerializable@IC_Field@xercesc_3_2@@UBE_NXZ 1004f4e0 f   xerces-c_3:IC_Field.cpp.obj
 0001:0004e4e0       ?isRepeatableLeaf@CMRepeatingLeaf@xercesc_3_2@@UBE_NXZ 1004f4e0 f   xerces-c_3:DFAContentModel.cpp.obj
 0001:0004e4e0       ?isSerializable@XMLUri@xercesc_3_2@@UBE_NXZ 1004f4e0 f   xerces-c_3:XMLUri.cpp.obj
 0001:0004e4e0       ?handlesDTD@DTDValidator@xercesc_3_2@@UBE_NXZ 1004f4e0 f   xerces-c_3:DTDValidator.cpp.obj
 0001:0004e4e0       ?isSerializable@XMLSchemaDescriptionImpl@xercesc_3_2@@UBE_NXZ 1004f4e0 f   xerces-c_3:XMLSchemaDescriptionImpl.cpp.obj
 0001:0004e4e0       ?handlesSchema@SchemaValidator@xercesc_3_2@@UBE_NXZ 1004f4e0 f   xerces-c_3:SchemaValidator.cpp.obj
 0001:0004e4e0       ?isSerializable@IDREFDatatypeValidator@xercesc_3_2@@UBE_NXZ 1004f4e0 f   xerces-c_3:IDREFDatatypeValidator.cpp.obj
 0001:0004e4e0       ?isSerializable@NameDatatypeValidator@xercesc_3_2@@UBE_NXZ 1004f4e0 f   xerces-c_3:NameDatatypeValidator.cpp.obj
 0001:0004e4e0       ?isSerializable@MonthDayDatatypeValidator@xercesc_3_2@@UBE_NXZ 1004f4e0 f   xerces-c_3:MonthDayDatatypeValidator.cpp.obj
 0001:0004e4e0       ?isSerializable@DecimalDatatypeValidator@xercesc_3_2@@UBE_NXZ 1004f4e0 f   xerces-c_3:DecimalDatatypeValidator.cpp.obj
 0001:0004e4e0       ?isSerializable@DateTimeDatatypeValidator@xercesc_3_2@@UBE_NXZ 1004f4e0 f   xerces-c_3:DateTimeDatatypeValidator.cpp.obj
 0001:0004e4e0       ?isSerializable@XMLDateTime@xercesc_3_2@@UBE_NXZ 1004f4e0 f   xerces-c_3:XMLDateTime.cpp.obj
 0001:0004e4e0       ?isSerializable@DateDatatypeValidator@xercesc_3_2@@UBE_NXZ 1004f4e0 f   xerces-c_3:DateDatatypeValidator.cpp.obj
 0001:0004e4e0       ?isSerializable@UnionDatatypeValidator@xercesc_3_2@@UBE_NXZ 1004f4e0 f   xerces-c_3:UnionDatatypeValidator.cpp.obj
 0001:0004e4e0       ?SweepWaitNode@SingleWaitBlock@details@Concurrency@@UAE_NXZ 1004f4e0 f   libconcrt:event.obj
 0001:0004e4e0       ?isSerializable@XSAnnotation@xercesc_3_2@@UBE_NXZ 1004f4e0 f   xerces-c_3:XSAnnotation.cpp.obj
 0001:0004e4e0       ?isSerializable@AnySimpleTypeDatatypeValidator@xercesc_3_2@@UBE_NXZ 1004f4e0 f   xerces-c_3:AnySimpleTypeDatatypeValidator.cpp.obj
 0001:0004e4f0       ?transcode@Win32LCPTranscoder@xercesc_3_2@@UAEPADQB_WQAVMemoryManager@2@@Z 1004f4f0 f   xerces-c_3:Win32TransService.cpp.obj
 0001:0004e560       ?transcode@Win32LCPTranscoder@xercesc_3_2@@UAEPA_WQBDQAVMemoryManager@2@@Z 1004f560 f   xerces-c_3:Win32TransService.cpp.obj
 0001:0004e5f0       ?transcode@Win32LCPTranscoder@xercesc_3_2@@UAE_NQBDQA_WIQAVMemoryManager@2@@Z 1004f5f0 f   xerces-c_3:Win32TransService.cpp.obj
 0001:0004e630       ?transcode@Win32LCPTranscoder@xercesc_3_2@@UAE_NQB_WQADIQAVMemoryManager@2@@Z 1004f630 f   xerces-c_3:Win32TransService.cpp.obj
 0001:0004e690       ?transcodeFrom@Win32Transcoder@xercesc_3_2@@UAEIQBEIQA_WIAAIQAE@Z 1004f690 f   xerces-c_3:Win32TransService.cpp.obj
 0001:0004e800       ?transcodeTo@Win32Transcoder@xercesc_3_2@@UAEIQB_WIQAEIAAIW4UnRepOpts@XMLTranscoder@2@@Z 1004f800 f   xerces-c_3:Win32TransService.cpp.obj
 0001:0004e920       ?upperCase@Win32TransService@xercesc_3_2@@UAEXQA_W@Z 1004f920 f   xerces-c_3:Win32TransService.cpp.obj
 0001:0004e930       ??0RuntimeException@xercesc_3_2@@QAE@QBD_KW4Codes@XMLExcepts@1@QB_W333PAVMemoryManager@1@@Z 1004f930 f i xerces-c_3:XMLReader.cpp.obj
 0001:0004e9b0       ??0XMLReader@xercesc_3_2@@QAE@QB_W0QAVBinInputStream@1@0W4RefFrom@01@W4Types@01@W4Sources@01@_N5IW4XMLVersion@01@QAVMemoryManager@1@@Z 1004f9b0 f   xerces-c_3:XMLReader.cpp.obj
 0001:0004ee50       ??0XMLReader@xercesc_3_2@@QAE@QB_W0QAVBinInputStream@1@W4Encodings@XMLRecognizer@1@W4RefFrom@01@W4Types@01@W4Sources@01@_N6IW4XMLVersion@01@QAVMemoryManager@1@@Z 1004fe50 f   xerces-c_3:XMLReader.cpp.obj
 0001:0004f1c0       ??0XMLReader@xercesc_3_2@@QAE@QB_W0QAVBinInputStream@1@W4RefFrom@01@W4Types@01@W4Sources@01@_N5IW4XMLVersion@01@QAVMemoryManager@1@@Z 100501c0 f   xerces-c_3:XMLReader.cpp.obj
 0001:0004f440       ??1XMLReader@xercesc_3_2@@QAE@XZ 10050440 f   xerces-c_3:XMLReader.cpp.obj
 0001:0004f4d0       ?containsWhiteSpace@XMLReader@xercesc_3_2@@QBE_NQB_WI@Z 100504d0 f   xerces-c_3:XMLReader.cpp.obj
 0001:0004f510       ?doInitDecode@XMLReader@xercesc_3_2@@AAEXXZ 10050510 f   xerces-c_3:XMLReader.cpp.obj
 0001:0004fdb0       ?getNCName@XMLReader@xercesc_3_2@@QAE_NAAVXMLBuffer@2@@Z 10050db0 f   xerces-c_3:XMLReader.cpp.obj
 0001:0004ffb0       ?getName@XMLReader@xercesc_3_2@@QAE_NAAVXMLBuffer@2@_N@Z 10050fb0 f   xerces-c_3:XMLReader.cpp.obj
 0001:000501c0       ?getQName@XMLReader@xercesc_3_2@@QAE_NAAVXMLBuffer@2@PAH@Z 100511c0 f   xerces-c_3:XMLReader.cpp.obj
 0001:00050260       ?getSpaces@XMLReader@xercesc_3_2@@QAE_NAAVXMLBuffer@2@@Z 10051260 f   xerces-c_3:XMLReader.cpp.obj
 0001:00050310       ?getSrcOffset@XMLReader@xercesc_3_2@@QBE_KXZ 10051310 f   xerces-c_3:XMLReader.cpp.obj
 0001:000503c0       ?getUpToCharOrWS@XMLReader@xercesc_3_2@@QAE_NAAVXMLBuffer@2@_W@Z 100513c0 f   xerces-c_3:XMLReader.cpp.obj
 0001:00050480       ?handleEOL@XMLReader@xercesc_3_2@@AAEXAA_W_N@Z 10051480 f   xerces-c_3:XMLReader.cpp.obj
 0001:00050610       ?isAllSpaces@XMLReader@xercesc_3_2@@QBE_NQB_WI@Z 10051610 f   xerces-c_3:XMLReader.cpp.obj
 0001:00050650       ?isPublicIdChar@XMLReader@xercesc_3_2@@QBE_N_W@Z 10051650 f   xerces-c_3:XMLReader.cpp.obj
 0001:00050680       ?peekString@XMLReader@xercesc_3_2@@QAE_NQB_W@Z 10051680 f   xerces-c_3:XMLReader.cpp.obj
 0001:00050740       ?refreshCharBuffer@XMLReader@xercesc_3_2@@QAE_NXZ 10051740 f   xerces-c_3:XMLReader.cpp.obj
 0001:00050a00       ?refreshRawBuffer@XMLReader@xercesc_3_2@@AAEXXZ 10051a00 f   xerces-c_3:XMLReader.cpp.obj
 0001:00050ab0       ?setEncoding@XMLReader@xercesc_3_2@@QAE_NQB_W@Z 10051ab0 f   xerces-c_3:XMLReader.cpp.obj
 0001:00051120       ?skipIfQuote@XMLReader@xercesc_3_2@@QAE_NAA_W@Z 10052120 f   xerces-c_3:XMLReader.cpp.obj
 0001:00051170       ?skipSpaces@XMLReader@xercesc_3_2@@QAE_NAA_N_N@Z 10052170 f   xerces-c_3:XMLReader.cpp.obj
 0001:00051200       ?skippedChar@XMLReader@xercesc_3_2@@QAE_N_W@Z 10052200 f   xerces-c_3:XMLReader.cpp.obj
 0001:00051250       ?skippedSpace@XMLReader@xercesc_3_2@@QAE_NXZ 10052250 f   xerces-c_3:XMLReader.cpp.obj
 0001:000512c0       ?skippedString@XMLReader@xercesc_3_2@@QAE_NQB_W@Z 100522c0 f   xerces-c_3:XMLReader.cpp.obj
 0001:00051390       ?skippedStringLong@XMLReader@xercesc_3_2@@QAE_NPB_W@Z 10052390 f   xerces-c_3:XMLReader.cpp.obj
 0001:000514d0       ??0?$RefHashTableOfEnumerator@VGrammar@xercesc_3_2@@UStringHasher@2@@xercesc_3_2@@QAE@QAV?$RefHashTableOf@VGrammar@xercesc_3_2@@UStringHasher@2@@1@_NQAVMemoryManager@1@@Z 100524d0 f i xerces-c_3:GrammarResolver.cpp.obj
 0001:000515b0       ??0GrammarResolver@xercesc_3_2@@QAE@QAVXMLGrammarPool@1@QAVMemoryManager@1@@Z 100525b0 f   xerces-c_3:GrammarResolver.cpp.obj
 0001:000517d0       ??0XMLBuffer@xercesc_3_2@@QAE@IQAVMemoryManager@1@@Z 100527d0 f i xerces-c_3:GrammarResolver.cpp.obj
 0001:00051820       ??1?$RefHashTableOfEnumerator@VGrammar@xercesc_3_2@@UStringHasher@2@@xercesc_3_2@@UAE@XZ 10052820 f i xerces-c_3:GrammarResolver.cpp.obj
 0001:000518a0       ??1?$XMLEnumerator@VGrammar@xercesc_3_2@@@xercesc_3_2@@UAE@XZ 100528a0 f i xerces-c_3:GrammarResolver.cpp.obj
 0001:000518b0       ??1GrammarResolver@xercesc_3_2@@QAE@XZ 100528b0 f   xerces-c_3:GrammarResolver.cpp.obj
 0001:000519b0       ??1XMLBuffer@xercesc_3_2@@QAE@XZ 100529b0 f i xerces-c_3:GrammarResolver.cpp.obj
 0001:000519f0       ??_G?$RefHashTableOfEnumerator@VGrammar@xercesc_3_2@@UStringHasher@2@@xercesc_3_2@@UAEPAXI@Z 100529f0 f i xerces-c_3:GrammarResolver.cpp.obj
 0001:000519f0       ??_E?$RefHashTableOfEnumerator@VGrammar@xercesc_3_2@@UStringHasher@2@@xercesc_3_2@@UAEPAXI@Z 100529f0 f i xerces-c_3:GrammarResolver.cpp.obj
 0001:00051a90       ??_G?$XMLEnumerator@VGrammar@xercesc_3_2@@@xercesc_3_2@@UAEPAXI@Z 10052a90 f i xerces-c_3:GrammarResolver.cpp.obj
 0001:00051a90       ??_E?$XMLEnumerator@VGrammar@xercesc_3_2@@@xercesc_3_2@@UAEPAXI@Z 10052a90 f i xerces-c_3:GrammarResolver.cpp.obj
 0001:00051ac0       ?Reset@?$RefHashTableOfEnumerator@VXMLRefInfo@xercesc_3_2@@UStringHasher@2@@xercesc_3_2@@UAEXXZ 10052ac0 f i xerces-c_3:XMLScanner.cpp.obj
 0001:00051ac0       ?Reset@?$RefHashTableOfEnumerator@VDTDAttDef@xercesc_3_2@@UStringHasher@2@@xercesc_3_2@@UAEXXZ 10052ac0 f i xerces-c_3:XTemplateSerializer.cpp.obj
 0001:00051ac0       ?Reset@?$RefHashTableOfEnumerator@VKVStringPair@xercesc_3_2@@UStringHasher@2@@xercesc_3_2@@UAEXXZ 10052ac0 f i xerces-c_3:DOMXPathNSResolverImpl.cpp.obj
 0001:00051ac0       ?Reset@?$RefHashTableOfEnumerator@_WUStringHasher@xercesc_3_2@@@xercesc_3_2@@UAEXXZ 10052ac0 f i xerces-c_3:DOMNormalizer.cpp.obj
 0001:00051ac0       ?Reset@?$RefHashTableOfEnumerator@VXSAnnotation@xercesc_3_2@@UPtrHasher@2@@xercesc_3_2@@UAEXXZ 10052ac0 f i xerces-c_3:XTemplateSerializer.cpp.obj
 0001:00051ac0       ?Reset@?$RefHashTableOfEnumerator@VXercesAttGroupInfo@xercesc_3_2@@UStringHasher@2@@xercesc_3_2@@UAEXXZ 10052ac0 f i xerces-c_3:XSModel.cpp.obj
 0001:00051ac0       ?Reset@?$RefHashTableOfEnumerator@VDatatypeValidator@xercesc_3_2@@UStringHasher@2@@xercesc_3_2@@UAEXXZ 10052ac0 f i xerces-c_3:XSModel.cpp.obj
 0001:00051ac0       ?Reset@?$RefHashTableOfEnumerator@VComplexTypeInfo@xercesc_3_2@@UStringHasher@2@@xercesc_3_2@@UAEXXZ 10052ac0 f i xerces-c_3:XSModel.cpp.obj
 0001:00051ac0       ?Reset@?$RefHashTableOfEnumerator@VXMLAttDef@xercesc_3_2@@UStringHasher@2@@xercesc_3_2@@UAEXXZ 10052ac0 f i xerces-c_3:XSModel.cpp.obj
 0001:00051ac0       ?Reset@?$RefHashTableOfEnumerator@VGrammar@xercesc_3_2@@UStringHasher@2@@xercesc_3_2@@UAEXXZ 10052ac0 f i xerces-c_3:GrammarResolver.cpp.obj
 0001:00051ac0       ?Reset@?$RefHashTableOfEnumerator@VXercesGroupInfo@xercesc_3_2@@UStringHasher@2@@xercesc_3_2@@UAEXXZ 10052ac0 f i xerces-c_3:XSModel.cpp.obj
 0001:00051ac0       ?Reset@?$RefHashTableOfEnumerator@VFieldValueMap@xercesc_3_2@@UICValueHasher@2@@xercesc_3_2@@UAEXXZ 10052ac0 f i xerces-c_3:ValueStore.cpp.obj
 0001:00051ac0       ?Reset@?$RefHashTableOfEnumerator@VValueStore@xercesc_3_2@@UPtrHasher@2@@xercesc_3_2@@UAEXXZ 10052ac0 f i xerces-c_3:ValueStoreCache.cpp.obj
 0001:00051b10       ?cacheGrammarFromParse@GrammarResolver@xercesc_3_2@@QAEX_N@Z 10052b10 f   xerces-c_3:GrammarResolver.cpp.obj
 0001:00051b50       ?cacheGrammars@GrammarResolver@xercesc_3_2@@QAEXXZ 10052b50 f   xerces-c_3:GrammarResolver.cpp.obj
 0001:00051e60       ?containsKey@?$RefHashTableOf@VRangeTokenElemMap@xercesc_3_2@@UStringHasher@2@@xercesc_3_2@@QBE_NQBX@Z 10052e60 f i xerces-c_3:RangeTokenMap.cpp.obj
 0001:00051e60       ?containsKey@?$RefHashTableOf@VKVStringPair@xercesc_3_2@@UStringHasher@2@@xercesc_3_2@@QBE_NQBX@Z 10052e60 f i xerces-c_3:TraverseSchema.cpp.obj
 0001:00051e60       ?containsKey@?$RefHashTableOf@VXMLAttDef@xercesc_3_2@@UStringHasher@2@@xercesc_3_2@@QBE_NQBX@Z 10052e60 f i xerces-c_3:TraverseSchema.cpp.obj
 0001:00051e60       ?containsKey@?$RefHashTableOf@VGrammar@xercesc_3_2@@UStringHasher@2@@xercesc_3_2@@QBE_NQBX@Z 10052e60 f i xerces-c_3:GrammarResolver.cpp.obj
 0001:00051e60       ?containsKey@?$RefHashTableOf@VXercesAttGroupInfo@xercesc_3_2@@UStringHasher@2@@xercesc_3_2@@QBE_NQBX@Z 10052e60 f i xerces-c_3:TraverseSchema.cpp.obj
 0001:00051e60       ?containsKey@?$RefHashTableOf@VXercesGroupInfo@xercesc_3_2@@UStringHasher@2@@xercesc_3_2@@QBE_NQBX@Z 10052e60 f i xerces-c_3:TraverseSchema.cpp.obj
 0001:00051e60       ?containsKey@?$RefHashTableOf@VDatatypeValidator@xercesc_3_2@@UStringHasher@2@@xercesc_3_2@@QBE_NQBX@Z 10052e60 f i xerces-c_3:GrammarResolver.cpp.obj
 0001:00051f10       ?findNext@?$RefHashTableOfEnumerator@VXMLAttDef@xercesc_3_2@@UStringHasher@2@@xercesc_3_2@@AAEXXZ 10052f10 f i xerces-c_3:XSModel.cpp.obj
 0001:00051f10       ?findNext@?$RefHashTableOfEnumerator@VXSAnnotation@xercesc_3_2@@UPtrHasher@2@@xercesc_3_2@@AAEXXZ 10052f10 f i xerces-c_3:XTemplateSerializer.cpp.obj
 0001:00051f10       ?findNext@?$RefHashTableOfEnumerator@VKVStringPair@xercesc_3_2@@UStringHasher@2@@xercesc_3_2@@AAEXXZ 10052f10 f i xerces-c_3:DOMXPathNSResolverImpl.cpp.obj
 0001:00051f10       ?findNext@?$RefHashTableOfEnumerator@VGrammar@xercesc_3_2@@UStringHasher@2@@xercesc_3_2@@AAEXXZ 10052f10 f i xerces-c_3:GrammarResolver.cpp.obj
 0001:00051f10       ?findNext@?$RefHashTableOfEnumerator@_WUStringHasher@xercesc_3_2@@@xercesc_3_2@@AAEXXZ 10052f10 f i xerces-c_3:DOMNormalizer.cpp.obj
 0001:00051f10       ?findNext@?$RefHashTableOfEnumerator@VXMLRefInfo@xercesc_3_2@@UStringHasher@2@@xercesc_3_2@@AAEXXZ 10052f10 f i xerces-c_3:XMLScanner.cpp.obj
 0001:00051f10       ?findNext@?$RefHashTableOfEnumerator@VValueStore@xercesc_3_2@@UPtrHasher@2@@xercesc_3_2@@AAEXXZ 10052f10 f i xerces-c_3:ValueStoreCache.cpp.obj
 0001:00051f10       ?findNext@?$RefHashTableOfEnumerator@VFieldValueMap@xercesc_3_2@@UICValueHasher@2@@xercesc_3_2@@AAEXXZ 10052f10 f i xerces-c_3:ValueStore.cpp.obj
 0001:00051f10       ?findNext@?$RefHashTableOfEnumerator@VXercesAttGroupInfo@xercesc_3_2@@UStringHasher@2@@xercesc_3_2@@AAEXXZ 10052f10 f i xerces-c_3:XSModel.cpp.obj
 0001:00051f10       ?findNext@?$RefHashTableOfEnumerator@VDTDAttDef@xercesc_3_2@@UStringHasher@2@@xercesc_3_2@@AAEXXZ 10052f10 f i xerces-c_3:XTemplateSerializer.cpp.obj
 0001:00051f10       ?findNext@?$RefHashTableOfEnumerator@VDatatypeValidator@xercesc_3_2@@UStringHasher@2@@xercesc_3_2@@AAEXXZ 10052f10 f i xerces-c_3:XSModel.cpp.obj
 0001:00051f10       ?findNext@?$RefHashTableOfEnumerator@VXercesGroupInfo@xercesc_3_2@@UStringHasher@2@@xercesc_3_2@@AAEXXZ 10052f10 f i xerces-c_3:XSModel.cpp.obj
 0001:00051f10       ?findNext@?$RefHashTableOfEnumerator@VComplexTypeInfo@xercesc_3_2@@UStringHasher@2@@xercesc_3_2@@AAEXXZ 10052f10 f i xerces-c_3:XSModel.cpp.obj
 0001:00051f70       ?get@?$RefHashTableOf@VXSObject@xercesc_3_2@@UStringHasher@2@@xercesc_3_2@@QAEPAVXSObject@2@QBX@Z 10052f70 f i xerces-c_3:XSNamespaceItem.cpp.obj
 0001:00051f70       ?get@?$RefHashTableOf@VXMLAttDef@xercesc_3_2@@UStringHasher@2@@xercesc_3_2@@QAEPAVXMLAttDef@2@QBX@Z 10052f70 f i xerces-c_3:SGXMLScanner.cpp.obj
 0001:00051f70       ?get@?$RefHashTableOf@VDatatypeValidator@xercesc_3_2@@UStringHasher@2@@xercesc_3_2@@QAEPAVDatatypeValidator@2@QBX@Z 10052f70 f i xerces-c_3:GrammarResolver.cpp.obj
 0001:00052030       ?getDatatypeValidator@DatatypeValidatorFactory@xercesc_3_2@@QBEPAVDatatypeValidator@2@QB_W@Z 10053030 f i xerces-c_3:GrammarResolver.cpp.obj
 0001:00052080       ?getDatatypeValidator@GrammarResolver@xercesc_3_2@@QAEPAVDatatypeValidator@2@QB_W0@Z 10053080 f   xerces-c_3:GrammarResolver.cpp.obj
 0001:000523c0       ?getGrammar@GrammarResolver@xercesc_3_2@@QAEPAVGrammar@2@QAVXMLGrammarDescription@2@@Z 100533c0 f   xerces-c_3:GrammarResolver.cpp.obj
 0001:00052450       ?getGrammar@GrammarResolver@xercesc_3_2@@QAEPAVGrammar@2@QB_W@Z 10053450 f   xerces-c_3:GrammarResolver.cpp.obj
 0001:00052530       ?getGrammarEnumerator@GrammarResolver@xercesc_3_2@@QBE?AV?$RefHashTableOfEnumerator@VGrammar@xercesc_3_2@@UStringHasher@2@@2@XZ 10053530 f   xerces-c_3:GrammarResolver.cpp.obj
 0001:00052550       ?getXSModel@GrammarResolver@xercesc_3_2@@QAEPAVXSModel@2@XZ 10053550 f   xerces-c_3:GrammarResolver.cpp.obj
 0001:000528f0       ?nextElement@?$RefHashTableOfEnumerator@VXSAnnotation@xercesc_3_2@@UPtrHasher@2@@xercesc_3_2@@UAEAAVXSAnnotation@2@XZ 100538f0 f i xerces-c_3:XTemplateSerializer.cpp.obj
 0001:000528f0       ?nextElement@?$RefHashTableOfEnumerator@VComplexTypeInfo@xercesc_3_2@@UStringHasher@2@@xercesc_3_2@@UAEAAVComplexTypeInfo@2@XZ 100538f0 f i xerces-c_3:XSModel.cpp.obj
 0001:000528f0       ?nextElement@?$RefHashTableOfEnumerator@VDatatypeValidator@xercesc_3_2@@UStringHasher@2@@xercesc_3_2@@UAEAAVDatatypeValidator@2@XZ 100538f0 f i xerces-c_3:XSModel.cpp.obj
 0001:000528f0       ?nextElement@?$RefHashTableOfEnumerator@VFieldValueMap@xercesc_3_2@@UICValueHasher@2@@xercesc_3_2@@UAEAAVFieldValueMap@2@XZ 100538f0 f i xerces-c_3:ValueStore.cpp.obj
 0001:000528f0       ?nextElement@?$RefHashTableOfEnumerator@VValueStore@xercesc_3_2@@UPtrHasher@2@@xercesc_3_2@@UAEAAVValueStore@2@XZ 100538f0 f i xerces-c_3:ValueStoreCache.cpp.obj
 0001:000528f0       ?nextElement@?$RefHashTableOfEnumerator@VXercesAttGroupInfo@xercesc_3_2@@UStringHasher@2@@xercesc_3_2@@UAEAAVXercesAttGroupInfo@2@XZ 100538f0 f i xerces-c_3:XSModel.cpp.obj
 0001:000528f0       ?nextElement@?$RefHashTableOfEnumerator@VXMLAttDef@xercesc_3_2@@UStringHasher@2@@xercesc_3_2@@UAEAAVXMLAttDef@2@XZ 100538f0 f i xerces-c_3:XSModel.cpp.obj
 0001:000528f0       ?nextElement@?$RefHashTableOfEnumerator@VGrammar@xercesc_3_2@@UStringHasher@2@@xercesc_3_2@@UAEAAVGrammar@2@XZ 100538f0 f i xerces-c_3:GrammarResolver.cpp.obj
 0001:000528f0       ?nextElement@?$RefHashTableOfEnumerator@VXMLRefInfo@xercesc_3_2@@UStringHasher@2@@xercesc_3_2@@UAEAAVXMLRefInfo@2@XZ 100538f0 f i xerces-c_3:XMLScanner.cpp.obj
 0001:000528f0       ?nextElement@?$RefHashTableOfEnumerator@VDTDAttDef@xercesc_3_2@@UStringHasher@2@@xercesc_3_2@@UAEAAVDTDAttDef@2@XZ 100538f0 f i xerces-c_3:XTemplateSerializer.cpp.obj
 0001:000528f0       ?nextElement@?$RefHashTableOfEnumerator@VKVStringPair@xercesc_3_2@@UStringHasher@2@@xercesc_3_2@@UAEAAVKVStringPair@2@XZ 100538f0 f i xerces-c_3:DOMXPathNSResolverImpl.cpp.obj
 0001:000528f0       ?nextElement@?$RefHashTableOfEnumerator@VXercesGroupInfo@xercesc_3_2@@UStringHasher@2@@xercesc_3_2@@UAEAAVXercesGroupInfo@2@XZ 100538f0 f i xerces-c_3:XSModel.cpp.obj
 0001:000528f0       ?nextElement@?$RefHashTableOfEnumerator@_WUStringHasher@xercesc_3_2@@@xercesc_3_2@@UAEAA_WXZ 100538f0 f i xerces-c_3:DOMNormalizer.cpp.obj
 0001:00052940       ?orphanGrammar@GrammarResolver@xercesc_3_2@@QAEPAVGrammar@2@QB_W@Z 10053940 f   xerces-c_3:GrammarResolver.cpp.obj
 0001:000529b0       ?orphanKey@?$RefHashTableOf@VGrammar@xercesc_3_2@@UStringHasher@2@@xercesc_3_2@@QAEPAVGrammar@2@QBX@Z 100539b0 f i xerces-c_3:GrammarResolver.cpp.obj
 0001:00052af0       ?putGrammar@GrammarResolver@xercesc_3_2@@QAEXQAVGrammar@2@@Z 10053af0 f   xerces-c_3:GrammarResolver.cpp.obj
 0001:00052b50       ?removeAll@?$RefHashTableOf@VXMLRefInfo@xercesc_3_2@@UStringHasher@2@@xercesc_3_2@@QAEXXZ 10053b50 f i xerces-c_3:XMLScanner.cpp.obj
 0001:00052b50       ?removeAll@?$RefHashTableOf@VGrammar@xercesc_3_2@@UStringHasher@2@@xercesc_3_2@@QAEXXZ 10053b50 f i xerces-c_3:GrammarResolver.cpp.obj
 0001:00052b50       ?removeAll@?$RefHashTableOf@VDatatypeValidator@xercesc_3_2@@UStringHasher@2@@xercesc_3_2@@QAEXXZ 10053b50 f i xerces-c_3:DatatypeValidatorFactory.cpp.obj
 0001:00052b50       ?removeAll@?$RefHashTableOf@VDTDElementDecl@xercesc_3_2@@UStringHasher@2@@xercesc_3_2@@QAEXXZ 10053b50 f i xerces-c_3:DTDGrammar.cpp.obj
 0001:00052b50       ?removeAll@?$RefHashTableOf@VDTDEntityDecl@xercesc_3_2@@UStringHasher@2@@xercesc_3_2@@QAEXXZ 10053b50 f i xerces-c_3:DTDGrammar.cpp.obj
 0001:00052b50       ?removeAll@?$RefHashTableOf@VXSAnnotation@xercesc_3_2@@UPtrHasher@2@@xercesc_3_2@@QAEXXZ 10053b50 f i xerces-c_3:XTemplateSerializer.cpp.obj
 0001:00052b50       ?removeAll@?$RefHashTableOf@VXMLNotationDecl@xercesc_3_2@@UStringHasher@2@@xercesc_3_2@@QAEXXZ 10053b50 f i xerces-c_3:DTDGrammar.cpp.obj
 0001:00052b50       ?removeAll@?$RefHashTableOf@VXMLElementDecl@xercesc_3_2@@UStringHasher@2@@xercesc_3_2@@QAEXXZ 10053b50 f i xerces-c_3:WFXMLScanner.cpp.obj
 0001:00052bb0       ?removeKey@?$RefHashTableOf@VGrammar@xercesc_3_2@@UStringHasher@2@@xercesc_3_2@@QAEXQBX@Z 10053bb0 f i xerces-c_3:GrammarResolver.cpp.obj
 0001:00052bb0       ?removeKey@?$RefHashTableOf@VKVStringPair@xercesc_3_2@@UStringHasher@2@@xercesc_3_2@@QAEXQBX@Z 10053bb0 f i xerces-c_3:DatatypeValidatorFactory.cpp.obj
 0001:00052d00       ?resetCachedGrammar@GrammarResolver@xercesc_3_2@@QAEXXZ 10053d00 f   xerces-c_3:GrammarResolver.cpp.obj
 0001:00052d20       ?set@XMLBuffer@xercesc_3_2@@QAEXQB_W@Z 10053d20 f i xerces-c_3:GrammarResolver.cpp.obj
 0001:00052d80       ??0?$RefVectorOf@VXMLAttr@xercesc_3_2@@@xercesc_3_2@@QAE@I_NQAVMemoryManager@1@@Z 10053d80 f i xerces-c_3:XMLScanner.cpp.obj
 0001:00052df0       ??0MalformedURLException@xercesc_3_2@@QAE@ABV01@@Z 10053df0 f i xerces-c_3:XMLScanner.cpp.obj
 0001:00052e10       ??0MalformedURLException@xercesc_3_2@@QAE@QBD_KW4Codes@XMLExcepts@1@PAVMemoryManager@1@@Z 10053e10 f i xerces-c_3:XMLScanner.cpp.obj
 0001:00052e80       ??0UnexpectedEOFException@xercesc_3_2@@QAE@ABV01@@Z 10053e80 f i xerces-c_3:XMLScanner.cpp.obj
 0001:00052ea0       ??0UnexpectedEOFException@xercesc_3_2@@QAE@QBD_KW4Codes@XMLExcepts@1@PAVMemoryManager@1@@Z 10053ea0 f i xerces-c_3:XMLScanner.cpp.obj
 0001:00052f10       ??0XMLScanner@xercesc_3_2@@QAE@QAVXMLValidator@1@QAVGrammarResolver@1@QAVMemoryManager@1@@Z 10053f10 f   xerces-c_3:XMLScanner.cpp.obj
 0001:00053340       ??1?$RefHashTableOfEnumerator@VXMLRefInfo@xercesc_3_2@@UStringHasher@2@@xercesc_3_2@@UAE@XZ 10054340 f i xerces-c_3:XMLScanner.cpp.obj
 0001:00053430       ??1?$RefVectorOf@VXMLAttr@xercesc_3_2@@@xercesc_3_2@@UAE@XZ 10054430 f i xerces-c_3:XMLScanner.cpp.obj
 0001:000534d0       ??1?$XMLEnumerator@VXMLRefInfo@xercesc_3_2@@@xercesc_3_2@@UAE@XZ 100544d0 f i xerces-c_3:XMLScanner.cpp.obj
 0001:000534e0       ??1MalformedURLException@xercesc_3_2@@UAE@XZ 100544e0 f i xerces-c_3:XMLScanner.cpp.obj
 0001:000534f0       ??1ThrowEOEJanitor@xercesc_3_2@@QAE@XZ 100544f0 f i xerces-c_3:XMLScanner.cpp.obj
 0001:00053500       ??1UnexpectedEOFException@xercesc_3_2@@UAE@XZ 10054500 f i xerces-c_3:XMLScanner.cpp.obj
 0001:00053510       ??1XMLBufferFullHandler@xercesc_3_2@@UAE@XZ 10054510 f i xerces-c_3:XMLScanner.cpp.obj
 0001:00053520       ??1XMLScanner@xercesc_3_2@@UAE@XZ 10054520 f   xerces-c_3:XMLScanner.cpp.obj
 0001:00053630       ??_E?$BaseRefVectorOf@VXMLAttr@xercesc_3_2@@@xercesc_3_2@@UAEPAXI@Z 10054630 f i xerces-c_3:XMLScanner.cpp.obj
 0001:00053630       ??_G?$BaseRefVectorOf@VXMLAttr@xercesc_3_2@@@xercesc_3_2@@UAEPAXI@Z 10054630 f i xerces-c_3:XMLScanner.cpp.obj
 0001:00053670       ??_G?$RefHashTableOfEnumerator@VXMLRefInfo@xercesc_3_2@@UStringHasher@2@@xercesc_3_2@@UAEPAXI@Z 10054670 f i xerces-c_3:XMLScanner.cpp.obj
 0001:00053670       ??_E?$RefHashTableOfEnumerator@VXMLRefInfo@xercesc_3_2@@UStringHasher@2@@xercesc_3_2@@UAEPAXI@Z 10054670 f i xerces-c_3:XMLScanner.cpp.obj
 0001:000536b0       ??_E?$RefVectorOf@VXMLAttr@xercesc_3_2@@@xercesc_3_2@@UAEPAXI@Z 100546b0 f i xerces-c_3:XMLScanner.cpp.obj
 0001:000536b0       ??_G?$RefVectorOf@VXMLAttr@xercesc_3_2@@@xercesc_3_2@@UAEPAXI@Z 100546b0 f i xerces-c_3:XMLScanner.cpp.obj
 0001:00053770       ??_G?$XMLEnumerator@VXMLRefInfo@xercesc_3_2@@@xercesc_3_2@@UAEPAXI@Z 10054770 f i xerces-c_3:XMLScanner.cpp.obj
 0001:00053770       ??_E?$XMLEnumerator@VXMLRefInfo@xercesc_3_2@@@xercesc_3_2@@UAEPAXI@Z 10054770 f i xerces-c_3:XMLScanner.cpp.obj
 0001:000537a0       ??_GMalformedURLException@xercesc_3_2@@UAEPAXI@Z 100547a0 f i xerces-c_3:XMLScanner.cpp.obj
 0001:000537a0       ??_EMalformedURLException@xercesc_3_2@@UAEPAXI@Z 100547a0 f i xerces-c_3:XMLScanner.cpp.obj
 0001:000537e0       ??_GUnexpectedEOFException@xercesc_3_2@@UAEPAXI@Z 100547e0 f i xerces-c_3:XMLScanner.cpp.obj
 0001:000537e0       ??_EUnexpectedEOFException@xercesc_3_2@@UAEPAXI@Z 100547e0 f i xerces-c_3:XMLScanner.cpp.obj
 0001:00053820       ??_GXMLBufferFullHandler@xercesc_3_2@@UAEPAXI@Z 10054820 f i xerces-c_3:XMLScanner.cpp.obj
 0001:00053820       ??_EXMLBufferFullHandler@xercesc_3_2@@UAEPAXI@Z 10054820 f i xerces-c_3:XMLScanner.cpp.obj
 0001:00053850       ??_EXMLScanner@xercesc_3_2@@UAEPAXI@Z 10054850 f i xerces-c_3:XMLScanner.cpp.obj
 0001:00053850       ??_GXMLScanner@xercesc_3_2@@UAEPAXI@Z 10054850 f i xerces-c_3:XMLScanner.cpp.obj
 0001:00053990       ?bufferFull@XMLScanner@xercesc_3_2@@UAE_NAAVXMLBuffer@2@@Z 10054990 f i xerces-c_3:XMLScanner.cpp.obj
 0001:000539a0       ?checkIDRefs@XMLScanner@xercesc_3_2@@IAEXXZ 100549a0 f   xerces-c_3:XMLScanner.cpp.obj
 0001:00053c00       ?checkInternalDTD@XMLScanner@xercesc_3_2@@IAEX_NQB_W1@Z 10054c00 f   xerces-c_3:XMLScanner.cpp.obj
 0001:00053cf0       ?checkXMLDecl@XMLScanner@xercesc_3_2@@QAE_N_N@Z 10054cf0 f   xerces-c_3:XMLScanner.cpp.obj
 0001:00053e80       ?cleanUp@XMLScanner@xercesc_3_2@@AAEXXZ 10054e80 f   xerces-c_3:XMLScanner.cpp.obj
 0001:00054000       ?cleanup@?$BaseRefVectorOf@VXMLAttr@xercesc_3_2@@@xercesc_3_2@@UAEXXZ 10055000 f i xerces-c_3:XMLScanner.cpp.obj
 0001:00054080       ?commonInit@XMLScanner@xercesc_3_2@@AAEXXZ 10055080 f   xerces-c_3:XMLScanner.cpp.obj
 0001:00054270       ?duplicate@MalformedURLException@xercesc_3_2@@UBEPAVXMLException@2@XZ 10055270 f i xerces-c_3:XMLScanner.cpp.obj
 0001:000542f0       ?duplicate@UnexpectedEOFException@xercesc_3_2@@UBEPAVXMLException@2@XZ 100552f0 f i xerces-c_3:XMLScanner.cpp.obj
 0001:00054370       ?emitError@XMLScanner@xercesc_3_2@@QAEXW4Codes@XMLErrs@2@@Z 10055370 f   xerces-c_3:XMLScanner.cpp.obj
 0001:00054480       ?emitError@XMLScanner@xercesc_3_2@@QAEXW4Codes@XMLErrs@2@QBD111@Z 10055480 f   xerces-c_3:XMLScanner.cpp.obj
 0001:000545d0       ?emitError@XMLScanner@xercesc_3_2@@QAEXW4Codes@XMLErrs@2@QB_W111@Z 100555d0 f   xerces-c_3:XMLScanner.cpp.obj
 0001:00054720       ?emitError@XMLScanner@xercesc_3_2@@QAEXW4Codes@XMLErrs@2@W43XMLExcepts@2@QB_W222@Z 10055720 f   xerces-c_3:XMLScanner.cpp.obj
 0001:00054870       ?emitErrorWillThrowException@XMLScanner@xercesc_3_2@@QAE_NW4Codes@XMLErrs@2@@Z 10055870 f   xerces-c_3:XMLScanner.cpp.obj
 0001:000548a0       ?getNodeType@DOMAttrImpl@xercesc_3_2@@UBE?AW4NodeType@DOMNode@2@XZ 100558a0 f i xerces-c_3:DOMAttrImpl.cpp.obj
 0001:000548a0       ?getType@IC_KeyRef@xercesc_3_2@@UBEFXZ 100558a0 f i xerces-c_3:IC_KeyRef.cpp.obj
 0001:000548a0       ?getCurrentGrammarType@XMLScanner@xercesc_3_2@@UBE?AW4GrammarType@Grammar@2@XZ 100558a0 f i xerces-c_3:XMLScanner.cpp.obj
 0001:000548a0       ?size@ConcatToken@xercesc_3_2@@UBEIXZ 100558a0 f i xerces-c_3:ConcatToken.cpp.obj
 0001:000548b0       ?getErrorType@XMLException@xercesc_3_2@@QBE?AW4ErrTypes@XMLErrorReporter@2@XZ 100558b0 f i xerces-c_3:XMLScanner.cpp.obj
 0001:000548f0       ?getNewUIntPtr@XMLScanner@xercesc_3_2@@IAEPAIXZ 100558f0 f   xerces-c_3:XMLScanner.cpp.obj
 0001:000549d0       ?getType@MalformedURLException@xercesc_3_2@@UBEPB_WXZ 100559d0 f i xerces-c_3:XMLScanner.cpp.obj
 0001:000549e0       ?getType@UnexpectedEOFException@xercesc_3_2@@UBEPB_WXZ 100559e0 f i xerces-c_3:XMLScanner.cpp.obj
 0001:000549f0       ?getURIText@XMLScanner@xercesc_3_2@@QBEPB_WI@Z 100559f0 f   xerces-c_3:XMLScanner.cpp.obj
 0001:00054a30       ?getURIText@XMLScanner@xercesc_3_2@@QBE_NIAAVXMLBuffer@2@@Z 10055a30 f   xerces-c_3:XMLScanner.cpp.obj
 0001:00054ab0       ?initValidator@XMLScanner@xercesc_3_2@@IAEXPAVXMLValidator@2@@Z 10055ab0 f   xerces-c_3:XMLScanner.cpp.obj
 0001:00054ae0       ?initializeXMLScanner@XMLInitializer@xercesc_3_2@@CAXXZ 10055ae0 f   xerces-c_3:XMLScanner.cpp.obj
 0001:00054b80       ?isLegalToken@XMLScanner@xercesc_3_2@@IAE_NABVXMLPScanToken@2@@Z 10055b80 f   xerces-c_3:XMLScanner.cpp.obj
 0001:00054ba0       ?loadGrammar@XMLScanner@xercesc_3_2@@QAEPAVGrammar@2@QBDF_N@Z 10055ba0 f   xerces-c_3:XMLScanner.cpp.obj
 0001:00054c20       ?loadGrammar@XMLScanner@xercesc_3_2@@QAEPAVGrammar@2@QB_WF_N@Z 10055c20 f   xerces-c_3:XMLScanner.cpp.obj
 0001:00054ee0       ?recreateUIntPool@XMLScanner@xercesc_3_2@@IAEXXZ 10055ee0 f   xerces-c_3:XMLScanner.cpp.obj
 0001:00054f80       ?removeAllElements@?$BaseRefVectorOf@VXMLAttr@xercesc_3_2@@@xercesc_3_2@@UAEXXZ 10055f80 f i xerces-c_3:XMLScanner.cpp.obj
 0001:00055020       ?removeElementAt@?$BaseRefVectorOf@VXMLAttr@xercesc_3_2@@@xercesc_3_2@@UAEXI@Z 10056020 f i xerces-c_3:XMLScanner.cpp.obj
 0001:00055100       ?removeLastElement@?$BaseRefVectorOf@VXMLAttr@xercesc_3_2@@@xercesc_3_2@@UAEXXZ 10056100 f i xerces-c_3:XMLScanner.cpp.obj
 0001:00055170       ?resetUIntPool@XMLScanner@xercesc_3_2@@IAEXXZ 10056170 f   xerces-c_3:XMLScanner.cpp.obj
 0001:000551a0       ?resolvePrefix@XMLScanner@xercesc_3_2@@IAEIQB_WW4MapModes@ElemStack@2@@Z 100561a0 f   xerces-c_3:XMLScanner.cpp.obj
 0001:000552a0       ?resolveQName@XMLScanner@xercesc_3_2@@QAEIQB_WAAVXMLBuffer@2@W4MapModes@ElemStack@2@AAH@Z 100562a0 f   xerces-c_3:XMLScanner.cpp.obj
 0001:00055310       ?resolveQNameWithColon@XMLScanner@xercesc_3_2@@IAEIQB_WAAVXMLBuffer@2@W4MapModes@ElemStack@2@H@Z 10056310 f   xerces-c_3:XMLScanner.cpp.obj
 0001:00055370       ?scanCharRef@XMLScanner@xercesc_3_2@@IAE_NAA_W0@Z 10056370 f   xerces-c_3:XMLScanner.cpp.obj
 0001:00055560       ?scanComment@XMLScanner@xercesc_3_2@@IAEXXZ 10056560 f   xerces-c_3:XMLScanner.cpp.obj
 0001:000557f0       ?scanDocument@XMLScanner@xercesc_3_2@@QAEXQBD@Z 100567f0 f   xerces-c_3:XMLScanner.cpp.obj
 0001:00055870       ?scanDocument@XMLScanner@xercesc_3_2@@QAEXQB_W@Z 10056870 f   xerces-c_3:XMLScanner.cpp.obj
 0001:00055af0       ?scanEq@XMLScanner@xercesc_3_2@@IAE_N_N@Z 10056af0 f   xerces-c_3:XMLScanner.cpp.obj
 0001:00055b60       ?scanMiscellaneous@XMLScanner@xercesc_3_2@@IAEXXZ 10056b60 f   xerces-c_3:XMLScanner.cpp.obj
 0001:00055d20       ?scanPI@XMLScanner@xercesc_3_2@@IAEXXZ 10056d20 f   xerces-c_3:XMLScanner.cpp.obj
 0001:000560d0       ?scanProlog@XMLScanner@xercesc_3_2@@IAEXXZ 100570d0 f   xerces-c_3:XMLScanner.cpp.obj
 0001:00056370       ?scanXMLDecl@XMLScanner@xercesc_3_2@@IAEXW4DeclTypes@12@@Z 10057370 f   xerces-c_3:XMLScanner.cpp.obj
 0001:00056c30       ?senseNextToken@XMLScanner@xercesc_3_2@@IAE?AW4XMLTokens@12@AAI@Z 10057c30 f   xerces-c_3:XMLScanner.cpp.obj
 0001:00056de0       ?setElementAt@?$BaseRefVectorOf@VXMLAttr@xercesc_3_2@@@xercesc_3_2@@UAEXQAVXMLAttr@2@I@Z 10057de0 f i xerces-c_3:XMLScanner.cpp.obj
 0001:00056e80       ?setParseSettings@XMLScanner@xercesc_3_2@@QAEXQAV12@@Z 10057e80 f   xerces-c_3:XMLScanner.cpp.obj
 0001:00057020       ?setURIStringPool@XMLScanner@xercesc_3_2@@QAEXQAVXMLStringPool@2@@Z 10058020 f   xerces-c_3:XMLScanner.cpp.obj
 0001:00057080       ?skipPastChar@ReaderMgr@xercesc_3_2@@QAEX_W@Z 10058080 f i xerces-c_3:XMLScanner.cpp.obj
 0001:00057080       ?skipToChar@ReaderMgr@xercesc_3_2@@QAEX_W@Z 10058080 f i xerces-c_3:WFXMLScanner.cpp.obj
 0001:000570b0       ?terminateXMLScanner@XMLInitializer@xercesc_3_2@@CAXXZ 100580b0 f   xerces-c_3:XMLScanner.cpp.obj
 0001:00057100       ?ensureCapacity@XMLBuffer@xercesc_3_2@@AAEXI@Z 10058100 f   xerces-c_3:XMLBuffer.cpp.obj
 0001:000571b0       ?createObject@QName@xercesc_3_2@@SAPAVXSerializable@2@PAVMemoryManager@2@@Z 100581b0 f   xerces-c_3:QName.cpp.obj
 0001:00057210       ??0QName@xercesc_3_2@@QAE@ABV01@@Z 10058210 f   xerces-c_3:QName.cpp.obj
 0001:00057340       ??0QName@xercesc_3_2@@QAE@QAVMemoryManager@1@@Z 10058340 f   xerces-c_3:QName.cpp.obj
 0001:00057390       ??0QName@xercesc_3_2@@QAE@QB_W0IQAVMemoryManager@1@@Z 10058390 f   xerces-c_3:QName.cpp.obj
 0001:00057520       ??0QName@xercesc_3_2@@QAE@QB_WIQAVMemoryManager@1@@Z 10058520 f   xerces-c_3:QName.cpp.obj
 0001:000575e0       ??1QName@xercesc_3_2@@UAE@XZ 100585e0 f   xerces-c_3:QName.cpp.obj
 0001:00057660       ??1XSerializable@xercesc_3_2@@UAE@XZ 10058660 f i xerces-c_3:QName.cpp.obj
 0001:00057660       ??1XMLNumber@xercesc_3_2@@UAE@XZ 10058660 f i xerces-c_3:XMLNumber.cpp.obj
 0001:00057660       ??1XMLAttDefList@xercesc_3_2@@UAE@XZ 10058660 f i xerces-c_3:SchemaAttDefList.cpp.obj
 0001:00057660       ??1XMLGrammarDescription@xercesc_3_2@@UAE@XZ 10058660 f i xerces-c_3:XMLGrammarDescription.cpp.obj
 0001:00057660       ??1Grammar@xercesc_3_2@@UAE@XZ 10058660 f i xerces-c_3:DTDGrammar.cpp.obj
 0001:00057670       ??8QName@xercesc_3_2@@QBE_NABV01@@Z 10058670 f   xerces-c_3:QName.cpp.obj
 0001:00057760       ??_GQName@xercesc_3_2@@UAEPAXI@Z 10058760 f i xerces-c_3:QName.cpp.obj
 0001:00057760       ??_EQName@xercesc_3_2@@UAEPAXI@Z 10058760 f i xerces-c_3:QName.cpp.obj
 0001:00057820       ??_GXSerializable@xercesc_3_2@@UAEPAXI@Z 10058820 f i xerces-c_3:QName.cpp.obj
 0001:00057820       ??_EXSerializable@xercesc_3_2@@UAEPAXI@Z 10058820 f i xerces-c_3:QName.cpp.obj
 0001:00057850       ?cleanUp@QName@xercesc_3_2@@QAEXXZ 10058850 f   xerces-c_3:QName.cpp.obj
 0001:00057890       ?getProtoType@QName@xercesc_3_2@@UBEPAVXProtoType@2@XZ 10058890 f   xerces-c_3:QName.cpp.obj
 0001:000578a0       ?getRawName@QName@xercesc_3_2@@QAEPA_WXZ 100588a0 f   xerces-c_3:QName.cpp.obj
 0001:000578a0       ?getRawName@QName@xercesc_3_2@@QBEPB_WXZ 100588a0 f   xerces-c_3:QName.cpp.obj
 0001:00057960       ?serialize@QName@xercesc_3_2@@UAEXAAVXSerializeEngine@2@@Z 10058960 f   xerces-c_3:QName.cpp.obj
 0001:00057a20       ?setNPrefix@QName@xercesc_3_2@@QAEXPB_WI@Z 10058a20 f   xerces-c_3:QName.cpp.obj
 0001:00057a80       ?setName@QName@xercesc_3_2@@QAEXQB_W0I@Z 10058a80 f   xerces-c_3:QName.cpp.obj
 0001:00057b80       ?setName@QName@xercesc_3_2@@QAEXQB_WI@Z 10058b80 f   xerces-c_3:QName.cpp.obj
 0001:00057c90       ?setValues@QName@xercesc_3_2@@QAEXABV12@@Z 10058c90 f   xerces-c_3:QName.cpp.obj
 0001:00057d80       ??0XMLAttr@xercesc_3_2@@QAE@IQB_W00W4AttTypes@XMLAttDef@1@_NQAVMemoryManager@1@PAVDatatypeValidator@1@2@Z 10058d80 f   xerces-c_3:XMLAttr.cpp.obj
 0001:00057ec0       ??0XMLAttr@xercesc_3_2@@QAE@IQB_W0W4AttTypes@XMLAttDef@1@_NQAVMemoryManager@1@PAVDatatypeValidator@1@2@Z 10058ec0 f   xerces-c_3:XMLAttr.cpp.obj
 0001:00058000       ??0XMLAttr@xercesc_3_2@@QAE@QAVMemoryManager@1@@Z 10059000 f   xerces-c_3:XMLAttr.cpp.obj
 0001:000580b0       ?cleanUp@XMLAttr@xercesc_3_2@@AAEXXZ 100590b0 f   xerces-c_3:XMLAttr.cpp.obj
 0001:000580d0       ?getQName@XMLAttr@xercesc_3_2@@QBEPB_WXZ 100590d0 f   xerces-c_3:XMLAttr.cpp.obj
 0001:000580e0       ?setURIId@XMLAttr@xercesc_3_2@@QAEXI@Z 100590e0 f   xerces-c_3:XMLAttr.cpp.obj
 0001:000580f0       ?setValue@XMLAttr@xercesc_3_2@@QAEXQB_W@Z 100590f0 f   xerces-c_3:XMLAttr.cpp.obj
 0001:00058170       ??0XMLBufferMgr@xercesc_3_2@@QAE@QAVMemoryManager@1@@Z 10059170 f   xerces-c_3:XMLBufferMgr.cpp.obj
 0001:000581c0       ??1XMLBufferMgr@xercesc_3_2@@QAE@XZ 100591c0 f   xerces-c_3:XMLBufferMgr.cpp.obj
 0001:00058240       ?bidOnBuffer@XMLBufferMgr@xercesc_3_2@@QAEAAVXMLBuffer@2@XZ 10059240 f   xerces-c_3:XMLBufferMgr.cpp.obj
 0001:00058350       ?releaseBuffer@XMLBufferMgr@xercesc_3_2@@QAEXAAVXMLBuffer@2@@Z 10059350 f   xerces-c_3:XMLBufferMgr.cpp.obj
 0001:000583b0       ??0EndOfEntityException@xercesc_3_2@@QAE@ABV01@@Z 100593b0 f i xerces-c_3:ReaderMgr.cpp.obj
 0001:000583d0       ??0ReaderMgr@xercesc_3_2@@QAE@QAVMemoryManager@1@@Z 100593d0 f   xerces-c_3:ReaderMgr.cpp.obj
 0001:00058420       ??1?$RefVectorOf@VXMLEntityDecl@xercesc_3_2@@@xercesc_3_2@@UAE@XZ 10059420 f i xerces-c_3:ReaderMgr.cpp.obj
 0001:000584a0       ??1?$RefVectorOf@VXMLReader@xercesc_3_2@@@xercesc_3_2@@UAE@XZ 100594a0 f i xerces-c_3:ReaderMgr.cpp.obj
 0001:00058530       ??1ReaderMgr@xercesc_3_2@@UAE@XZ 10059530 f   xerces-c_3:ReaderMgr.cpp.obj
 0001:00058590       ??_G?$BaseRefVectorOf@VXMLEntityDecl@xercesc_3_2@@@xercesc_3_2@@UAEPAXI@Z 10059590 f i xerces-c_3:ReaderMgr.cpp.obj
 0001:00058590       ??_E?$BaseRefVectorOf@VXMLEntityDecl@xercesc_3_2@@@xercesc_3_2@@UAEPAXI@Z 10059590 f i xerces-c_3:ReaderMgr.cpp.obj
 0001:000585d0       ??_G?$BaseRefVectorOf@VXMLReader@xercesc_3_2@@@xercesc_3_2@@UAEPAXI@Z 100595d0 f i xerces-c_3:ReaderMgr.cpp.obj
 0001:000585d0       ??_E?$BaseRefVectorOf@VXMLReader@xercesc_3_2@@@xercesc_3_2@@UAEPAXI@Z 100595d0 f i xerces-c_3:ReaderMgr.cpp.obj
 0001:00058610       ??_E?$RefVectorOf@VXMLEntityDecl@xercesc_3_2@@@xercesc_3_2@@UAEPAXI@Z 10059610 f i xerces-c_3:ReaderMgr.cpp.obj
 0001:00058610       ??_G?$RefVectorOf@VXMLEntityDecl@xercesc_3_2@@@xercesc_3_2@@UAEPAXI@Z 10059610 f i xerces-c_3:ReaderMgr.cpp.obj
 0001:00058650       ??_G?$RefVectorOf@VXMLReader@xercesc_3_2@@@xercesc_3_2@@UAEPAXI@Z 10059650 f i xerces-c_3:ReaderMgr.cpp.obj
 0001:00058650       ??_E?$RefVectorOf@VXMLReader@xercesc_3_2@@@xercesc_3_2@@UAEPAXI@Z 10059650 f i xerces-c_3:ReaderMgr.cpp.obj
 0001:00058690       ??_ELocator@xercesc_3_2@@UAEPAXI@Z 10059690 f i xerces-c_3:ReaderMgr.cpp.obj
 0001:00058690       ??_GLocator@xercesc_3_2@@UAEPAXI@Z 10059690 f i xerces-c_3:ReaderMgr.cpp.obj
 0001:000586c0       ??_EReaderMgr@xercesc_3_2@@UAEPAXI@Z 100596c0 f i xerces-c_3:ReaderMgr.cpp.obj
 0001:000586c0       ??_GReaderMgr@xercesc_3_2@@UAEPAXI@Z 100596c0 f i xerces-c_3:ReaderMgr.cpp.obj
 0001:00058750       ?atEOF@ReaderMgr@xercesc_3_2@@QBE_NXZ 10059750 f   xerces-c_3:ReaderMgr.cpp.obj
 0001:00058770       ?cleanStackBackTo@ReaderMgr@xercesc_3_2@@QAEXI@Z 10059770 f   xerces-c_3:ReaderMgr.cpp.obj
 0001:00058800       ?cleanup@?$BaseRefVectorOf@VXMLReader@xercesc_3_2@@@xercesc_3_2@@UAEXXZ 10059800 f i xerces-c_3:ReaderMgr.cpp.obj
 0001:00058850       ?createIntEntReader@ReaderMgr@xercesc_3_2@@QAEPAVXMLReader@2@QB_WW4RefFrom@32@W4Types@32@0I_N3I@Z 10059850 f   xerces-c_3:ReaderMgr.cpp.obj
 0001:00058950       ?createReader@ReaderMgr@xercesc_3_2@@QAEPAVXMLReader@2@ABVInputSource@2@_NW4RefFrom@32@W4Types@32@W4Sources@32@1I@Z 10059950 f   xerces-c_3:ReaderMgr.cpp.obj
 0001:00058b00       ?createReader@ReaderMgr@xercesc_3_2@@QAEPAVXMLReader@2@QB_W00_NW4RefFrom@32@W4Types@32@W4Sources@32@AAPAVInputSource@2@1I1@Z 10059b00 f   xerces-c_3:ReaderMgr.cpp.obj
 0001:00058eb0       ?createReader@ReaderMgr@xercesc_3_2@@QAEPAVXMLReader@2@QB_W0_NW4RefFrom@32@W4Types@32@W4Sources@32@AAPAVInputSource@2@1I1@Z 10059eb0 f   xerces-c_3:ReaderMgr.cpp.obj
 0001:00059270       ?elementAt@?$RefStackOf@VXMLReader@xercesc_3_2@@@xercesc_3_2@@QBEPBVXMLReader@2@I@Z 1005a270 f i xerces-c_3:ReaderMgr.cpp.obj
 0001:000592c0       ?getColumnNumber@ReaderMgr@xercesc_3_2@@UBE_KXZ 1005a2c0 f   xerces-c_3:ReaderMgr.cpp.obj
 0001:000592f0       ?getCurrentEncodingStr@ReaderMgr@xercesc_3_2@@QBEPB_WXZ 1005a2f0 f   xerces-c_3:ReaderMgr.cpp.obj
 0001:00059310       ?getLastExtEntity@ReaderMgr@xercesc_3_2@@ABEPBVXMLReader@2@AAPBVXMLEntityDecl@2@@Z 1005a310 f   xerces-c_3:ReaderMgr.cpp.obj
 0001:000593b0       ?getLastExtEntityInfo@ReaderMgr@xercesc_3_2@@QBEXAAULastExtEntityInfo@12@@Z 1005a3b0 f   xerces-c_3:ReaderMgr.cpp.obj
 0001:00059430       ?getLineNumber@ReaderMgr@xercesc_3_2@@UBE_KXZ 1005a430 f   xerces-c_3:ReaderMgr.cpp.obj
 0001:00059460       ?getNextChar@ReaderMgr@xercesc_3_2@@QAE_WXZ 1005a460 f   xerces-c_3:ReaderMgr.cpp.obj
 0001:000594a0       ?getNextChar@XMLReader@xercesc_3_2@@QAE_NAA_W@Z 1005a4a0 f i xerces-c_3:ReaderMgr.cpp.obj
 0001:00059510       ?getPublicId@ReaderMgr@xercesc_3_2@@UBEPB_WXZ 1005a510 f   xerces-c_3:ReaderMgr.cpp.obj
 0001:00059540       ?getReaderDepth@ReaderMgr@xercesc_3_2@@QBEIXZ 1005a540 f   xerces-c_3:ReaderMgr.cpp.obj
 0001:00059560       ?getSpaces@ReaderMgr@xercesc_3_2@@QAEXAAVXMLBuffer@2@@Z 1005a560 f   xerces-c_3:ReaderMgr.cpp.obj
 0001:00059690       ?getSystemId@ReaderMgr@xercesc_3_2@@UBEPB_WXZ 1005a690 f   xerces-c_3:ReaderMgr.cpp.obj
 0001:000596c0       ?getUpToCharOrWS@ReaderMgr@xercesc_3_2@@QAEXAAVXMLBuffer@2@_W@Z 1005a6c0 f   xerces-c_3:ReaderMgr.cpp.obj
 0001:00059800       ?isScanningPERefOutOfLiteral@ReaderMgr@xercesc_3_2@@QBE_NXZ 1005a800 f   xerces-c_3:ReaderMgr.cpp.obj
 0001:00059830       ?peekNextChar@ReaderMgr@xercesc_3_2@@QAE_WXZ 1005a830 f   xerces-c_3:ReaderMgr.cpp.obj
 0001:00059870       ?peekNextChar@XMLReader@xercesc_3_2@@QAE_NAA_W@Z 1005a870 f i xerces-c_3:ReaderMgr.cpp.obj
 0001:000598e0       ?pop@?$RefStackOf@VXMLEntityDecl@xercesc_3_2@@@xercesc_3_2@@QAEPAVXMLEntityDecl@2@XZ 1005a8e0 f i xerces-c_3:ReaderMgr.cpp.obj
 0001:000598e0       ?pop@?$RefStackOf@VXMLReader@xercesc_3_2@@@xercesc_3_2@@QAEPAVXMLReader@2@XZ 1005a8e0 f i xerces-c_3:ReaderMgr.cpp.obj
 0001:00059960       ?popReader@ReaderMgr@xercesc_3_2@@AAE_NXZ 1005a960 f   xerces-c_3:ReaderMgr.cpp.obj
 0001:00059a60       ?pushReader@ReaderMgr@xercesc_3_2@@QAE_NQAVXMLReader@2@QAVXMLEntityDecl@2@@Z 1005aa60 f   xerces-c_3:ReaderMgr.cpp.obj
 0001:00059de0       ?removeAllElements@?$BaseRefVectorOf@VXMLReader@xercesc_3_2@@@xercesc_3_2@@UAEXXZ 1005ade0 f i xerces-c_3:ReaderMgr.cpp.obj
 0001:00059e40       ?removeElementAt@?$BaseRefVectorOf@VXMLReader@xercesc_3_2@@@xercesc_3_2@@UAEXI@Z 1005ae40 f i xerces-c_3:ReaderMgr.cpp.obj
 0001:00059ef0       ?removeLastElement@?$BaseRefVectorOf@VXMLReader@xercesc_3_2@@@xercesc_3_2@@UAEXXZ 1005aef0 f i xerces-c_3:ReaderMgr.cpp.obj
 0001:00059f20       ?reset@ReaderMgr@xercesc_3_2@@QAEXXZ 1005af20 f   xerces-c_3:ReaderMgr.cpp.obj
 0001:00059f70       ?setElementAt@?$BaseRefVectorOf@VXMLReader@xercesc_3_2@@@xercesc_3_2@@UAEXQAVXMLReader@2@I@Z 1005af70 f i xerces-c_3:ReaderMgr.cpp.obj
 0001:00059fe0       ?skipIfQuote@ReaderMgr@xercesc_3_2@@QAE_NAA_W@Z 1005afe0 f   xerces-c_3:ReaderMgr.cpp.obj
 0001:0005a120       ?skipPastSpaces@ReaderMgr@xercesc_3_2@@QAEXAA_N_N@Z 1005b120 f   xerces-c_3:ReaderMgr.cpp.obj
 0001:0005a260       ?skipPastSpaces@ReaderMgr@xercesc_3_2@@QAEXXZ 1005b260 f   xerces-c_3:ReaderMgr.cpp.obj
 0001:0005a380       ?skipQuotedString@ReaderMgr@xercesc_3_2@@QAEX_W@Z 1005b380 f   xerces-c_3:ReaderMgr.cpp.obj
 0001:0005a3d0       ?skipUntilIn@ReaderMgr@xercesc_3_2@@QAE_WQB_W@Z 1005b3d0 f   xerces-c_3:ReaderMgr.cpp.obj
 0001:0005a470       ?skipUntilInOrWS@ReaderMgr@xercesc_3_2@@QAE_WQB_W@Z 1005b470 f   xerces-c_3:ReaderMgr.cpp.obj
 0001:0005a520       ?skippedChar@ReaderMgr@xercesc_3_2@@QAE_N_W@Z 1005b520 f   xerces-c_3:ReaderMgr.cpp.obj
 0001:0005a660       ?skippedSpace@ReaderMgr@xercesc_3_2@@QAE_NXZ 1005b660 f   xerces-c_3:ReaderMgr.cpp.obj
 0001:0005a7a0       ?getDefaultScanner@XMLScannerResolver@xercesc_3_2@@SAPAVXMLScanner@2@QAVXMLValidator@2@QAVGrammarResolver@2@QAVMemoryManager@2@@Z 1005b7a0 f   xerces-c_3:XMLScannerResolver.cpp.obj
 0001:0005a820       ?resolveScanner@XMLScannerResolver@xercesc_3_2@@SAPAVXMLScanner@2@QB_WQAVXMLValidator@2@QAVGrammarResolver@2@QAVMemoryManager@2@@Z 1005b820 f   xerces-c_3:XMLScannerResolver.cpp.obj
 0001:0005aa70       ??0PSVIAttributeList@xercesc_3_2@@QAE@QAVMemoryManager@1@@Z 1005ba70 f   xerces-c_3:PSVIAttributeList.cpp.obj
 0001:0005ab90       ??_E?$BaseRefVectorOf@VPSVIAttributeStorage@xercesc_3_2@@@xercesc_3_2@@UAEPAXI@Z 1005bb90 f i xerces-c_3:PSVIAttributeList.cpp.obj
 0001:0005ab90       ??_G?$BaseRefVectorOf@VPSVIAttributeStorage@xercesc_3_2@@@xercesc_3_2@@UAEPAXI@Z 1005bb90 f i xerces-c_3:PSVIAttributeList.cpp.obj
 0001:0005abd0       ??_G?$RefVectorOf@VPSVIAttributeStorage@xercesc_3_2@@@xercesc_3_2@@UAEPAXI@Z 1005bbd0 f i xerces-c_3:PSVIAttributeList.cpp.obj
 0001:0005abd0       ??_E?$RefVectorOf@VPSVIAttributeStorage@xercesc_3_2@@@xercesc_3_2@@UAEPAXI@Z 1005bbd0 f i xerces-c_3:PSVIAttributeList.cpp.obj
 0001:0005ac80       ?cleanup@?$BaseRefVectorOf@VPSVIAttributeStorage@xercesc_3_2@@@xercesc_3_2@@UAEXXZ 1005bc80 f i xerces-c_3:PSVIAttributeList.cpp.obj
 0001:0005acd0       ?getAttributeNameAtIndex@PSVIAttributeList@xercesc_3_2@@QAEPB_WI@Z 1005bcd0 f   xerces-c_3:PSVIAttributeList.cpp.obj
 0001:0005ad30       ?getAttributeNamespaceAtIndex@PSVIAttributeList@xercesc_3_2@@QAEPB_WI@Z 1005bd30 f   xerces-c_3:PSVIAttributeList.cpp.obj
 0001:0005ad90       ?getAttributePSVIAtIndex@PSVIAttributeList@xercesc_3_2@@QAEPAVPSVIAttribute@2@I@Z 1005bd90 f   xerces-c_3:PSVIAttributeList.cpp.obj
 0001:0005adf0       ?getAttributePSVIByName@PSVIAttributeList@xercesc_3_2@@QAEPAVPSVIAttribute@2@PB_W0@Z 1005bdf0 f   xerces-c_3:PSVIAttributeList.cpp.obj
 0001:0005af20       ?removeAllElements@?$BaseRefVectorOf@VPSVIAttributeStorage@xercesc_3_2@@@xercesc_3_2@@UAEXXZ 1005bf20 f i xerces-c_3:PSVIAttributeList.cpp.obj
 0001:0005af80       ?removeElementAt@?$BaseRefVectorOf@VPSVIAttributeStorage@xercesc_3_2@@@xercesc_3_2@@UAEXI@Z 1005bf80 f i xerces-c_3:PSVIAttributeList.cpp.obj
 0001:0005b030       ?removeLastElement@?$BaseRefVectorOf@VPSVIAttributeStorage@xercesc_3_2@@@xercesc_3_2@@UAEXXZ 1005c030 f i xerces-c_3:PSVIAttributeList.cpp.obj
 0001:0005b070       ?setElementAt@?$BaseRefVectorOf@VPSVIAttributeStorage@xercesc_3_2@@@xercesc_3_2@@UAEXQAVPSVIAttributeStorage@2@I@Z 1005c070 f i xerces-c_3:PSVIAttributeList.cpp.obj
 0001:0005b0e0       ??0XSElementDeclaration@xercesc_3_2@@QAE@QAVSchemaElementDecl@1@QAVXSTypeDefinition@1@QAV01@QAVXSAnnotation@1@QAV?$XSNamedMap@VXSIDCDefinition@xercesc_3_2@@@1@QAVXSModel@1@W4SCOPE@XSConstants@1@QAVXSComplexTypeDefinition@1@QAVMemoryManager@1@@Z 1005c0e0 f   xerces-c_3:XSElementDeclaration.cpp.obj
 0001:0005b1a0       ??_GXSElementDeclaration@xercesc_3_2@@UAEPAXI@Z 1005c1a0 f i xerces-c_3:XSElementDeclaration.cpp.obj
 0001:0005b1a0       ??_EXSElementDeclaration@xercesc_3_2@@UAEPAXI@Z 1005c1a0 f i xerces-c_3:XSElementDeclaration.cpp.obj
 0001:0005b2d0       ?getName@XSElementDeclaration@xercesc_3_2@@UBEPB_WXZ 1005c2d0 f   xerces-c_3:XSElementDeclaration.cpp.obj
 0001:0005b2e0       ?getNamespace@XSElementDeclaration@xercesc_3_2@@UBEPB_WXZ 1005c2e0 f   xerces-c_3:XSElementDeclaration.cpp.obj
 0001:0005b300       ?getNamespaceItem@XSNotationDeclaration@xercesc_3_2@@UAEPAVXSNamespaceItem@2@XZ 1005c300 f   xerces-c_3:XSNotationDeclaration.cpp.obj
 0001:0005b300       ?getNamespaceItem@XSAttributeDeclaration@xercesc_3_2@@UAEPAVXSNamespaceItem@2@XZ 1005c300 f   xerces-c_3:XSAttributeDeclaration.cpp.obj
 0001:0005b300       ?getNamespaceItem@XSIDCDefinition@xercesc_3_2@@UAEPAVXSNamespaceItem@2@XZ 1005c300 f   xerces-c_3:XSIDCDefinition.cpp.obj
 0001:0005b300       ?getNamespaceItem@XSSimpleTypeDefinition@xercesc_3_2@@UAEPAVXSNamespaceItem@2@XZ 1005c300 f   xerces-c_3:XSSimpleTypeDefinition.cpp.obj
 0001:0005b300       ?getNamespaceItem@XSComplexTypeDefinition@xercesc_3_2@@UAEPAVXSNamespaceItem@2@XZ 1005c300 f   xerces-c_3:XSComplexTypeDefinition.cpp.obj
 0001:0005b300       ?getNamespaceItem@XSAttributeGroupDefinition@xercesc_3_2@@UAEPAVXSNamespaceItem@2@XZ 1005c300 f   xerces-c_3:XSAttributeGroupDefinition.cpp.obj
 0001:0005b300       ?getNamespaceItem@XSElementDeclaration@xercesc_3_2@@UAEPAVXSNamespaceItem@2@XZ 1005c300 f   xerces-c_3:XSElementDeclaration.cpp.obj
 0001:0005b300       ?getNamespaceItem@XSModelGroupDefinition@xercesc_3_2@@UAEPAVXSNamespaceItem@2@XZ 1005c300 f   xerces-c_3:XSModelGroupDefinition.cpp.obj
 0001:0005b320       ?getNillable@XSElementDeclaration@xercesc_3_2@@QBE_NXZ 1005c320 f   xerces-c_3:XSElementDeclaration.cpp.obj
 0001:0005b330       ??0DOMException@xercesc_3_2@@QAE@ABV01@@Z 1005c330 f   xerces-c_3:DOMException.cpp.obj
 0001:0005b3c0       ??0DOMException@xercesc_3_2@@QAE@FFQAVMemoryManager@1@@Z 1005c3c0 f   xerces-c_3:DOMException.cpp.obj
 0001:0005b4a0       ??1DOMException@xercesc_3_2@@UAE@XZ 1005c4a0 f   xerces-c_3:DOMException.cpp.obj
 0001:0005b4f0       ??_GDOMException@xercesc_3_2@@UAEPAXI@Z 1005c4f0 f i xerces-c_3:DOMException.cpp.obj
 0001:0005b4f0       ??_EDOMException@xercesc_3_2@@UAEPAXI@Z 1005c4f0 f i xerces-c_3:DOMException.cpp.obj
 0001:0005b55d       ??_EDOMImplementationImpl@xercesc_3_2@@W3AEPAXI@Z 1005c55d f i xerces-c_3:DOMImplementationImpl.cpp.obj
 0001:0005b570       ??_EDOMImplementationImpl@xercesc_3_2@@UAEPAXI@Z 1005c570 f i xerces-c_3:DOMImplementationImpl.cpp.obj
 0001:0005b570       ??_GDOMImplementationImpl@xercesc_3_2@@UAEPAXI@Z 1005c570 f i xerces-c_3:DOMImplementationImpl.cpp.obj
 0001:0005b5b0       ??_EDOMImplementationLS@xercesc_3_2@@UAEPAXI@Z 1005c5b0 f i xerces-c_3:DOMImplementationImpl.cpp.obj
 0001:0005b5b0       ??_GDOMImplementationLS@xercesc_3_2@@UAEPAXI@Z 1005c5b0 f i xerces-c_3:DOMImplementationImpl.cpp.obj
 0001:0005b5e0       ??_EDOMImplementationSource@xercesc_3_2@@UAEPAXI@Z 1005c5e0 f i xerces-c_3:DOMImplementationImpl.cpp.obj
 0001:0005b5e0       ??_GDOMImplementationSource@xercesc_3_2@@UAEPAXI@Z 1005c5e0 f i xerces-c_3:DOMImplementationImpl.cpp.obj
 0001:0005b610       ?createDocument@DOMImplementationImpl@xercesc_3_2@@UAEPAVDOMDocument@2@PB_W0PAVDOMDocumentType@2@QAVMemoryManager@2@@Z 1005c610 f   xerces-c_3:DOMImplementationImpl.cpp.obj
 0001:0005b690       ?createDocument@DOMImplementationImpl@xercesc_3_2@@UAEPAVDOMDocument@2@QAVMemoryManager@2@@Z 1005c690 f   xerces-c_3:DOMImplementationImpl.cpp.obj
 0001:0005b700       ?createDocumentType@DOMImplementationImpl@xercesc_3_2@@UAEPAVDOMDocumentType@2@PB_W00@Z 1005c700 f   xerces-c_3:DOMImplementationImpl.cpp.obj
 0001:0005b7b0       ?createLSInput@DOMImplementationImpl@xercesc_3_2@@UAEPAVDOMLSInput@2@QAVMemoryManager@2@@Z 1005c7b0 f   xerces-c_3:DOMImplementationImpl.cpp.obj
 0001:0005b820       ?createLSOutput@DOMImplementationImpl@xercesc_3_2@@UAEPAVDOMLSOutput@2@QAVMemoryManager@2@@Z 1005c820 f   xerces-c_3:DOMImplementationImpl.cpp.obj
 0001:0005b890       ?createLSParser@DOMImplementationImpl@xercesc_3_2@@UAEPAVDOMLSParser@2@W4DOMImplementationLSMode@DOMImplementationLS@2@QB_WQAVMemoryManager@2@QAVXMLGrammarPool@2@@Z 1005c890 f   xerces-c_3:DOMImplementationImpl.cpp.obj
 0001:0005b930       ?createLSSerializer@DOMImplementationImpl@xercesc_3_2@@UAEPAVDOMLSSerializer@2@QAVMemoryManager@2@@Z 1005c930 f   xerces-c_3:DOMImplementationImpl.cpp.obj
 0001:0005b9a0       ?getDOMImplementation@DOMImplementationImpl@xercesc_3_2@@UBEPAVDOMImplementation@2@PB_W@Z 1005c9a0 f   xerces-c_3:DOMImplementationImpl.cpp.obj
 0001:0005ba70       ?getDOMImplementationImpl@DOMImplementationImpl@xercesc_3_2@@SAPAV12@XZ 1005ca70 f   xerces-c_3:DOMImplementationImpl.cpp.obj
 0001:0005ba70       ?getImplementation@DOMImplementation@xercesc_3_2@@SAPAV12@XZ 1005ca70 f   xerces-c_3:DOMImplementationImpl.cpp.obj
 0001:0005ba80       ?getDOMImplementationList@DOMImplementationImpl@xercesc_3_2@@UBEPAVDOMImplementationList@2@PB_W@Z 1005ca80 f   xerces-c_3:DOMImplementationImpl.cpp.obj
 0001:0005bb00       ?getMsgLoader4DOM@DOMImplementationImpl@xercesc_3_2@@SAPAVXMLMsgLoader@2@XZ 1005cb00 f   xerces-c_3:DOMImplementationImpl.cpp.obj
 0001:0005bb10       ?hasFeature@DOMImplementationImpl@xercesc_3_2@@UBE_NPB_W0@Z 1005cb10 f   xerces-c_3:DOMImplementationImpl.cpp.obj
 0001:0005bcf0       ?initializeDOMImplementationImpl@XMLInitializer@xercesc_3_2@@CAXXZ 1005ccf0 f   xerces-c_3:DOMImplementationImpl.cpp.obj
 0001:0005bd50       ?terminateDOMImplementationImpl@XMLInitializer@xercesc_3_2@@CAXXZ 1005cd50 f   xerces-c_3:DOMImplementationImpl.cpp.obj
 0001:0005bd90       ??_E?$BaseRefVectorOf@VDOMImplementationSource@xercesc_3_2@@@xercesc_3_2@@UAEPAXI@Z 1005cd90 f i xerces-c_3:DOMImplementationRegistry.cpp.obj
 0001:0005bd90       ??_G?$BaseRefVectorOf@VDOMImplementationSource@xercesc_3_2@@@xercesc_3_2@@UAEPAXI@Z 1005cd90 f i xerces-c_3:DOMImplementationRegistry.cpp.obj
 0001:0005bdd0       ??_E?$RefVectorOf@VDOMImplementationSource@xercesc_3_2@@@xercesc_3_2@@UAEPAXI@Z 1005cdd0 f i xerces-c_3:DOMImplementationRegistry.cpp.obj
 0001:0005bdd0       ??_G?$RefVectorOf@VDOMImplementationSource@xercesc_3_2@@@xercesc_3_2@@UAEPAXI@Z 1005cdd0 f i xerces-c_3:DOMImplementationRegistry.cpp.obj
 0001:0005be70       ?getDOMImplementation@DOMImplementationRegistry@xercesc_3_2@@SAPAVDOMImplementation@2@PB_W@Z 1005ce70 f   xerces-c_3:DOMImplementationRegistry.cpp.obj
 0001:0005bf70       ?initializeDOMImplementationRegistry@XMLInitializer@xercesc_3_2@@CAXXZ 1005cf70 f   xerces-c_3:DOMImplementationRegistry.cpp.obj
 0001:0005c070       ?terminateDOMImplementationRegistry@XMLInitializer@xercesc_3_2@@CAXXZ 1005d070 f   xerces-c_3:DOMImplementationRegistry.cpp.obj
 0001:0005c0c0       ??0DOMNodeIDMap@xercesc_3_2@@QAE@IPAVDOMDocument@1@@Z 1005d0c0 f   xerces-c_3:DOMNodeIDMap.cpp.obj
 0001:0005c1e0       ?add@DOMNodeIDMap@xercesc_3_2@@QAEXPAVDOMAttr@2@@Z 1005d1e0 f   xerces-c_3:DOMNodeIDMap.cpp.obj
 0001:0005c3a0       ?find@DOMNodeIDMap@xercesc_3_2@@QAEPAVDOMAttr@2@PB_W@Z 1005d3a0 f   xerces-c_3:DOMNodeIDMap.cpp.obj
 0001:0005c4a0       ?remove@DOMNodeIDMap@xercesc_3_2@@QAEXPAVDOMAttr@2@@Z 1005d4a0 f   xerces-c_3:DOMNodeIDMap.cpp.obj
 0001:0005c540       ??0DOMAttrImpl@xercesc_3_2@@QAE@ABV01@_N@Z 1005d540 f   xerces-c_3:DOMAttrImpl.cpp.obj
 0001:0005c640       ??0DOMAttrImpl@xercesc_3_2@@QAE@PAVDOMDocument@1@PB_W@Z 1005d640 f   xerces-c_3:DOMAttrImpl.cpp.obj
 0001:0005c700       ??1DOMCDATASection@xercesc_3_2@@UAE@XZ 1005d700 f i xerces-c_3:DOMCDATASectionImpl.cpp.obj
 0001:0005c700       ??1DOMDocumentFragment@xercesc_3_2@@UAE@XZ 1005d700 f i xerces-c_3:DOMDocumentFragmentImpl.cpp.obj
 0001:0005c700       ??1DOMText@xercesc_3_2@@UAE@XZ 1005d700 f i xerces-c_3:DOMCDATASectionImpl.cpp.obj
 0001:0005c700       ??1DOMEntityReference@xercesc_3_2@@UAE@XZ 1005d700 f i xerces-c_3:DOMEntityReferenceImpl.cpp.obj
 0001:0005c700       ??1DOMDocumentType@xercesc_3_2@@UAE@XZ 1005d700 f i xerces-c_3:DOMDocumentTypeImpl.cpp.obj
 0001:0005c700       ??1DOMNotation@xercesc_3_2@@UAE@XZ 1005d700 f i xerces-c_3:DOMNotationImpl.cpp.obj
 0001:0005c700       ??1DOMEntity@xercesc_3_2@@UAE@XZ 1005d700 f i xerces-c_3:DOMEntityImpl.cpp.obj
 0001:0005c700       ??1DOMComment@xercesc_3_2@@UAE@XZ 1005d700 f i xerces-c_3:DOMCommentImpl.cpp.obj
 0001:0005c700       ??1DOMElement@xercesc_3_2@@UAE@XZ 1005d700 f i xerces-c_3:DOMElementImpl.cpp.obj
 0001:0005c700       ??1DOMProcessingInstruction@xercesc_3_2@@UAE@XZ 1005d700 f i xerces-c_3:DOMProcessingInstructionImpl.cpp.obj
 0001:0005c700       ??1DOMAttr@xercesc_3_2@@UAE@XZ 1005d700 f i xerces-c_3:DOMAttrImpl.cpp.obj
 0001:0005c710       ??1DOMAttrImpl@xercesc_3_2@@UAE@XZ 1005d710 f   xerces-c_3:DOMAttrImpl.cpp.obj
 0001:0005c74d       ??_EDOMAttrImpl@xercesc_3_2@@W3AEPAXI@Z 1005d74d f i xerces-c_3:DOMAttrImpl.cpp.obj
 0001:0005c755       ??_EDOMAttrImpl@xercesc_3_2@@W7AEPAXI@Z 1005d755 f i xerces-c_3:DOMAttrImpl.cpp.obj
 0001:0005c760       ??_GDOMAttrImpl@xercesc_3_2@@UAEPAXI@Z 1005d760 f i xerces-c_3:DOMAttrImpl.cpp.obj
 0001:0005c760       ??_EDOMAttrImpl@xercesc_3_2@@UAEPAXI@Z 1005d760 f i xerces-c_3:DOMAttrImpl.cpp.obj
 0001:0005c7c0       ?addAttrToIDNodeMap@DOMAttrImpl@xercesc_3_2@@UAEXXZ 1005d7c0 f i xerces-c_3:DOMAttrImpl.cpp.obj
 0001:0005c870       ?appendChild@DOMDocumentFragmentImpl@xercesc_3_2@@UAEPAVDOMNode@2@PAV32@@Z 1005d870 f   xerces-c_3:DOMDocumentFragmentImpl.cpp.obj
 0001:0005c870       ?appendChild@DOMAttrImpl@xercesc_3_2@@UAEPAVDOMNode@2@PAV32@@Z 1005d870 f   xerces-c_3:DOMAttrImpl.cpp.obj
 0001:0005c8e0       ?cloneNode@DOMAttrImpl@xercesc_3_2@@UBEPAVDOMNode@2@_N@Z 1005d8e0 f   xerces-c_3:DOMAttrImpl.cpp.obj
 0001:0005ca10       ?getBaseURI@DOMAttrImpl@xercesc_3_2@@UBEPB_WXZ 1005da10 f   xerces-c_3:DOMAttrImpl.cpp.obj
 0001:0005ca10       ?getBaseURI@DOMCommentImpl@xercesc_3_2@@UBEPB_WXZ 1005da10 f   xerces-c_3:DOMCommentImpl.cpp.obj
 0001:0005ca10       ?getBaseURI@DOMDocumentFragmentImpl@xercesc_3_2@@UBEPB_WXZ 1005da10 f   xerces-c_3:DOMDocumentFragmentImpl.cpp.obj
 0001:0005ca10       ?getBaseURI@DOMTextImpl@xercesc_3_2@@UBEPB_WXZ 1005da10 f   xerces-c_3:DOMTextImpl.cpp.obj
 0001:0005ca10       ?getBaseURI@DOMCDATASectionImpl@xercesc_3_2@@UBEPB_WXZ 1005da10 f   xerces-c_3:DOMCDATASectionImpl.cpp.obj
